
Out/rt_thread_msg.elf:     file format elf32-littlearm


Disassembly of section .text:

00000000 <__Vectors>:
       0:	200054e0 	andcs	r5, r0, r0, ror #9
       4:	00001581 	andeq	r1, r0, r1, lsl #11
       8:	0000157d 	andeq	r1, r0, sp, ror r5
       c:	00004b2b 	andeq	r4, r0, fp, lsr #22
      10:	0000157d 	andeq	r1, r0, sp, ror r5
      14:	0000157d 	andeq	r1, r0, sp, ror r5
      18:	0000157d 	andeq	r1, r0, sp, ror r5
      1c:	0000157d 	andeq	r1, r0, sp, ror r5
	...
      2c:	0000157d 	andeq	r1, r0, sp, ror r5
      30:	0000157d 	andeq	r1, r0, sp, ror r5
      34:	00000000 	andeq	r0, r0, r0
      38:	00004aa3 	andeq	r4, r0, r3, lsr #21
      3c:	00001431 	andeq	r1, r0, r1, lsr r4

00000040 <g_vector_table>:
      40:	000014cd 	andeq	r1, r0, sp, asr #9
      44:	000014e9 	andeq	r1, r0, r9, ror #9
	...
      5c:	00001211 	andeq	r1, r0, r1, lsl r2
	...

000000c0 <__Vectors_End>:
      c0:	ffffffff 			; <UNDEFINED> instruction: 0xffffffff
      c4:	ffffffff 			; <UNDEFINED> instruction: 0xffffffff
      c8:	ffffffff 			; <UNDEFINED> instruction: 0xffffffff
      cc:	ffffffff 			; <UNDEFINED> instruction: 0xffffffff
      d0:	ffffffff 			; <UNDEFINED> instruction: 0xffffffff
      d4:	ffffffff 			; <UNDEFINED> instruction: 0xffffffff
      d8:	ffffffff 			; <UNDEFINED> instruction: 0xffffffff
      dc:	ffffffff 			; <UNDEFINED> instruction: 0xffffffff
      e0:	ffffffff 			; <UNDEFINED> instruction: 0xffffffff
      e4:	ffffffff 			; <UNDEFINED> instruction: 0xffffffff
      e8:	ffffffff 			; <UNDEFINED> instruction: 0xffffffff
      ec:	ffffffff 			; <UNDEFINED> instruction: 0xffffffff
      f0:	ffffffff 			; <UNDEFINED> instruction: 0xffffffff
      f4:	ffffffff 			; <UNDEFINED> instruction: 0xffffffff
      f8:	ffffffff 			; <UNDEFINED> instruction: 0xffffffff
      fc:	ffffffff 			; <UNDEFINED> instruction: 0xffffffff
     100:	ffffffff 			; <UNDEFINED> instruction: 0xffffffff
     104:	ffffffff 			; <UNDEFINED> instruction: 0xffffffff
     108:	ffffffff 			; <UNDEFINED> instruction: 0xffffffff
     10c:	ffffffff 			; <UNDEFINED> instruction: 0xffffffff
     110:	ffffffff 			; <UNDEFINED> instruction: 0xffffffff
     114:	ffffffff 			; <UNDEFINED> instruction: 0xffffffff
     118:	ffffffff 			; <UNDEFINED> instruction: 0xffffffff
     11c:	ffffffff 			; <UNDEFINED> instruction: 0xffffffff
     120:	ffffffff 			; <UNDEFINED> instruction: 0xffffffff
     124:	ffffffff 			; <UNDEFINED> instruction: 0xffffffff
     128:	ffffffff 			; <UNDEFINED> instruction: 0xffffffff
     12c:	ffffffff 			; <UNDEFINED> instruction: 0xffffffff
     130:	ffffffff 			; <UNDEFINED> instruction: 0xffffffff
     134:	ffffffff 			; <UNDEFINED> instruction: 0xffffffff
     138:	ffffffff 			; <UNDEFINED> instruction: 0xffffffff
     13c:	ffffffff 			; <UNDEFINED> instruction: 0xffffffff
     140:	ffffffff 			; <UNDEFINED> instruction: 0xffffffff
     144:	ffffffff 			; <UNDEFINED> instruction: 0xffffffff
     148:	ffffffff 			; <UNDEFINED> instruction: 0xffffffff
     14c:	ffffffff 			; <UNDEFINED> instruction: 0xffffffff
     150:	ffffffff 			; <UNDEFINED> instruction: 0xffffffff
     154:	ffffffff 			; <UNDEFINED> instruction: 0xffffffff
     158:	ffffffff 			; <UNDEFINED> instruction: 0xffffffff
     15c:	ffffffff 			; <UNDEFINED> instruction: 0xffffffff
     160:	ffffffff 			; <UNDEFINED> instruction: 0xffffffff
     164:	ffffffff 			; <UNDEFINED> instruction: 0xffffffff
     168:	ffffffff 			; <UNDEFINED> instruction: 0xffffffff
     16c:	ffffffff 			; <UNDEFINED> instruction: 0xffffffff
     170:	ffffffff 			; <UNDEFINED> instruction: 0xffffffff
     174:	ffffffff 			; <UNDEFINED> instruction: 0xffffffff
     178:	ffffffff 			; <UNDEFINED> instruction: 0xffffffff
     17c:	ffffffff 			; <UNDEFINED> instruction: 0xffffffff
     180:	ffffffff 			; <UNDEFINED> instruction: 0xffffffff
     184:	ffffffff 			; <UNDEFINED> instruction: 0xffffffff
     188:	ffffffff 			; <UNDEFINED> instruction: 0xffffffff
     18c:	ffffffff 			; <UNDEFINED> instruction: 0xffffffff
     190:	ffffffff 			; <UNDEFINED> instruction: 0xffffffff
     194:	ffffffff 			; <UNDEFINED> instruction: 0xffffffff
     198:	ffffffff 			; <UNDEFINED> instruction: 0xffffffff
     19c:	ffffffff 			; <UNDEFINED> instruction: 0xffffffff
     1a0:	ffffffff 			; <UNDEFINED> instruction: 0xffffffff
     1a4:	ffffffff 			; <UNDEFINED> instruction: 0xffffffff
     1a8:	ffffffff 			; <UNDEFINED> instruction: 0xffffffff
     1ac:	ffffffff 			; <UNDEFINED> instruction: 0xffffffff
     1b0:	ffffffff 			; <UNDEFINED> instruction: 0xffffffff
     1b4:	ffffffff 			; <UNDEFINED> instruction: 0xffffffff
     1b8:	ffffffff 			; <UNDEFINED> instruction: 0xffffffff
     1bc:	ffffffff 			; <UNDEFINED> instruction: 0xffffffff
     1c0:	ffffffff 			; <UNDEFINED> instruction: 0xffffffff
     1c4:	ffffffff 			; <UNDEFINED> instruction: 0xffffffff
     1c8:	ffffffff 			; <UNDEFINED> instruction: 0xffffffff
     1cc:	ffffffff 			; <UNDEFINED> instruction: 0xffffffff
     1d0:	ffffffff 			; <UNDEFINED> instruction: 0xffffffff
     1d4:	ffffffff 			; <UNDEFINED> instruction: 0xffffffff
     1d8:	ffffffff 			; <UNDEFINED> instruction: 0xffffffff
     1dc:	ffffffff 			; <UNDEFINED> instruction: 0xffffffff
     1e0:	ffffffff 			; <UNDEFINED> instruction: 0xffffffff
     1e4:	ffffffff 			; <UNDEFINED> instruction: 0xffffffff
     1e8:	ffffffff 			; <UNDEFINED> instruction: 0xffffffff
     1ec:	ffffffff 			; <UNDEFINED> instruction: 0xffffffff
     1f0:	ffffffff 			; <UNDEFINED> instruction: 0xffffffff
     1f4:	ffffffff 			; <UNDEFINED> instruction: 0xffffffff
     1f8:	ffffffff 			; <UNDEFINED> instruction: 0xffffffff
     1fc:	ffffffff 			; <UNDEFINED> instruction: 0xffffffff
     200:	ffffffff 			; <UNDEFINED> instruction: 0xffffffff
     204:	ffffffff 			; <UNDEFINED> instruction: 0xffffffff
     208:	ffffffff 			; <UNDEFINED> instruction: 0xffffffff
     20c:	ffffffff 			; <UNDEFINED> instruction: 0xffffffff
     210:	ffffffff 			; <UNDEFINED> instruction: 0xffffffff
     214:	ffffffff 			; <UNDEFINED> instruction: 0xffffffff
     218:	ffffffff 			; <UNDEFINED> instruction: 0xffffffff
     21c:	ffffffff 			; <UNDEFINED> instruction: 0xffffffff
     220:	ffffffff 			; <UNDEFINED> instruction: 0xffffffff
     224:	ffffffff 			; <UNDEFINED> instruction: 0xffffffff
     228:	ffffffff 			; <UNDEFINED> instruction: 0xffffffff
     22c:	ffffffff 			; <UNDEFINED> instruction: 0xffffffff
     230:	ffffffff 			; <UNDEFINED> instruction: 0xffffffff
     234:	ffffffff 			; <UNDEFINED> instruction: 0xffffffff
     238:	ffffffff 			; <UNDEFINED> instruction: 0xffffffff
     23c:	ffffffff 			; <UNDEFINED> instruction: 0xffffffff
     240:	ffffffff 			; <UNDEFINED> instruction: 0xffffffff
     244:	ffffffff 			; <UNDEFINED> instruction: 0xffffffff
     248:	ffffffff 			; <UNDEFINED> instruction: 0xffffffff
     24c:	ffffffff 			; <UNDEFINED> instruction: 0xffffffff
     250:	ffffffff 			; <UNDEFINED> instruction: 0xffffffff
     254:	ffffffff 			; <UNDEFINED> instruction: 0xffffffff
     258:	ffffffff 			; <UNDEFINED> instruction: 0xffffffff
     25c:	ffffffff 			; <UNDEFINED> instruction: 0xffffffff
     260:	ffffffff 			; <UNDEFINED> instruction: 0xffffffff
     264:	ffffffff 			; <UNDEFINED> instruction: 0xffffffff
     268:	ffffffff 			; <UNDEFINED> instruction: 0xffffffff
     26c:	ffffffff 			; <UNDEFINED> instruction: 0xffffffff
     270:	ffffffff 			; <UNDEFINED> instruction: 0xffffffff
     274:	ffffffff 			; <UNDEFINED> instruction: 0xffffffff
     278:	ffffffff 			; <UNDEFINED> instruction: 0xffffffff
     27c:	ffffffff 			; <UNDEFINED> instruction: 0xffffffff
     280:	ffffffff 			; <UNDEFINED> instruction: 0xffffffff
     284:	ffffffff 			; <UNDEFINED> instruction: 0xffffffff
     288:	ffffffff 			; <UNDEFINED> instruction: 0xffffffff
     28c:	ffffffff 			; <UNDEFINED> instruction: 0xffffffff
     290:	ffffffff 			; <UNDEFINED> instruction: 0xffffffff
     294:	ffffffff 			; <UNDEFINED> instruction: 0xffffffff
     298:	ffffffff 			; <UNDEFINED> instruction: 0xffffffff
     29c:	ffffffff 			; <UNDEFINED> instruction: 0xffffffff
     2a0:	ffffffff 			; <UNDEFINED> instruction: 0xffffffff
     2a4:	ffffffff 			; <UNDEFINED> instruction: 0xffffffff
     2a8:	ffffffff 			; <UNDEFINED> instruction: 0xffffffff
     2ac:	ffffffff 			; <UNDEFINED> instruction: 0xffffffff
     2b0:	ffffffff 			; <UNDEFINED> instruction: 0xffffffff
     2b4:	ffffffff 			; <UNDEFINED> instruction: 0xffffffff
     2b8:	ffffffff 			; <UNDEFINED> instruction: 0xffffffff
     2bc:	ffffffff 			; <UNDEFINED> instruction: 0xffffffff
     2c0:	ffffffff 			; <UNDEFINED> instruction: 0xffffffff
     2c4:	ffffffff 			; <UNDEFINED> instruction: 0xffffffff
     2c8:	ffffffff 			; <UNDEFINED> instruction: 0xffffffff
     2cc:	ffffffff 			; <UNDEFINED> instruction: 0xffffffff
     2d0:	ffffffff 			; <UNDEFINED> instruction: 0xffffffff
     2d4:	ffffffff 			; <UNDEFINED> instruction: 0xffffffff
     2d8:	ffffffff 			; <UNDEFINED> instruction: 0xffffffff
     2dc:	ffffffff 			; <UNDEFINED> instruction: 0xffffffff
     2e0:	ffffffff 			; <UNDEFINED> instruction: 0xffffffff
     2e4:	ffffffff 			; <UNDEFINED> instruction: 0xffffffff
     2e8:	ffffffff 			; <UNDEFINED> instruction: 0xffffffff
     2ec:	ffffffff 			; <UNDEFINED> instruction: 0xffffffff
     2f0:	ffffffff 			; <UNDEFINED> instruction: 0xffffffff
     2f4:	ffffffff 			; <UNDEFINED> instruction: 0xffffffff
     2f8:	ffffffff 			; <UNDEFINED> instruction: 0xffffffff
     2fc:	ffffffff 			; <UNDEFINED> instruction: 0xffffffff
     300:	ffffffff 			; <UNDEFINED> instruction: 0xffffffff
     304:	ffffffff 			; <UNDEFINED> instruction: 0xffffffff
     308:	ffffffff 			; <UNDEFINED> instruction: 0xffffffff
     30c:	ffffffff 			; <UNDEFINED> instruction: 0xffffffff
     310:	ffffffff 			; <UNDEFINED> instruction: 0xffffffff
     314:	ffffffff 			; <UNDEFINED> instruction: 0xffffffff
     318:	ffffffff 			; <UNDEFINED> instruction: 0xffffffff
     31c:	ffffffff 			; <UNDEFINED> instruction: 0xffffffff
     320:	ffffffff 			; <UNDEFINED> instruction: 0xffffffff
     324:	ffffffff 			; <UNDEFINED> instruction: 0xffffffff
     328:	ffffffff 			; <UNDEFINED> instruction: 0xffffffff
     32c:	ffffffff 			; <UNDEFINED> instruction: 0xffffffff
     330:	ffffffff 			; <UNDEFINED> instruction: 0xffffffff
     334:	ffffffff 			; <UNDEFINED> instruction: 0xffffffff
     338:	ffffffff 			; <UNDEFINED> instruction: 0xffffffff
     33c:	ffffffff 			; <UNDEFINED> instruction: 0xffffffff
     340:	ffffffff 			; <UNDEFINED> instruction: 0xffffffff
     344:	ffffffff 			; <UNDEFINED> instruction: 0xffffffff
     348:	ffffffff 			; <UNDEFINED> instruction: 0xffffffff
     34c:	ffffffff 			; <UNDEFINED> instruction: 0xffffffff
     350:	ffffffff 			; <UNDEFINED> instruction: 0xffffffff
     354:	ffffffff 			; <UNDEFINED> instruction: 0xffffffff
     358:	ffffffff 			; <UNDEFINED> instruction: 0xffffffff
     35c:	ffffffff 			; <UNDEFINED> instruction: 0xffffffff
     360:	ffffffff 			; <UNDEFINED> instruction: 0xffffffff
     364:	ffffffff 			; <UNDEFINED> instruction: 0xffffffff
     368:	ffffffff 			; <UNDEFINED> instruction: 0xffffffff
     36c:	ffffffff 			; <UNDEFINED> instruction: 0xffffffff
     370:	ffffffff 			; <UNDEFINED> instruction: 0xffffffff
     374:	ffffffff 			; <UNDEFINED> instruction: 0xffffffff
     378:	ffffffff 			; <UNDEFINED> instruction: 0xffffffff
     37c:	ffffffff 			; <UNDEFINED> instruction: 0xffffffff
     380:	ffffffff 			; <UNDEFINED> instruction: 0xffffffff
     384:	ffffffff 			; <UNDEFINED> instruction: 0xffffffff
     388:	ffffffff 			; <UNDEFINED> instruction: 0xffffffff
     38c:	ffffffff 			; <UNDEFINED> instruction: 0xffffffff
     390:	ffffffff 			; <UNDEFINED> instruction: 0xffffffff
     394:	ffffffff 			; <UNDEFINED> instruction: 0xffffffff
     398:	ffffffff 			; <UNDEFINED> instruction: 0xffffffff
     39c:	ffffffff 			; <UNDEFINED> instruction: 0xffffffff
     3a0:	ffffffff 			; <UNDEFINED> instruction: 0xffffffff
     3a4:	ffffffff 			; <UNDEFINED> instruction: 0xffffffff
     3a8:	ffffffff 			; <UNDEFINED> instruction: 0xffffffff
     3ac:	ffffffff 			; <UNDEFINED> instruction: 0xffffffff
     3b0:	ffffffff 			; <UNDEFINED> instruction: 0xffffffff
     3b4:	ffffffff 			; <UNDEFINED> instruction: 0xffffffff
     3b8:	ffffffff 			; <UNDEFINED> instruction: 0xffffffff
     3bc:	ffffffff 			; <UNDEFINED> instruction: 0xffffffff
     3c0:	ffffffff 			; <UNDEFINED> instruction: 0xffffffff
     3c4:	ffffffff 			; <UNDEFINED> instruction: 0xffffffff
     3c8:	ffffffff 			; <UNDEFINED> instruction: 0xffffffff
     3cc:	ffffffff 			; <UNDEFINED> instruction: 0xffffffff
     3d0:	ffffffff 			; <UNDEFINED> instruction: 0xffffffff
     3d4:	ffffffff 			; <UNDEFINED> instruction: 0xffffffff
     3d8:	ffffffff 			; <UNDEFINED> instruction: 0xffffffff
     3dc:	ffffffff 			; <UNDEFINED> instruction: 0xffffffff
     3e0:	ffffffff 			; <UNDEFINED> instruction: 0xffffffff
     3e4:	ffffffff 			; <UNDEFINED> instruction: 0xffffffff
     3e8:	ffffffff 			; <UNDEFINED> instruction: 0xffffffff
     3ec:	ffffffff 			; <UNDEFINED> instruction: 0xffffffff
     3f0:	ffffffff 			; <UNDEFINED> instruction: 0xffffffff
     3f4:	ffffffff 			; <UNDEFINED> instruction: 0xffffffff
     3f8:	ffffffff 			; <UNDEFINED> instruction: 0xffffffff
     3fc:	ffffffff 			; <UNDEFINED> instruction: 0xffffffff

00000400 <g_rom_registers>:
     400:	ffffffff 			; <UNDEFINED> instruction: 0xffffffff
     404:	ffffcfdf 			; <UNDEFINED> instruction: 0xffffcfdf
     408:	000ffffc 	strdeq	pc, [pc], -ip
     40c:	000fffff 	strdeq	pc, [pc], -pc	; <UNPREDICTABLE>
     410:	000ffffc 	strdeq	pc, [pc], -ip
     414:	000fffff 	strdeq	pc, [pc], -pc	; <UNPREDICTABLE>
     418:	000ffffc 	strdeq	pc, [pc], -ip
     41c:	000fffff 	strdeq	pc, [pc], -pc	; <UNPREDICTABLE>
     420:	200ffffc 	strdcs	pc, [pc], -ip
     424:	200fffff 	strdcs	pc, [pc], -pc	; <UNPREDICTABLE>
     428:	407ffffc 	ldrshtmi	pc, [pc], #-252	; <UNPREDICTABLE>
     42c:	407fffff 	ldrshtmi	pc, [pc], #-255	; <UNPREDICTABLE>
     430:	400dfffc 	strdmi	pc, [sp], -ip
     434:	400dffff 	strdmi	pc, [sp], -pc	; <UNPREDICTABLE>
     438:	ffffffff 			; <UNDEFINED> instruction: 0xffffffff
     43c:	ffffffff 			; <UNDEFINED> instruction: 0xffffffff
     440:	ffffffff 			; <UNDEFINED> instruction: 0xffffffff
     444:	ffffffff 			; <UNDEFINED> instruction: 0xffffffff
     448:	ffffffff 			; <UNDEFINED> instruction: 0xffffffff
     44c:	ffffffff 			; <UNDEFINED> instruction: 0xffffffff
     450:	ffffffff 			; <UNDEFINED> instruction: 0xffffffff
     454:	ffffffff 			; <UNDEFINED> instruction: 0xffffffff
     458:	ffffffff 			; <UNDEFINED> instruction: 0xffffffff
     45c:	ffffffff 			; <UNDEFINED> instruction: 0xffffffff
     460:	ffffffff 			; <UNDEFINED> instruction: 0xffffffff
     464:	ffffffff 			; <UNDEFINED> instruction: 0xffffffff
     468:	ffffffff 			; <UNDEFINED> instruction: 0xffffffff
     46c:	ffffffff 			; <UNDEFINED> instruction: 0xffffffff
     470:	ffffffff 			; <UNDEFINED> instruction: 0xffffffff
     474:	ffffffff 			; <UNDEFINED> instruction: 0xffffffff
     478:	ffffffff 			; <UNDEFINED> instruction: 0xffffffff
     47c:	ffffffff 			; <UNDEFINED> instruction: 0xffffffff
     480:	ffffffff 			; <UNDEFINED> instruction: 0xffffffff
     484:	ffffffff 			; <UNDEFINED> instruction: 0xffffffff
     488:	ffffffff 			; <UNDEFINED> instruction: 0xffffffff
     48c:	ffffffff 			; <UNDEFINED> instruction: 0xffffffff
     490:	ffffffff 			; <UNDEFINED> instruction: 0xffffffff
     494:	ffffffff 			; <UNDEFINED> instruction: 0xffffffff
     498:	ffffffff 			; <UNDEFINED> instruction: 0xffffffff
     49c:	ffffffff 			; <UNDEFINED> instruction: 0xffffffff
     4a0:	ffffffff 			; <UNDEFINED> instruction: 0xffffffff
     4a4:	ffffffff 			; <UNDEFINED> instruction: 0xffffffff
     4a8:	ffffffff 			; <UNDEFINED> instruction: 0xffffffff
     4ac:	ffffffff 			; <UNDEFINED> instruction: 0xffffffff
     4b0:	ffffffff 			; <UNDEFINED> instruction: 0xffffffff
     4b4:	ffffffff 			; <UNDEFINED> instruction: 0xffffffff
     4b8:	ffffffff 			; <UNDEFINED> instruction: 0xffffffff
     4bc:	ffffffff 			; <UNDEFINED> instruction: 0xffffffff
     4c0:	ffffffff 			; <UNDEFINED> instruction: 0xffffffff
     4c4:	ffffffff 			; <UNDEFINED> instruction: 0xffffffff
     4c8:	ffffffff 			; <UNDEFINED> instruction: 0xffffffff
     4cc:	ffffffff 			; <UNDEFINED> instruction: 0xffffffff
     4d0:	ffffffff 			; <UNDEFINED> instruction: 0xffffffff
     4d4:	ffffffff 			; <UNDEFINED> instruction: 0xffffffff
     4d8:	ffffffff 			; <UNDEFINED> instruction: 0xffffffff
     4dc:	ffffffff 			; <UNDEFINED> instruction: 0xffffffff
     4e0:	ffffffff 			; <UNDEFINED> instruction: 0xffffffff
     4e4:	ffffffff 			; <UNDEFINED> instruction: 0xffffffff
     4e8:	ffffffff 			; <UNDEFINED> instruction: 0xffffffff
     4ec:	ffffffff 			; <UNDEFINED> instruction: 0xffffffff
     4f0:	ffffffff 			; <UNDEFINED> instruction: 0xffffffff
     4f4:	ffffffff 			; <UNDEFINED> instruction: 0xffffffff
     4f8:	ffffffff 			; <UNDEFINED> instruction: 0xffffffff
     4fc:	ffffffff 			; <UNDEFINED> instruction: 0xffffffff

00000500 <__do_global_dtors_aux>:
     500:	b510      	push	{r4, lr}
     502:	f244 4488 	movw	r4, #17544	; 0x4488
     506:	f2c2 0400 	movt	r4, #8192	; 0x2000
     50a:	7823      	ldrb	r3, [r4, #0]
     50c:	b963      	cbnz	r3, 528 <__do_global_dtors_aux+0x28>
     50e:	f240 0300 	movw	r3, #0
     512:	f2c0 0300 	movt	r3, #0
     516:	b12b      	cbz	r3, 524 <__do_global_dtors_aux+0x24>
     518:	f246 4008 	movw	r0, #25608	; 0x6408
     51c:	f2c0 0000 	movt	r0, #0
     520:	e000      	b.n	524 <__do_global_dtors_aux+0x24>
     522:	bf00      	nop
     524:	2301      	movs	r3, #1
     526:	7023      	strb	r3, [r4, #0]
     528:	bd10      	pop	{r4, pc}
     52a:	46c0      	nop			; (mov r8, r8)

0000052c <frame_dummy>:
     52c:	f240 0300 	movw	r3, #0
     530:	f2c0 0300 	movt	r3, #0
     534:	b510      	push	{r4, lr}
     536:	b14b      	cbz	r3, 54c <frame_dummy+0x20>
     538:	f244 418c 	movw	r1, #17548	; 0x448c
     53c:	f246 4008 	movw	r0, #25608	; 0x6408
     540:	f2c2 0100 	movt	r1, #8192	; 0x2000
     544:	f2c0 0000 	movt	r0, #0
     548:	e000      	b.n	54c <frame_dummy+0x20>
     54a:	bf00      	nop
     54c:	bd10      	pop	{r4, pc}
     54e:	46c0      	nop			; (mov r8, r8)

00000550 <_stack_init>:
     550:	2240      	movs	r2, #64	; 0x40
     552:	0292      	lsls	r2, r2, #10
     554:	1a9a      	subs	r2, r3, r2
     556:	4692      	mov	sl, r2
     558:	4770      	bx	lr
     55a:	46c0      	nop			; (mov r8, r8)

0000055c <_mainCRTStartup>:
     55c:	4b17      	ldr	r3, [pc, #92]	; (5bc <_mainCRTStartup+0x60>)
     55e:	2b00      	cmp	r3, #0
     560:	d100      	bne.n	564 <_mainCRTStartup+0x8>
     562:	4b13      	ldr	r3, [pc, #76]	; (5b0 <_mainCRTStartup+0x54>)
     564:	469d      	mov	sp, r3
     566:	f7ff fff3 	bl	550 <_stack_init>
     56a:	2100      	movs	r1, #0
     56c:	468b      	mov	fp, r1
     56e:	460f      	mov	r7, r1
     570:	4813      	ldr	r0, [pc, #76]	; (5c0 <_mainCRTStartup+0x64>)
     572:	4a14      	ldr	r2, [pc, #80]	; (5c4 <_mainCRTStartup+0x68>)
     574:	1a12      	subs	r2, r2, r0
     576:	f004 fb77 	bl	4c68 <memset>
     57a:	4b0e      	ldr	r3, [pc, #56]	; (5b4 <_mainCRTStartup+0x58>)
     57c:	2b00      	cmp	r3, #0
     57e:	d000      	beq.n	582 <_mainCRTStartup+0x26>
     580:	4798      	blx	r3
     582:	4b0d      	ldr	r3, [pc, #52]	; (5b8 <_mainCRTStartup+0x5c>)
     584:	2b00      	cmp	r3, #0
     586:	d000      	beq.n	58a <_mainCRTStartup+0x2e>
     588:	4798      	blx	r3
     58a:	2000      	movs	r0, #0
     58c:	2100      	movs	r1, #0
     58e:	0004      	movs	r4, r0
     590:	000d      	movs	r5, r1
     592:	480d      	ldr	r0, [pc, #52]	; (5c8 <_mainCRTStartup+0x6c>)
     594:	2800      	cmp	r0, #0
     596:	d002      	beq.n	59e <_mainCRTStartup+0x42>
     598:	480c      	ldr	r0, [pc, #48]	; (5cc <_mainCRTStartup+0x70>)
     59a:	f004 fc9f 	bl	4edc <atexit>
     59e:	f004 faed 	bl	4b7c <__libc_init_array>
     5a2:	0020      	movs	r0, r4
     5a4:	0029      	movs	r1, r5
     5a6:	f000 fe99 	bl	12dc <main>
     5aa:	f004 fad7 	bl	4b5c <exit>
     5ae:	46c0      	nop			; (mov r8, r8)
     5b0:	00080000 	andeq	r0, r8, r0
	...
     5bc:	200054e0 	andcs	r5, r0, r0, ror #9
     5c0:	20004488 	andcs	r4, r0, r8, lsl #9
     5c4:	20004ee0 	andcs	r4, r0, r0, ror #29
     5c8:	00004edd 	ldrdeq	r4, [r0], -sp
     5cc:	00004eed 	andeq	r4, r0, sp, ror #29

000005d0 <Write_Byte.constprop.0>:
     5d0:	2340      	movs	r3, #64	; 0x40
     5d2:	2140      	movs	r1, #64	; 0x40
     5d4:	b510      	push	{r4, lr}
     5d6:	f2c4 0304 	movt	r3, #16388	; 0x4004
     5da:	895a      	ldrh	r2, [r3, #10]
     5dc:	430a      	orrs	r2, r1
     5de:	815a      	strh	r2, [r3, #10]
     5e0:	891a      	ldrh	r2, [r3, #8]
     5e2:	393e      	subs	r1, #62	; 0x3e
     5e4:	430a      	orrs	r2, r1
     5e6:	811a      	strh	r2, [r3, #8]
     5e8:	2360      	movs	r3, #96	; 0x60
     5ea:	f2c4 0304 	movt	r3, #16388	; 0x4004
     5ee:	891a      	ldrh	r2, [r3, #8]
     5f0:	3901      	subs	r1, #1
     5f2:	430a      	orrs	r2, r1
     5f4:	811a      	strh	r2, [r3, #8]
     5f6:	b242      	sxtb	r2, r0
     5f8:	2a00      	cmp	r2, #0
     5fa:	da00      	bge.n	5fe <Write_Byte.constprop.0+0x2e>
     5fc:	e0a4      	b.n	748 <Write_Byte.constprop.0+0x178>
     5fe:	891a      	ldrh	r2, [r3, #8]
     600:	3103      	adds	r1, #3
     602:	430a      	orrs	r2, r1
     604:	811a      	strh	r2, [r3, #8]
     606:	46c0      	nop			; (mov r8, r8)
     608:	2360      	movs	r3, #96	; 0x60
     60a:	2401      	movs	r4, #1
     60c:	f2c4 0304 	movt	r3, #16388	; 0x4004
     610:	8959      	ldrh	r1, [r3, #10]
     612:	4321      	orrs	r1, r4
     614:	b289      	uxth	r1, r1
     616:	8159      	strh	r1, [r3, #10]
     618:	891a      	ldrh	r2, [r3, #8]
     61a:	4322      	orrs	r2, r4
     61c:	b292      	uxth	r2, r2
     61e:	811a      	strh	r2, [r3, #8]
     620:	0642      	lsls	r2, r0, #25
     622:	d500      	bpl.n	626 <Write_Byte.constprop.0+0x56>
     624:	e0b3      	b.n	78e <Write_Byte.constprop.0+0x1be>
     626:	2104      	movs	r1, #4
     628:	891a      	ldrh	r2, [r3, #8]
     62a:	430a      	orrs	r2, r1
     62c:	811a      	strh	r2, [r3, #8]
     62e:	46c0      	nop			; (mov r8, r8)
     630:	2360      	movs	r3, #96	; 0x60
     632:	2401      	movs	r4, #1
     634:	f2c4 0304 	movt	r3, #16388	; 0x4004
     638:	8959      	ldrh	r1, [r3, #10]
     63a:	4321      	orrs	r1, r4
     63c:	b289      	uxth	r1, r1
     63e:	8159      	strh	r1, [r3, #10]
     640:	891a      	ldrh	r2, [r3, #8]
     642:	4322      	orrs	r2, r4
     644:	b292      	uxth	r2, r2
     646:	811a      	strh	r2, [r3, #8]
     648:	0682      	lsls	r2, r0, #26
     64a:	d500      	bpl.n	64e <Write_Byte.constprop.0+0x7e>
     64c:	e09a      	b.n	784 <Write_Byte.constprop.0+0x1b4>
     64e:	2104      	movs	r1, #4
     650:	891a      	ldrh	r2, [r3, #8]
     652:	430a      	orrs	r2, r1
     654:	811a      	strh	r2, [r3, #8]
     656:	46c0      	nop			; (mov r8, r8)
     658:	2360      	movs	r3, #96	; 0x60
     65a:	2401      	movs	r4, #1
     65c:	f2c4 0304 	movt	r3, #16388	; 0x4004
     660:	8959      	ldrh	r1, [r3, #10]
     662:	4321      	orrs	r1, r4
     664:	b289      	uxth	r1, r1
     666:	8159      	strh	r1, [r3, #10]
     668:	891a      	ldrh	r2, [r3, #8]
     66a:	4322      	orrs	r2, r4
     66c:	b292      	uxth	r2, r2
     66e:	811a      	strh	r2, [r3, #8]
     670:	06c2      	lsls	r2, r0, #27
     672:	d500      	bpl.n	676 <Write_Byte.constprop.0+0xa6>
     674:	e081      	b.n	77a <Write_Byte.constprop.0+0x1aa>
     676:	2104      	movs	r1, #4
     678:	891a      	ldrh	r2, [r3, #8]
     67a:	430a      	orrs	r2, r1
     67c:	811a      	strh	r2, [r3, #8]
     67e:	46c0      	nop			; (mov r8, r8)
     680:	2360      	movs	r3, #96	; 0x60
     682:	2401      	movs	r4, #1
     684:	f2c4 0304 	movt	r3, #16388	; 0x4004
     688:	8959      	ldrh	r1, [r3, #10]
     68a:	4321      	orrs	r1, r4
     68c:	b289      	uxth	r1, r1
     68e:	8159      	strh	r1, [r3, #10]
     690:	891a      	ldrh	r2, [r3, #8]
     692:	4322      	orrs	r2, r4
     694:	b292      	uxth	r2, r2
     696:	811a      	strh	r2, [r3, #8]
     698:	0702      	lsls	r2, r0, #28
     69a:	d500      	bpl.n	69e <Write_Byte.constprop.0+0xce>
     69c:	e068      	b.n	770 <Write_Byte.constprop.0+0x1a0>
     69e:	2104      	movs	r1, #4
     6a0:	891a      	ldrh	r2, [r3, #8]
     6a2:	430a      	orrs	r2, r1
     6a4:	811a      	strh	r2, [r3, #8]
     6a6:	46c0      	nop			; (mov r8, r8)
     6a8:	2360      	movs	r3, #96	; 0x60
     6aa:	2401      	movs	r4, #1
     6ac:	f2c4 0304 	movt	r3, #16388	; 0x4004
     6b0:	8959      	ldrh	r1, [r3, #10]
     6b2:	4321      	orrs	r1, r4
     6b4:	b289      	uxth	r1, r1
     6b6:	8159      	strh	r1, [r3, #10]
     6b8:	891a      	ldrh	r2, [r3, #8]
     6ba:	4322      	orrs	r2, r4
     6bc:	b292      	uxth	r2, r2
     6be:	811a      	strh	r2, [r3, #8]
     6c0:	0742      	lsls	r2, r0, #29
     6c2:	d450      	bmi.n	766 <Write_Byte.constprop.0+0x196>
     6c4:	2104      	movs	r1, #4
     6c6:	891a      	ldrh	r2, [r3, #8]
     6c8:	430a      	orrs	r2, r1
     6ca:	811a      	strh	r2, [r3, #8]
     6cc:	46c0      	nop			; (mov r8, r8)
     6ce:	2360      	movs	r3, #96	; 0x60
     6d0:	2401      	movs	r4, #1
     6d2:	f2c4 0304 	movt	r3, #16388	; 0x4004
     6d6:	8959      	ldrh	r1, [r3, #10]
     6d8:	4321      	orrs	r1, r4
     6da:	b289      	uxth	r1, r1
     6dc:	8159      	strh	r1, [r3, #10]
     6de:	891a      	ldrh	r2, [r3, #8]
     6e0:	4322      	orrs	r2, r4
     6e2:	b292      	uxth	r2, r2
     6e4:	811a      	strh	r2, [r3, #8]
     6e6:	0782      	lsls	r2, r0, #30
     6e8:	d438      	bmi.n	75c <Write_Byte.constprop.0+0x18c>
     6ea:	2104      	movs	r1, #4
     6ec:	891a      	ldrh	r2, [r3, #8]
     6ee:	430a      	orrs	r2, r1
     6f0:	811a      	strh	r2, [r3, #8]
     6f2:	46c0      	nop			; (mov r8, r8)
     6f4:	2360      	movs	r3, #96	; 0x60
     6f6:	2401      	movs	r4, #1
     6f8:	f2c4 0304 	movt	r3, #16388	; 0x4004
     6fc:	8959      	ldrh	r1, [r3, #10]
     6fe:	4321      	orrs	r1, r4
     700:	b289      	uxth	r1, r1
     702:	8159      	strh	r1, [r3, #10]
     704:	891a      	ldrh	r2, [r3, #8]
     706:	4322      	orrs	r2, r4
     708:	b292      	uxth	r2, r2
     70a:	811a      	strh	r2, [r3, #8]
     70c:	07c2      	lsls	r2, r0, #31
     70e:	d420      	bmi.n	752 <Write_Byte.constprop.0+0x182>
     710:	2104      	movs	r1, #4
     712:	891a      	ldrh	r2, [r3, #8]
     714:	430a      	orrs	r2, r1
     716:	811a      	strh	r2, [r3, #8]
     718:	46c0      	nop			; (mov r8, r8)
     71a:	2360      	movs	r3, #96	; 0x60
     71c:	2101      	movs	r1, #1
     71e:	f2c4 0304 	movt	r3, #16388	; 0x4004
     722:	895a      	ldrh	r2, [r3, #10]
     724:	2002      	movs	r0, #2
     726:	430a      	orrs	r2, r1
     728:	815a      	strh	r2, [r3, #10]
     72a:	2240      	movs	r2, #64	; 0x40
     72c:	f2c4 0204 	movt	r2, #16388	; 0x4004
     730:	8951      	ldrh	r1, [r2, #10]
     732:	4301      	orrs	r1, r0
     734:	8151      	strh	r1, [r2, #10]
     736:	8951      	ldrh	r1, [r2, #10]
     738:	303e      	adds	r0, #62	; 0x3e
     73a:	4301      	orrs	r1, r0
     73c:	8151      	strh	r1, [r2, #10]
     73e:	2104      	movs	r1, #4
     740:	895a      	ldrh	r2, [r3, #10]
     742:	430a      	orrs	r2, r1
     744:	815a      	strh	r2, [r3, #10]
     746:	bd10      	pop	{r4, pc}
     748:	2104      	movs	r1, #4
     74a:	895a      	ldrh	r2, [r3, #10]
     74c:	430a      	orrs	r2, r1
     74e:	815a      	strh	r2, [r3, #10]
     750:	e759      	b.n	606 <Write_Byte.constprop.0+0x36>
     752:	2104      	movs	r1, #4
     754:	895a      	ldrh	r2, [r3, #10]
     756:	430a      	orrs	r2, r1
     758:	815a      	strh	r2, [r3, #10]
     75a:	e7dd      	b.n	718 <Write_Byte.constprop.0+0x148>
     75c:	2104      	movs	r1, #4
     75e:	895a      	ldrh	r2, [r3, #10]
     760:	430a      	orrs	r2, r1
     762:	815a      	strh	r2, [r3, #10]
     764:	e7c5      	b.n	6f2 <Write_Byte.constprop.0+0x122>
     766:	2104      	movs	r1, #4
     768:	895a      	ldrh	r2, [r3, #10]
     76a:	430a      	orrs	r2, r1
     76c:	815a      	strh	r2, [r3, #10]
     76e:	e7ad      	b.n	6cc <Write_Byte.constprop.0+0xfc>
     770:	2104      	movs	r1, #4
     772:	895a      	ldrh	r2, [r3, #10]
     774:	430a      	orrs	r2, r1
     776:	815a      	strh	r2, [r3, #10]
     778:	e795      	b.n	6a6 <Write_Byte.constprop.0+0xd6>
     77a:	2104      	movs	r1, #4
     77c:	895a      	ldrh	r2, [r3, #10]
     77e:	430a      	orrs	r2, r1
     780:	815a      	strh	r2, [r3, #10]
     782:	e77c      	b.n	67e <Write_Byte.constprop.0+0xae>
     784:	2104      	movs	r1, #4
     786:	895a      	ldrh	r2, [r3, #10]
     788:	430a      	orrs	r2, r1
     78a:	815a      	strh	r2, [r3, #10]
     78c:	e763      	b.n	656 <Write_Byte.constprop.0+0x86>
     78e:	2104      	movs	r1, #4
     790:	895a      	ldrh	r2, [r3, #10]
     792:	430a      	orrs	r2, r1
     794:	815a      	strh	r2, [r3, #10]
     796:	e74a      	b.n	62e <Write_Byte.constprop.0+0x5e>

00000798 <Write_Byte.constprop.1>:
     798:	2340      	movs	r3, #64	; 0x40
     79a:	2140      	movs	r1, #64	; 0x40
     79c:	b510      	push	{r4, lr}
     79e:	f2c4 0304 	movt	r3, #16388	; 0x4004
     7a2:	891a      	ldrh	r2, [r3, #8]
     7a4:	430a      	orrs	r2, r1
     7a6:	811a      	strh	r2, [r3, #8]
     7a8:	891a      	ldrh	r2, [r3, #8]
     7aa:	393e      	subs	r1, #62	; 0x3e
     7ac:	430a      	orrs	r2, r1
     7ae:	811a      	strh	r2, [r3, #8]
     7b0:	2360      	movs	r3, #96	; 0x60
     7b2:	f2c4 0304 	movt	r3, #16388	; 0x4004
     7b6:	891a      	ldrh	r2, [r3, #8]
     7b8:	3901      	subs	r1, #1
     7ba:	430a      	orrs	r2, r1
     7bc:	811a      	strh	r2, [r3, #8]
     7be:	b242      	sxtb	r2, r0
     7c0:	2a00      	cmp	r2, #0
     7c2:	da00      	bge.n	7c6 <Write_Byte.constprop.1+0x2e>
     7c4:	e0a4      	b.n	910 <Write_Byte.constprop.1+0x178>
     7c6:	891a      	ldrh	r2, [r3, #8]
     7c8:	3103      	adds	r1, #3
     7ca:	430a      	orrs	r2, r1
     7cc:	811a      	strh	r2, [r3, #8]
     7ce:	46c0      	nop			; (mov r8, r8)
     7d0:	2360      	movs	r3, #96	; 0x60
     7d2:	2401      	movs	r4, #1
     7d4:	f2c4 0304 	movt	r3, #16388	; 0x4004
     7d8:	8959      	ldrh	r1, [r3, #10]
     7da:	4321      	orrs	r1, r4
     7dc:	b289      	uxth	r1, r1
     7de:	8159      	strh	r1, [r3, #10]
     7e0:	891a      	ldrh	r2, [r3, #8]
     7e2:	4322      	orrs	r2, r4
     7e4:	b292      	uxth	r2, r2
     7e6:	811a      	strh	r2, [r3, #8]
     7e8:	0642      	lsls	r2, r0, #25
     7ea:	d500      	bpl.n	7ee <Write_Byte.constprop.1+0x56>
     7ec:	e0b3      	b.n	956 <Write_Byte.constprop.1+0x1be>
     7ee:	2104      	movs	r1, #4
     7f0:	891a      	ldrh	r2, [r3, #8]
     7f2:	430a      	orrs	r2, r1
     7f4:	811a      	strh	r2, [r3, #8]
     7f6:	46c0      	nop			; (mov r8, r8)
     7f8:	2360      	movs	r3, #96	; 0x60
     7fa:	2401      	movs	r4, #1
     7fc:	f2c4 0304 	movt	r3, #16388	; 0x4004
     800:	8959      	ldrh	r1, [r3, #10]
     802:	4321      	orrs	r1, r4
     804:	b289      	uxth	r1, r1
     806:	8159      	strh	r1, [r3, #10]
     808:	891a      	ldrh	r2, [r3, #8]
     80a:	4322      	orrs	r2, r4
     80c:	b292      	uxth	r2, r2
     80e:	811a      	strh	r2, [r3, #8]
     810:	0682      	lsls	r2, r0, #26
     812:	d500      	bpl.n	816 <Write_Byte.constprop.1+0x7e>
     814:	e09a      	b.n	94c <Write_Byte.constprop.1+0x1b4>
     816:	2104      	movs	r1, #4
     818:	891a      	ldrh	r2, [r3, #8]
     81a:	430a      	orrs	r2, r1
     81c:	811a      	strh	r2, [r3, #8]
     81e:	46c0      	nop			; (mov r8, r8)
     820:	2360      	movs	r3, #96	; 0x60
     822:	2401      	movs	r4, #1
     824:	f2c4 0304 	movt	r3, #16388	; 0x4004
     828:	8959      	ldrh	r1, [r3, #10]
     82a:	4321      	orrs	r1, r4
     82c:	b289      	uxth	r1, r1
     82e:	8159      	strh	r1, [r3, #10]
     830:	891a      	ldrh	r2, [r3, #8]
     832:	4322      	orrs	r2, r4
     834:	b292      	uxth	r2, r2
     836:	811a      	strh	r2, [r3, #8]
     838:	06c2      	lsls	r2, r0, #27
     83a:	d500      	bpl.n	83e <Write_Byte.constprop.1+0xa6>
     83c:	e081      	b.n	942 <Write_Byte.constprop.1+0x1aa>
     83e:	2104      	movs	r1, #4
     840:	891a      	ldrh	r2, [r3, #8]
     842:	430a      	orrs	r2, r1
     844:	811a      	strh	r2, [r3, #8]
     846:	46c0      	nop			; (mov r8, r8)
     848:	2360      	movs	r3, #96	; 0x60
     84a:	2401      	movs	r4, #1
     84c:	f2c4 0304 	movt	r3, #16388	; 0x4004
     850:	8959      	ldrh	r1, [r3, #10]
     852:	4321      	orrs	r1, r4
     854:	b289      	uxth	r1, r1
     856:	8159      	strh	r1, [r3, #10]
     858:	891a      	ldrh	r2, [r3, #8]
     85a:	4322      	orrs	r2, r4
     85c:	b292      	uxth	r2, r2
     85e:	811a      	strh	r2, [r3, #8]
     860:	0702      	lsls	r2, r0, #28
     862:	d500      	bpl.n	866 <Write_Byte.constprop.1+0xce>
     864:	e068      	b.n	938 <Write_Byte.constprop.1+0x1a0>
     866:	2104      	movs	r1, #4
     868:	891a      	ldrh	r2, [r3, #8]
     86a:	430a      	orrs	r2, r1
     86c:	811a      	strh	r2, [r3, #8]
     86e:	46c0      	nop			; (mov r8, r8)
     870:	2360      	movs	r3, #96	; 0x60
     872:	2401      	movs	r4, #1
     874:	f2c4 0304 	movt	r3, #16388	; 0x4004
     878:	8959      	ldrh	r1, [r3, #10]
     87a:	4321      	orrs	r1, r4
     87c:	b289      	uxth	r1, r1
     87e:	8159      	strh	r1, [r3, #10]
     880:	891a      	ldrh	r2, [r3, #8]
     882:	4322      	orrs	r2, r4
     884:	b292      	uxth	r2, r2
     886:	811a      	strh	r2, [r3, #8]
     888:	0742      	lsls	r2, r0, #29
     88a:	d450      	bmi.n	92e <Write_Byte.constprop.1+0x196>
     88c:	2104      	movs	r1, #4
     88e:	891a      	ldrh	r2, [r3, #8]
     890:	430a      	orrs	r2, r1
     892:	811a      	strh	r2, [r3, #8]
     894:	46c0      	nop			; (mov r8, r8)
     896:	2360      	movs	r3, #96	; 0x60
     898:	2401      	movs	r4, #1
     89a:	f2c4 0304 	movt	r3, #16388	; 0x4004
     89e:	8959      	ldrh	r1, [r3, #10]
     8a0:	4321      	orrs	r1, r4
     8a2:	b289      	uxth	r1, r1
     8a4:	8159      	strh	r1, [r3, #10]
     8a6:	891a      	ldrh	r2, [r3, #8]
     8a8:	4322      	orrs	r2, r4
     8aa:	b292      	uxth	r2, r2
     8ac:	811a      	strh	r2, [r3, #8]
     8ae:	0782      	lsls	r2, r0, #30
     8b0:	d438      	bmi.n	924 <Write_Byte.constprop.1+0x18c>
     8b2:	2104      	movs	r1, #4
     8b4:	891a      	ldrh	r2, [r3, #8]
     8b6:	430a      	orrs	r2, r1
     8b8:	811a      	strh	r2, [r3, #8]
     8ba:	46c0      	nop			; (mov r8, r8)
     8bc:	2360      	movs	r3, #96	; 0x60
     8be:	2401      	movs	r4, #1
     8c0:	f2c4 0304 	movt	r3, #16388	; 0x4004
     8c4:	8959      	ldrh	r1, [r3, #10]
     8c6:	4321      	orrs	r1, r4
     8c8:	b289      	uxth	r1, r1
     8ca:	8159      	strh	r1, [r3, #10]
     8cc:	891a      	ldrh	r2, [r3, #8]
     8ce:	4322      	orrs	r2, r4
     8d0:	b292      	uxth	r2, r2
     8d2:	811a      	strh	r2, [r3, #8]
     8d4:	07c2      	lsls	r2, r0, #31
     8d6:	d420      	bmi.n	91a <Write_Byte.constprop.1+0x182>
     8d8:	2104      	movs	r1, #4
     8da:	891a      	ldrh	r2, [r3, #8]
     8dc:	430a      	orrs	r2, r1
     8de:	811a      	strh	r2, [r3, #8]
     8e0:	46c0      	nop			; (mov r8, r8)
     8e2:	2360      	movs	r3, #96	; 0x60
     8e4:	2101      	movs	r1, #1
     8e6:	f2c4 0304 	movt	r3, #16388	; 0x4004
     8ea:	895a      	ldrh	r2, [r3, #10]
     8ec:	2002      	movs	r0, #2
     8ee:	430a      	orrs	r2, r1
     8f0:	815a      	strh	r2, [r3, #10]
     8f2:	2240      	movs	r2, #64	; 0x40
     8f4:	f2c4 0204 	movt	r2, #16388	; 0x4004
     8f8:	8951      	ldrh	r1, [r2, #10]
     8fa:	4301      	orrs	r1, r0
     8fc:	8151      	strh	r1, [r2, #10]
     8fe:	8951      	ldrh	r1, [r2, #10]
     900:	303e      	adds	r0, #62	; 0x3e
     902:	4301      	orrs	r1, r0
     904:	8151      	strh	r1, [r2, #10]
     906:	2104      	movs	r1, #4
     908:	895a      	ldrh	r2, [r3, #10]
     90a:	430a      	orrs	r2, r1
     90c:	815a      	strh	r2, [r3, #10]
     90e:	bd10      	pop	{r4, pc}
     910:	2104      	movs	r1, #4
     912:	895a      	ldrh	r2, [r3, #10]
     914:	430a      	orrs	r2, r1
     916:	815a      	strh	r2, [r3, #10]
     918:	e759      	b.n	7ce <Write_Byte.constprop.1+0x36>
     91a:	2104      	movs	r1, #4
     91c:	895a      	ldrh	r2, [r3, #10]
     91e:	430a      	orrs	r2, r1
     920:	815a      	strh	r2, [r3, #10]
     922:	e7dd      	b.n	8e0 <Write_Byte.constprop.1+0x148>
     924:	2104      	movs	r1, #4
     926:	895a      	ldrh	r2, [r3, #10]
     928:	430a      	orrs	r2, r1
     92a:	815a      	strh	r2, [r3, #10]
     92c:	e7c5      	b.n	8ba <Write_Byte.constprop.1+0x122>
     92e:	2104      	movs	r1, #4
     930:	895a      	ldrh	r2, [r3, #10]
     932:	430a      	orrs	r2, r1
     934:	815a      	strh	r2, [r3, #10]
     936:	e7ad      	b.n	894 <Write_Byte.constprop.1+0xfc>
     938:	2104      	movs	r1, #4
     93a:	895a      	ldrh	r2, [r3, #10]
     93c:	430a      	orrs	r2, r1
     93e:	815a      	strh	r2, [r3, #10]
     940:	e795      	b.n	86e <Write_Byte.constprop.1+0xd6>
     942:	2104      	movs	r1, #4
     944:	895a      	ldrh	r2, [r3, #10]
     946:	430a      	orrs	r2, r1
     948:	815a      	strh	r2, [r3, #10]
     94a:	e77c      	b.n	846 <Write_Byte.constprop.1+0xae>
     94c:	2104      	movs	r1, #4
     94e:	895a      	ldrh	r2, [r3, #10]
     950:	430a      	orrs	r2, r1
     952:	815a      	strh	r2, [r3, #10]
     954:	e763      	b.n	81e <Write_Byte.constprop.1+0x86>
     956:	2104      	movs	r1, #4
     958:	895a      	ldrh	r2, [r3, #10]
     95a:	430a      	orrs	r2, r1
     95c:	815a      	strh	r2, [r3, #10]
     95e:	e74a      	b.n	7f6 <Write_Byte.constprop.1+0x5e>

00000960 <Write_Byte>:
     960:	2340      	movs	r3, #64	; 0x40
     962:	b510      	push	{r4, lr}
     964:	f2c4 0304 	movt	r3, #16388	; 0x4004
     968:	2900      	cmp	r1, #0
     96a:	d100      	bne.n	96e <Write_Byte+0xe>
     96c:	e0ba      	b.n	ae4 <Write_Byte+0x184>
     96e:	2140      	movs	r1, #64	; 0x40
     970:	895a      	ldrh	r2, [r3, #10]
     972:	430a      	orrs	r2, r1
     974:	815a      	strh	r2, [r3, #10]
     976:	2340      	movs	r3, #64	; 0x40
     978:	2102      	movs	r1, #2
     97a:	f2c4 0304 	movt	r3, #16388	; 0x4004
     97e:	891a      	ldrh	r2, [r3, #8]
     980:	430a      	orrs	r2, r1
     982:	811a      	strh	r2, [r3, #8]
     984:	2360      	movs	r3, #96	; 0x60
     986:	f2c4 0304 	movt	r3, #16388	; 0x4004
     98a:	891a      	ldrh	r2, [r3, #8]
     98c:	3901      	subs	r1, #1
     98e:	430a      	orrs	r2, r1
     990:	811a      	strh	r2, [r3, #8]
     992:	b242      	sxtb	r2, r0
     994:	2a00      	cmp	r2, #0
     996:	da00      	bge.n	99a <Write_Byte+0x3a>
     998:	e0a9      	b.n	aee <Write_Byte+0x18e>
     99a:	891a      	ldrh	r2, [r3, #8]
     99c:	3103      	adds	r1, #3
     99e:	430a      	orrs	r2, r1
     9a0:	811a      	strh	r2, [r3, #8]
     9a2:	46c0      	nop			; (mov r8, r8)
     9a4:	2360      	movs	r3, #96	; 0x60
     9a6:	2401      	movs	r4, #1
     9a8:	f2c4 0304 	movt	r3, #16388	; 0x4004
     9ac:	8959      	ldrh	r1, [r3, #10]
     9ae:	4321      	orrs	r1, r4
     9b0:	b289      	uxth	r1, r1
     9b2:	8159      	strh	r1, [r3, #10]
     9b4:	891a      	ldrh	r2, [r3, #8]
     9b6:	4322      	orrs	r2, r4
     9b8:	b292      	uxth	r2, r2
     9ba:	811a      	strh	r2, [r3, #8]
     9bc:	0642      	lsls	r2, r0, #25
     9be:	d500      	bpl.n	9c2 <Write_Byte+0x62>
     9c0:	e0b8      	b.n	b34 <Write_Byte+0x1d4>
     9c2:	2104      	movs	r1, #4
     9c4:	891a      	ldrh	r2, [r3, #8]
     9c6:	430a      	orrs	r2, r1
     9c8:	811a      	strh	r2, [r3, #8]
     9ca:	46c0      	nop			; (mov r8, r8)
     9cc:	2360      	movs	r3, #96	; 0x60
     9ce:	2401      	movs	r4, #1
     9d0:	f2c4 0304 	movt	r3, #16388	; 0x4004
     9d4:	8959      	ldrh	r1, [r3, #10]
     9d6:	4321      	orrs	r1, r4
     9d8:	b289      	uxth	r1, r1
     9da:	8159      	strh	r1, [r3, #10]
     9dc:	891a      	ldrh	r2, [r3, #8]
     9de:	4322      	orrs	r2, r4
     9e0:	b292      	uxth	r2, r2
     9e2:	811a      	strh	r2, [r3, #8]
     9e4:	0682      	lsls	r2, r0, #26
     9e6:	d500      	bpl.n	9ea <Write_Byte+0x8a>
     9e8:	e09f      	b.n	b2a <Write_Byte+0x1ca>
     9ea:	2104      	movs	r1, #4
     9ec:	891a      	ldrh	r2, [r3, #8]
     9ee:	430a      	orrs	r2, r1
     9f0:	811a      	strh	r2, [r3, #8]
     9f2:	46c0      	nop			; (mov r8, r8)
     9f4:	2360      	movs	r3, #96	; 0x60
     9f6:	2401      	movs	r4, #1
     9f8:	f2c4 0304 	movt	r3, #16388	; 0x4004
     9fc:	8959      	ldrh	r1, [r3, #10]
     9fe:	4321      	orrs	r1, r4
     a00:	b289      	uxth	r1, r1
     a02:	8159      	strh	r1, [r3, #10]
     a04:	891a      	ldrh	r2, [r3, #8]
     a06:	4322      	orrs	r2, r4
     a08:	b292      	uxth	r2, r2
     a0a:	811a      	strh	r2, [r3, #8]
     a0c:	06c2      	lsls	r2, r0, #27
     a0e:	d500      	bpl.n	a12 <Write_Byte+0xb2>
     a10:	e086      	b.n	b20 <Write_Byte+0x1c0>
     a12:	2104      	movs	r1, #4
     a14:	891a      	ldrh	r2, [r3, #8]
     a16:	430a      	orrs	r2, r1
     a18:	811a      	strh	r2, [r3, #8]
     a1a:	46c0      	nop			; (mov r8, r8)
     a1c:	2360      	movs	r3, #96	; 0x60
     a1e:	2401      	movs	r4, #1
     a20:	f2c4 0304 	movt	r3, #16388	; 0x4004
     a24:	8959      	ldrh	r1, [r3, #10]
     a26:	4321      	orrs	r1, r4
     a28:	b289      	uxth	r1, r1
     a2a:	8159      	strh	r1, [r3, #10]
     a2c:	891a      	ldrh	r2, [r3, #8]
     a2e:	4322      	orrs	r2, r4
     a30:	b292      	uxth	r2, r2
     a32:	811a      	strh	r2, [r3, #8]
     a34:	0702      	lsls	r2, r0, #28
     a36:	d500      	bpl.n	a3a <Write_Byte+0xda>
     a38:	e06d      	b.n	b16 <Write_Byte+0x1b6>
     a3a:	2104      	movs	r1, #4
     a3c:	891a      	ldrh	r2, [r3, #8]
     a3e:	430a      	orrs	r2, r1
     a40:	811a      	strh	r2, [r3, #8]
     a42:	46c0      	nop			; (mov r8, r8)
     a44:	2360      	movs	r3, #96	; 0x60
     a46:	2401      	movs	r4, #1
     a48:	f2c4 0304 	movt	r3, #16388	; 0x4004
     a4c:	8959      	ldrh	r1, [r3, #10]
     a4e:	4321      	orrs	r1, r4
     a50:	b289      	uxth	r1, r1
     a52:	8159      	strh	r1, [r3, #10]
     a54:	891a      	ldrh	r2, [r3, #8]
     a56:	4322      	orrs	r2, r4
     a58:	b292      	uxth	r2, r2
     a5a:	811a      	strh	r2, [r3, #8]
     a5c:	0742      	lsls	r2, r0, #29
     a5e:	d455      	bmi.n	b0c <Write_Byte+0x1ac>
     a60:	2104      	movs	r1, #4
     a62:	891a      	ldrh	r2, [r3, #8]
     a64:	430a      	orrs	r2, r1
     a66:	811a      	strh	r2, [r3, #8]
     a68:	46c0      	nop			; (mov r8, r8)
     a6a:	2360      	movs	r3, #96	; 0x60
     a6c:	2401      	movs	r4, #1
     a6e:	f2c4 0304 	movt	r3, #16388	; 0x4004
     a72:	8959      	ldrh	r1, [r3, #10]
     a74:	4321      	orrs	r1, r4
     a76:	b289      	uxth	r1, r1
     a78:	8159      	strh	r1, [r3, #10]
     a7a:	891a      	ldrh	r2, [r3, #8]
     a7c:	4322      	orrs	r2, r4
     a7e:	b292      	uxth	r2, r2
     a80:	811a      	strh	r2, [r3, #8]
     a82:	0782      	lsls	r2, r0, #30
     a84:	d43d      	bmi.n	b02 <Write_Byte+0x1a2>
     a86:	2104      	movs	r1, #4
     a88:	891a      	ldrh	r2, [r3, #8]
     a8a:	430a      	orrs	r2, r1
     a8c:	811a      	strh	r2, [r3, #8]
     a8e:	46c0      	nop			; (mov r8, r8)
     a90:	2360      	movs	r3, #96	; 0x60
     a92:	2401      	movs	r4, #1
     a94:	f2c4 0304 	movt	r3, #16388	; 0x4004
     a98:	8959      	ldrh	r1, [r3, #10]
     a9a:	4321      	orrs	r1, r4
     a9c:	b289      	uxth	r1, r1
     a9e:	8159      	strh	r1, [r3, #10]
     aa0:	891a      	ldrh	r2, [r3, #8]
     aa2:	4322      	orrs	r2, r4
     aa4:	b292      	uxth	r2, r2
     aa6:	811a      	strh	r2, [r3, #8]
     aa8:	07c2      	lsls	r2, r0, #31
     aaa:	d425      	bmi.n	af8 <Write_Byte+0x198>
     aac:	2104      	movs	r1, #4
     aae:	891a      	ldrh	r2, [r3, #8]
     ab0:	430a      	orrs	r2, r1
     ab2:	811a      	strh	r2, [r3, #8]
     ab4:	46c0      	nop			; (mov r8, r8)
     ab6:	2360      	movs	r3, #96	; 0x60
     ab8:	2101      	movs	r1, #1
     aba:	f2c4 0304 	movt	r3, #16388	; 0x4004
     abe:	895a      	ldrh	r2, [r3, #10]
     ac0:	2002      	movs	r0, #2
     ac2:	430a      	orrs	r2, r1
     ac4:	815a      	strh	r2, [r3, #10]
     ac6:	2240      	movs	r2, #64	; 0x40
     ac8:	f2c4 0204 	movt	r2, #16388	; 0x4004
     acc:	8951      	ldrh	r1, [r2, #10]
     ace:	4301      	orrs	r1, r0
     ad0:	8151      	strh	r1, [r2, #10]
     ad2:	8951      	ldrh	r1, [r2, #10]
     ad4:	303e      	adds	r0, #62	; 0x3e
     ad6:	4301      	orrs	r1, r0
     ad8:	8151      	strh	r1, [r2, #10]
     ada:	2104      	movs	r1, #4
     adc:	895a      	ldrh	r2, [r3, #10]
     ade:	430a      	orrs	r2, r1
     ae0:	815a      	strh	r2, [r3, #10]
     ae2:	bd10      	pop	{r4, pc}
     ae4:	2140      	movs	r1, #64	; 0x40
     ae6:	891a      	ldrh	r2, [r3, #8]
     ae8:	430a      	orrs	r2, r1
     aea:	811a      	strh	r2, [r3, #8]
     aec:	e743      	b.n	976 <Write_Byte+0x16>
     aee:	2104      	movs	r1, #4
     af0:	895a      	ldrh	r2, [r3, #10]
     af2:	430a      	orrs	r2, r1
     af4:	815a      	strh	r2, [r3, #10]
     af6:	e754      	b.n	9a2 <Write_Byte+0x42>
     af8:	2104      	movs	r1, #4
     afa:	895a      	ldrh	r2, [r3, #10]
     afc:	430a      	orrs	r2, r1
     afe:	815a      	strh	r2, [r3, #10]
     b00:	e7d8      	b.n	ab4 <Write_Byte+0x154>
     b02:	2104      	movs	r1, #4
     b04:	895a      	ldrh	r2, [r3, #10]
     b06:	430a      	orrs	r2, r1
     b08:	815a      	strh	r2, [r3, #10]
     b0a:	e7c0      	b.n	a8e <Write_Byte+0x12e>
     b0c:	2104      	movs	r1, #4
     b0e:	895a      	ldrh	r2, [r3, #10]
     b10:	430a      	orrs	r2, r1
     b12:	815a      	strh	r2, [r3, #10]
     b14:	e7a8      	b.n	a68 <Write_Byte+0x108>
     b16:	2104      	movs	r1, #4
     b18:	895a      	ldrh	r2, [r3, #10]
     b1a:	430a      	orrs	r2, r1
     b1c:	815a      	strh	r2, [r3, #10]
     b1e:	e790      	b.n	a42 <Write_Byte+0xe2>
     b20:	2104      	movs	r1, #4
     b22:	895a      	ldrh	r2, [r3, #10]
     b24:	430a      	orrs	r2, r1
     b26:	815a      	strh	r2, [r3, #10]
     b28:	e777      	b.n	a1a <Write_Byte+0xba>
     b2a:	2104      	movs	r1, #4
     b2c:	895a      	ldrh	r2, [r3, #10]
     b2e:	430a      	orrs	r2, r1
     b30:	815a      	strh	r2, [r3, #10]
     b32:	e75e      	b.n	9f2 <Write_Byte+0x92>
     b34:	2104      	movs	r1, #4
     b36:	895a      	ldrh	r2, [r3, #10]
     b38:	430a      	orrs	r2, r1
     b3a:	815a      	strh	r2, [r3, #10]
     b3c:	e745      	b.n	9ca <Write_Byte+0x6a>
     b3e:	46c0      	nop			; (mov r8, r8)

00000b40 <OLED_Switch>:
     b40:	23ae      	movs	r3, #174	; 0xae
     b42:	b510      	push	{r4, lr}
     b44:	4318      	orrs	r0, r3
     b46:	f7ff fe27 	bl	798 <Write_Byte.constprop.1>
     b4a:	bd10      	pop	{r4, pc}

00000b4c <Set_ShowAddr>:
     b4c:	2307      	movs	r3, #7
     b4e:	1a1b      	subs	r3, r3, r0
     b50:	2050      	movs	r0, #80	; 0x50
     b52:	4240      	negs	r0, r0
     b54:	4318      	orrs	r0, r3
     b56:	b510      	push	{r4, lr}
     b58:	b2c0      	uxtb	r0, r0
     b5a:	000c      	movs	r4, r1
     b5c:	f7ff fe1c 	bl	798 <Write_Byte.constprop.1>
     b60:	210f      	movs	r1, #15
     b62:	1ca0      	adds	r0, r4, #2
     b64:	b2c4      	uxtb	r4, r0
     b66:	4008      	ands	r0, r1
     b68:	f7ff fe16 	bl	798 <Write_Byte.constprop.1>
     b6c:	0920      	lsrs	r0, r4, #4
     b6e:	2410      	movs	r4, #16
     b70:	4320      	orrs	r0, r4
     b72:	f7ff fe11 	bl	798 <Write_Byte.constprop.1>
     b76:	bd10      	pop	{r4, pc}

00000b78 <OLED_Init>:
     b78:	b510      	push	{r4, lr}
     b7a:	20ae      	movs	r0, #174	; 0xae
     b7c:	f7ff fe0c 	bl	798 <Write_Byte.constprop.1>
     b80:	20d5      	movs	r0, #213	; 0xd5
     b82:	f7ff fe09 	bl	798 <Write_Byte.constprop.1>
     b86:	2080      	movs	r0, #128	; 0x80
     b88:	f7ff fe06 	bl	798 <Write_Byte.constprop.1>
     b8c:	20a8      	movs	r0, #168	; 0xa8
     b8e:	f7ff fe03 	bl	798 <Write_Byte.constprop.1>
     b92:	203f      	movs	r0, #63	; 0x3f
     b94:	f7ff fe00 	bl	798 <Write_Byte.constprop.1>
     b98:	20d3      	movs	r0, #211	; 0xd3
     b9a:	f7ff fdfd 	bl	798 <Write_Byte.constprop.1>
     b9e:	2000      	movs	r0, #0
     ba0:	f7ff fdfa 	bl	798 <Write_Byte.constprop.1>
     ba4:	2040      	movs	r0, #64	; 0x40
     ba6:	f7ff fdf7 	bl	798 <Write_Byte.constprop.1>
     baa:	208d      	movs	r0, #141	; 0x8d
     bac:	f7ff fdf4 	bl	798 <Write_Byte.constprop.1>
     bb0:	2010      	movs	r0, #16
     bb2:	f7ff fdf1 	bl	798 <Write_Byte.constprop.1>
     bb6:	20a1      	movs	r0, #161	; 0xa1
     bb8:	f7ff fdee 	bl	798 <Write_Byte.constprop.1>
     bbc:	20c0      	movs	r0, #192	; 0xc0
     bbe:	f7ff fdeb 	bl	798 <Write_Byte.constprop.1>
     bc2:	2021      	movs	r0, #33	; 0x21
     bc4:	f7ff fde8 	bl	798 <Write_Byte.constprop.1>
     bc8:	2002      	movs	r0, #2
     bca:	f7ff fde5 	bl	798 <Write_Byte.constprop.1>
     bce:	20da      	movs	r0, #218	; 0xda
     bd0:	f7ff fde2 	bl	798 <Write_Byte.constprop.1>
     bd4:	2012      	movs	r0, #18
     bd6:	f7ff fddf 	bl	798 <Write_Byte.constprop.1>
     bda:	2081      	movs	r0, #129	; 0x81
     bdc:	f7ff fddc 	bl	798 <Write_Byte.constprop.1>
     be0:	209f      	movs	r0, #159	; 0x9f
     be2:	f7ff fdd9 	bl	798 <Write_Byte.constprop.1>
     be6:	20d9      	movs	r0, #217	; 0xd9
     be8:	f7ff fdd6 	bl	798 <Write_Byte.constprop.1>
     bec:	2022      	movs	r0, #34	; 0x22
     bee:	f7ff fdd3 	bl	798 <Write_Byte.constprop.1>
     bf2:	20db      	movs	r0, #219	; 0xdb
     bf4:	f7ff fdd0 	bl	798 <Write_Byte.constprop.1>
     bf8:	2040      	movs	r0, #64	; 0x40
     bfa:	f7ff fdcd 	bl	798 <Write_Byte.constprop.1>
     bfe:	20a4      	movs	r0, #164	; 0xa4
     c00:	f7ff fdca 	bl	798 <Write_Byte.constprop.1>
     c04:	20a6      	movs	r0, #166	; 0xa6
     c06:	f7ff fdc7 	bl	798 <Write_Byte.constprop.1>
     c0a:	bd10      	pop	{r4, pc}

00000c0c <Cls>:
     c0c:	b570      	push	{r4, r5, r6, lr}
     c0e:	2650      	movs	r6, #80	; 0x50
     c10:	2507      	movs	r5, #7
     c12:	4276      	negs	r6, r6
     c14:	0030      	movs	r0, r6
     c16:	4328      	orrs	r0, r5
     c18:	b2c0      	uxtb	r0, r0
     c1a:	f7ff fdbd 	bl	798 <Write_Byte.constprop.1>
     c1e:	2002      	movs	r0, #2
     c20:	f7ff fdba 	bl	798 <Write_Byte.constprop.1>
     c24:	2010      	movs	r0, #16
     c26:	f7ff fdb7 	bl	798 <Write_Byte.constprop.1>
     c2a:	2480      	movs	r4, #128	; 0x80
     c2c:	2000      	movs	r0, #0
     c2e:	3c01      	subs	r4, #1
     c30:	f7ff fcce 	bl	5d0 <Write_Byte.constprop.0>
     c34:	2c00      	cmp	r4, #0
     c36:	d1f9      	bne.n	c2c <Cls+0x20>
     c38:	3d01      	subs	r5, #1
     c3a:	d2eb      	bcs.n	c14 <Cls+0x8>
     c3c:	bd70      	pop	{r4, r5, r6, pc}
     c3e:	46c0      	nop			; (mov r8, r8)

00000c40 <ShowBrand>:
     c40:	b5f8      	push	{r3, r4, r5, r6, r7, lr}
     c42:	2350      	movs	r3, #80	; 0x50
     c44:	4647      	mov	r7, r8
     c46:	46ce      	mov	lr, r9
     c48:	f245 6538 	movw	r5, #22072	; 0x5638
     c4c:	425b      	negs	r3, r3
     c4e:	b580      	push	{r7, lr}
     c50:	2600      	movs	r6, #0
     c52:	2707      	movs	r7, #7
     c54:	4699      	mov	r9, r3
     c56:	f240 4800 	movw	r8, #1024	; 0x400
     c5a:	f2c0 0500 	movt	r5, #0
     c5e:	3580      	adds	r5, #128	; 0x80
     c60:	4648      	mov	r0, r9
     c62:	4338      	orrs	r0, r7
     c64:	b2c0      	uxtb	r0, r0
     c66:	f7ff fd97 	bl	798 <Write_Byte.constprop.1>
     c6a:	2002      	movs	r0, #2
     c6c:	f7ff fd94 	bl	798 <Write_Byte.constprop.1>
     c70:	002c      	movs	r4, r5
     c72:	2010      	movs	r0, #16
     c74:	f7ff fd90 	bl	798 <Write_Byte.constprop.1>
     c78:	3c80      	subs	r4, #128	; 0x80
     c7a:	7820      	ldrb	r0, [r4, #0]
     c7c:	3401      	adds	r4, #1
     c7e:	f7ff fca7 	bl	5d0 <Write_Byte.constprop.0>
     c82:	42a5      	cmp	r5, r4
     c84:	d1f9      	bne.n	c7a <ShowBrand+0x3a>
     c86:	3680      	adds	r6, #128	; 0x80
     c88:	3f01      	subs	r7, #1
     c8a:	3580      	adds	r5, #128	; 0x80
     c8c:	4546      	cmp	r6, r8
     c8e:	d1e7      	bne.n	c60 <ShowBrand+0x20>
     c90:	bcc0      	pop	{r6, r7}
     c92:	46b9      	mov	r9, r7
     c94:	46b0      	mov	r8, r6
     c96:	bdf8      	pop	{r3, r4, r5, r6, r7, pc}

00000c98 <ShowPower>:
     c98:	b5f8      	push	{r3, r4, r5, r6, r7, lr}
     c9a:	0004      	movs	r4, r0
     c9c:	2307      	movs	r3, #7
     c9e:	2050      	movs	r0, #80	; 0x50
     ca0:	1a9b      	subs	r3, r3, r2
     ca2:	4240      	negs	r0, r0
     ca4:	4318      	orrs	r0, r3
     ca6:	000d      	movs	r5, r1
     ca8:	b2c0      	uxtb	r0, r0
     caa:	0017      	movs	r7, r2
     cac:	f7ff fd74 	bl	798 <Write_Byte.constprop.1>
     cb0:	210f      	movs	r1, #15
     cb2:	3502      	adds	r5, #2
     cb4:	b2ee      	uxtb	r6, r5
     cb6:	400d      	ands	r5, r1
     cb8:	0028      	movs	r0, r5
     cba:	f7ff fd6d 	bl	798 <Write_Byte.constprop.1>
     cbe:	2310      	movs	r3, #16
     cc0:	0936      	lsrs	r6, r6, #4
     cc2:	431e      	orrs	r6, r3
     cc4:	0030      	movs	r0, r6
     cc6:	f7ff fd67 	bl	798 <Write_Byte.constprop.1>
     cca:	200f      	movs	r0, #15
     ccc:	f7ff fc80 	bl	5d0 <Write_Byte.constprop.0>
     cd0:	2c00      	cmp	r4, #0
     cd2:	d000      	beq.n	cd6 <ShowPower+0x3e>
     cd4:	e06e      	b.n	db4 <ShowPower+0x11c>
     cd6:	2008      	movs	r0, #8
     cd8:	f7ff fc7a 	bl	5d0 <Write_Byte.constprop.0>
     cdc:	2008      	movs	r0, #8
     cde:	f7ff fc77 	bl	5d0 <Write_Byte.constprop.0>
     ce2:	2008      	movs	r0, #8
     ce4:	f7ff fc74 	bl	5d0 <Write_Byte.constprop.0>
     ce8:	2008      	movs	r0, #8
     cea:	f7ff fc71 	bl	5d0 <Write_Byte.constprop.0>
     cee:	2008      	movs	r0, #8
     cf0:	f7ff fc6e 	bl	5d0 <Write_Byte.constprop.0>
     cf4:	2008      	movs	r0, #8
     cf6:	f7ff fc6b 	bl	5d0 <Write_Byte.constprop.0>
     cfa:	2008      	movs	r0, #8
     cfc:	f7ff fc68 	bl	5d0 <Write_Byte.constprop.0>
     d00:	2008      	movs	r0, #8
     d02:	f7ff fc65 	bl	5d0 <Write_Byte.constprop.0>
     d06:	2008      	movs	r0, #8
     d08:	f7ff fc62 	bl	5d0 <Write_Byte.constprop.0>
     d0c:	2008      	movs	r0, #8
     d0e:	f7ff fc5f 	bl	5d0 <Write_Byte.constprop.0>
     d12:	2008      	movs	r0, #8
     d14:	f7ff fc5c 	bl	5d0 <Write_Byte.constprop.0>
     d18:	2008      	movs	r0, #8
     d1a:	f7ff fc59 	bl	5d0 <Write_Byte.constprop.0>
     d1e:	200f      	movs	r0, #15
     d20:	f7ff fc56 	bl	5d0 <Write_Byte.constprop.0>
     d24:	2003      	movs	r0, #3
     d26:	f7ff fc53 	bl	5d0 <Write_Byte.constprop.0>
     d2a:	2003      	movs	r0, #3
     d2c:	f7ff fc50 	bl	5d0 <Write_Byte.constprop.0>
     d30:	2006      	movs	r0, #6
     d32:	1bc7      	subs	r7, r0, r7
     d34:	2050      	movs	r0, #80	; 0x50
     d36:	4240      	negs	r0, r0
     d38:	4338      	orrs	r0, r7
     d3a:	b2c0      	uxtb	r0, r0
     d3c:	f7ff fd2c 	bl	798 <Write_Byte.constprop.1>
     d40:	0028      	movs	r0, r5
     d42:	f7ff fd29 	bl	798 <Write_Byte.constprop.1>
     d46:	0030      	movs	r0, r6
     d48:	f7ff fd26 	bl	798 <Write_Byte.constprop.1>
     d4c:	20f0      	movs	r0, #240	; 0xf0
     d4e:	f7ff fc3f 	bl	5d0 <Write_Byte.constprop.0>
     d52:	2c00      	cmp	r4, #0
     d54:	d000      	beq.n	d58 <ShowPower+0xc0>
     d56:	e0ec      	b.n	f32 <ShowPower+0x29a>
     d58:	2010      	movs	r0, #16
     d5a:	f7ff fc39 	bl	5d0 <Write_Byte.constprop.0>
     d5e:	2010      	movs	r0, #16
     d60:	f7ff fc36 	bl	5d0 <Write_Byte.constprop.0>
     d64:	2010      	movs	r0, #16
     d66:	f7ff fc33 	bl	5d0 <Write_Byte.constprop.0>
     d6a:	2010      	movs	r0, #16
     d6c:	f7ff fc30 	bl	5d0 <Write_Byte.constprop.0>
     d70:	2010      	movs	r0, #16
     d72:	f7ff fc2d 	bl	5d0 <Write_Byte.constprop.0>
     d76:	2010      	movs	r0, #16
     d78:	f7ff fc2a 	bl	5d0 <Write_Byte.constprop.0>
     d7c:	2010      	movs	r0, #16
     d7e:	f7ff fc27 	bl	5d0 <Write_Byte.constprop.0>
     d82:	2010      	movs	r0, #16
     d84:	f7ff fc24 	bl	5d0 <Write_Byte.constprop.0>
     d88:	2010      	movs	r0, #16
     d8a:	f7ff fc21 	bl	5d0 <Write_Byte.constprop.0>
     d8e:	2010      	movs	r0, #16
     d90:	f7ff fc1e 	bl	5d0 <Write_Byte.constprop.0>
     d94:	2010      	movs	r0, #16
     d96:	f7ff fc1b 	bl	5d0 <Write_Byte.constprop.0>
     d9a:	2010      	movs	r0, #16
     d9c:	f7ff fc18 	bl	5d0 <Write_Byte.constprop.0>
     da0:	20f0      	movs	r0, #240	; 0xf0
     da2:	f7ff fc15 	bl	5d0 <Write_Byte.constprop.0>
     da6:	20c0      	movs	r0, #192	; 0xc0
     da8:	f7ff fc12 	bl	5d0 <Write_Byte.constprop.0>
     dac:	20c0      	movs	r0, #192	; 0xc0
     dae:	f7ff fc0f 	bl	5d0 <Write_Byte.constprop.0>
     db2:	bdf8      	pop	{r3, r4, r5, r6, r7, pc}
     db4:	200f      	movs	r0, #15
     db6:	f7ff fc0b 	bl	5d0 <Write_Byte.constprop.0>
     dba:	2c01      	cmp	r4, #1
     dbc:	d100      	bne.n	dc0 <ShowPower+0x128>
     dbe:	e78d      	b.n	cdc <ShowPower+0x44>
     dc0:	200f      	movs	r0, #15
     dc2:	f7ff fc05 	bl	5d0 <Write_Byte.constprop.0>
     dc6:	2c02      	cmp	r4, #2
     dc8:	d100      	bne.n	dcc <ShowPower+0x134>
     dca:	e78a      	b.n	ce2 <ShowPower+0x4a>
     dcc:	200f      	movs	r0, #15
     dce:	f7ff fbff 	bl	5d0 <Write_Byte.constprop.0>
     dd2:	2c03      	cmp	r4, #3
     dd4:	d100      	bne.n	dd8 <ShowPower+0x140>
     dd6:	e787      	b.n	ce8 <ShowPower+0x50>
     dd8:	200f      	movs	r0, #15
     dda:	f7ff fbf9 	bl	5d0 <Write_Byte.constprop.0>
     dde:	2c04      	cmp	r4, #4
     de0:	d100      	bne.n	de4 <ShowPower+0x14c>
     de2:	e784      	b.n	cee <ShowPower+0x56>
     de4:	200f      	movs	r0, #15
     de6:	f7ff fbf3 	bl	5d0 <Write_Byte.constprop.0>
     dea:	2c05      	cmp	r4, #5
     dec:	d100      	bne.n	df0 <ShowPower+0x158>
     dee:	e781      	b.n	cf4 <ShowPower+0x5c>
     df0:	200f      	movs	r0, #15
     df2:	f7ff fbed 	bl	5d0 <Write_Byte.constprop.0>
     df6:	2c06      	cmp	r4, #6
     df8:	d100      	bne.n	dfc <ShowPower+0x164>
     dfa:	e77e      	b.n	cfa <ShowPower+0x62>
     dfc:	200f      	movs	r0, #15
     dfe:	f7ff fbe7 	bl	5d0 <Write_Byte.constprop.0>
     e02:	2c07      	cmp	r4, #7
     e04:	d100      	bne.n	e08 <ShowPower+0x170>
     e06:	e77b      	b.n	d00 <ShowPower+0x68>
     e08:	200f      	movs	r0, #15
     e0a:	f7ff fbe1 	bl	5d0 <Write_Byte.constprop.0>
     e0e:	2c08      	cmp	r4, #8
     e10:	d100      	bne.n	e14 <ShowPower+0x17c>
     e12:	e778      	b.n	d06 <ShowPower+0x6e>
     e14:	200f      	movs	r0, #15
     e16:	f7ff fbdb 	bl	5d0 <Write_Byte.constprop.0>
     e1a:	2c09      	cmp	r4, #9
     e1c:	d067      	beq.n	eee <ShowPower+0x256>
     e1e:	200f      	movs	r0, #15
     e20:	f7ff fbd6 	bl	5d0 <Write_Byte.constprop.0>
     e24:	2c0a      	cmp	r4, #10
     e26:	d065      	beq.n	ef4 <ShowPower+0x25c>
     e28:	200f      	movs	r0, #15
     e2a:	f7ff fbd1 	bl	5d0 <Write_Byte.constprop.0>
     e2e:	2c0b      	cmp	r4, #11
     e30:	d100      	bne.n	e34 <ShowPower+0x19c>
     e32:	e08b      	b.n	f4c <ShowPower+0x2b4>
     e34:	200f      	movs	r0, #15
     e36:	f7ff fbcb 	bl	5d0 <Write_Byte.constprop.0>
     e3a:	200f      	movs	r0, #15
     e3c:	f7ff fbc8 	bl	5d0 <Write_Byte.constprop.0>
     e40:	2003      	movs	r0, #3
     e42:	f7ff fbc5 	bl	5d0 <Write_Byte.constprop.0>
     e46:	2003      	movs	r0, #3
     e48:	f7ff fbc2 	bl	5d0 <Write_Byte.constprop.0>
     e4c:	2006      	movs	r0, #6
     e4e:	1bc7      	subs	r7, r0, r7
     e50:	2050      	movs	r0, #80	; 0x50
     e52:	4240      	negs	r0, r0
     e54:	4338      	orrs	r0, r7
     e56:	b2c0      	uxtb	r0, r0
     e58:	f7ff fc9e 	bl	798 <Write_Byte.constprop.1>
     e5c:	0028      	movs	r0, r5
     e5e:	f7ff fc9b 	bl	798 <Write_Byte.constprop.1>
     e62:	0030      	movs	r0, r6
     e64:	f7ff fc98 	bl	798 <Write_Byte.constprop.1>
     e68:	20f0      	movs	r0, #240	; 0xf0
     e6a:	f7ff fbb1 	bl	5d0 <Write_Byte.constprop.0>
     e6e:	20f0      	movs	r0, #240	; 0xf0
     e70:	f7ff fbae 	bl	5d0 <Write_Byte.constprop.0>
     e74:	20f0      	movs	r0, #240	; 0xf0
     e76:	f7ff fbab 	bl	5d0 <Write_Byte.constprop.0>
     e7a:	20f0      	movs	r0, #240	; 0xf0
     e7c:	f7ff fba8 	bl	5d0 <Write_Byte.constprop.0>
     e80:	2c03      	cmp	r4, #3
     e82:	d800      	bhi.n	e86 <ShowPower+0x1ee>
     e84:	e771      	b.n	d6a <ShowPower+0xd2>
     e86:	20f0      	movs	r0, #240	; 0xf0
     e88:	f7ff fba2 	bl	5d0 <Write_Byte.constprop.0>
     e8c:	2c04      	cmp	r4, #4
     e8e:	d100      	bne.n	e92 <ShowPower+0x1fa>
     e90:	e76e      	b.n	d70 <ShowPower+0xd8>
     e92:	20f0      	movs	r0, #240	; 0xf0
     e94:	f7ff fb9c 	bl	5d0 <Write_Byte.constprop.0>
     e98:	2c05      	cmp	r4, #5
     e9a:	d100      	bne.n	e9e <ShowPower+0x206>
     e9c:	e76b      	b.n	d76 <ShowPower+0xde>
     e9e:	20f0      	movs	r0, #240	; 0xf0
     ea0:	f7ff fb96 	bl	5d0 <Write_Byte.constprop.0>
     ea4:	2c06      	cmp	r4, #6
     ea6:	d100      	bne.n	eaa <ShowPower+0x212>
     ea8:	e768      	b.n	d7c <ShowPower+0xe4>
     eaa:	20f0      	movs	r0, #240	; 0xf0
     eac:	f7ff fb90 	bl	5d0 <Write_Byte.constprop.0>
     eb0:	2c07      	cmp	r4, #7
     eb2:	d100      	bne.n	eb6 <ShowPower+0x21e>
     eb4:	e765      	b.n	d82 <ShowPower+0xea>
     eb6:	20f0      	movs	r0, #240	; 0xf0
     eb8:	f7ff fb8a 	bl	5d0 <Write_Byte.constprop.0>
     ebc:	2c08      	cmp	r4, #8
     ebe:	d100      	bne.n	ec2 <ShowPower+0x22a>
     ec0:	e762      	b.n	d88 <ShowPower+0xf0>
     ec2:	20f0      	movs	r0, #240	; 0xf0
     ec4:	f7ff fb84 	bl	5d0 <Write_Byte.constprop.0>
     ec8:	2c09      	cmp	r4, #9
     eca:	d100      	bne.n	ece <ShowPower+0x236>
     ecc:	e75f      	b.n	d8e <ShowPower+0xf6>
     ece:	20f0      	movs	r0, #240	; 0xf0
     ed0:	f7ff fb7e 	bl	5d0 <Write_Byte.constprop.0>
     ed4:	2c0a      	cmp	r4, #10
     ed6:	d100      	bne.n	eda <ShowPower+0x242>
     ed8:	e75c      	b.n	d94 <ShowPower+0xfc>
     eda:	20f0      	movs	r0, #240	; 0xf0
     edc:	f7ff fb78 	bl	5d0 <Write_Byte.constprop.0>
     ee0:	2c0b      	cmp	r4, #11
     ee2:	d100      	bne.n	ee6 <ShowPower+0x24e>
     ee4:	e759      	b.n	d9a <ShowPower+0x102>
     ee6:	20f0      	movs	r0, #240	; 0xf0
     ee8:	f7ff fb72 	bl	5d0 <Write_Byte.constprop.0>
     eec:	e758      	b.n	da0 <ShowPower+0x108>
     eee:	2008      	movs	r0, #8
     ef0:	f7ff fb6e 	bl	5d0 <Write_Byte.constprop.0>
     ef4:	2008      	movs	r0, #8
     ef6:	f7ff fb6b 	bl	5d0 <Write_Byte.constprop.0>
     efa:	2008      	movs	r0, #8
     efc:	f7ff fb68 	bl	5d0 <Write_Byte.constprop.0>
     f00:	200f      	movs	r0, #15
     f02:	f7ff fb65 	bl	5d0 <Write_Byte.constprop.0>
     f06:	2003      	movs	r0, #3
     f08:	f7ff fb62 	bl	5d0 <Write_Byte.constprop.0>
     f0c:	2003      	movs	r0, #3
     f0e:	f7ff fb5f 	bl	5d0 <Write_Byte.constprop.0>
     f12:	2006      	movs	r0, #6
     f14:	1bc7      	subs	r7, r0, r7
     f16:	3856      	subs	r0, #86	; 0x56
     f18:	4338      	orrs	r0, r7
     f1a:	b2c0      	uxtb	r0, r0
     f1c:	f7ff fc3c 	bl	798 <Write_Byte.constprop.1>
     f20:	0028      	movs	r0, r5
     f22:	f7ff fc39 	bl	798 <Write_Byte.constprop.1>
     f26:	0030      	movs	r0, r6
     f28:	f7ff fc36 	bl	798 <Write_Byte.constprop.1>
     f2c:	20f0      	movs	r0, #240	; 0xf0
     f2e:	f7ff fb4f 	bl	5d0 <Write_Byte.constprop.0>
     f32:	20f0      	movs	r0, #240	; 0xf0
     f34:	f7ff fb4c 	bl	5d0 <Write_Byte.constprop.0>
     f38:	2c01      	cmp	r4, #1
     f3a:	d800      	bhi.n	f3e <ShowPower+0x2a6>
     f3c:	e70f      	b.n	d5e <ShowPower+0xc6>
     f3e:	20f0      	movs	r0, #240	; 0xf0
     f40:	f7ff fb46 	bl	5d0 <Write_Byte.constprop.0>
     f44:	2c02      	cmp	r4, #2
     f46:	d800      	bhi.n	f4a <ShowPower+0x2b2>
     f48:	e70c      	b.n	d64 <ShowPower+0xcc>
     f4a:	e796      	b.n	e7a <ShowPower+0x1e2>
     f4c:	2008      	movs	r0, #8
     f4e:	f7ff fb3f 	bl	5d0 <Write_Byte.constprop.0>
     f52:	200f      	movs	r0, #15
     f54:	f7ff fb3c 	bl	5d0 <Write_Byte.constprop.0>
     f58:	2003      	movs	r0, #3
     f5a:	f7ff fb39 	bl	5d0 <Write_Byte.constprop.0>
     f5e:	2003      	movs	r0, #3
     f60:	f7ff fb36 	bl	5d0 <Write_Byte.constprop.0>
     f64:	2006      	movs	r0, #6
     f66:	1bc7      	subs	r7, r0, r7
     f68:	3856      	subs	r0, #86	; 0x56
     f6a:	4338      	orrs	r0, r7
     f6c:	b2c0      	uxtb	r0, r0
     f6e:	f7ff fc13 	bl	798 <Write_Byte.constprop.1>
     f72:	0028      	movs	r0, r5
     f74:	f7ff fc10 	bl	798 <Write_Byte.constprop.1>
     f78:	0030      	movs	r0, r6
     f7a:	f7ff fc0d 	bl	798 <Write_Byte.constprop.1>
     f7e:	20f0      	movs	r0, #240	; 0xf0
     f80:	f7ff fb26 	bl	5d0 <Write_Byte.constprop.0>
     f84:	20f0      	movs	r0, #240	; 0xf0
     f86:	f7ff fb23 	bl	5d0 <Write_Byte.constprop.0>
     f8a:	e7d8      	b.n	f3e <ShowPower+0x2a6>

00000f8c <Display>:
     f8c:	b5f0      	push	{r4, r5, r6, r7, lr}
     f8e:	4657      	mov	r7, sl
     f90:	464e      	mov	r6, r9
     f92:	4645      	mov	r5, r8
     f94:	46de      	mov	lr, fp
     f96:	b5e0      	push	{r5, r6, r7, lr}
     f98:	7803      	ldrb	r3, [r0, #0]
     f9a:	4681      	mov	r9, r0
     f9c:	4688      	mov	r8, r1
     f9e:	4692      	mov	sl, r2
     fa0:	b083      	sub	sp, #12
     fa2:	2b00      	cmp	r3, #0
     fa4:	d04f      	beq.n	1046 <Display+0xba>
     fa6:	f645 2b38 	movw	fp, #23096	; 0x5a38
     faa:	f2c0 0b00 	movt	fp, #0
     fae:	4652      	mov	r2, sl
     fb0:	2307      	movs	r3, #7
     fb2:	2050      	movs	r0, #80	; 0x50
     fb4:	1a9b      	subs	r3, r3, r2
     fb6:	4240      	negs	r0, r0
     fb8:	4318      	orrs	r0, r3
     fba:	b2c0      	uxtb	r0, r0
     fbc:	f7ff fbec 	bl	798 <Write_Byte.constprop.1>
     fc0:	4643      	mov	r3, r8
     fc2:	1c9e      	adds	r6, r3, #2
     fc4:	230f      	movs	r3, #15
     fc6:	b2f5      	uxtb	r5, r6
     fc8:	401e      	ands	r6, r3
     fca:	0030      	movs	r0, r6
     fcc:	f7ff fbe4 	bl	798 <Write_Byte.constprop.1>
     fd0:	2310      	movs	r3, #16
     fd2:	092d      	lsrs	r5, r5, #4
     fd4:	431d      	orrs	r5, r3
     fd6:	0028      	movs	r0, r5
     fd8:	f7ff fbde 	bl	798 <Write_Byte.constprop.1>
     fdc:	464b      	mov	r3, r9
     fde:	781f      	ldrb	r7, [r3, #0]
     fe0:	2f0a      	cmp	r7, #10
     fe2:	d037      	beq.n	1054 <Display+0xc8>
     fe4:	b27b      	sxtb	r3, r7
     fe6:	2b00      	cmp	r3, #0
     fe8:	db3f      	blt.n	106a <Display+0xde>
     fea:	f245 0338 	movw	r3, #20536	; 0x5038
     fee:	f2c0 0300 	movt	r3, #0
     ff2:	469c      	mov	ip, r3
     ff4:	2400      	movs	r4, #0
     ff6:	3f20      	subs	r7, #32
     ff8:	013f      	lsls	r7, r7, #4
     ffa:	4467      	add	r7, ip
     ffc:	5d38      	ldrb	r0, [r7, r4]
     ffe:	3401      	adds	r4, #1
    1000:	f7ff fae6 	bl	5d0 <Write_Byte.constprop.0>
    1004:	2c08      	cmp	r4, #8
    1006:	d1f9      	bne.n	ffc <Display+0x70>
    1008:	4652      	mov	r2, sl
    100a:	2306      	movs	r3, #6
    100c:	2050      	movs	r0, #80	; 0x50
    100e:	1a9b      	subs	r3, r3, r2
    1010:	4240      	negs	r0, r0
    1012:	4318      	orrs	r0, r3
    1014:	b2c0      	uxtb	r0, r0
    1016:	f7ff fbbf 	bl	798 <Write_Byte.constprop.1>
    101a:	0030      	movs	r0, r6
    101c:	f7ff fbbc 	bl	798 <Write_Byte.constprop.1>
    1020:	0028      	movs	r0, r5
    1022:	f7ff fbb9 	bl	798 <Write_Byte.constprop.1>
    1026:	5d38      	ldrb	r0, [r7, r4]
    1028:	3401      	adds	r4, #1
    102a:	f7ff fad1 	bl	5d0 <Write_Byte.constprop.0>
    102e:	2c10      	cmp	r4, #16
    1030:	d1f9      	bne.n	1026 <Display+0x9a>
    1032:	4641      	mov	r1, r8
    1034:	3108      	adds	r1, #8
    1036:	b2cb      	uxtb	r3, r1
    1038:	4698      	mov	r8, r3
    103a:	464b      	mov	r3, r9
    103c:	1c5a      	adds	r2, r3, #1
    103e:	785b      	ldrb	r3, [r3, #1]
    1040:	4691      	mov	r9, r2
    1042:	2b00      	cmp	r3, #0
    1044:	d1b3      	bne.n	fae <Display+0x22>
    1046:	b003      	add	sp, #12
    1048:	bcf0      	pop	{r4, r5, r6, r7}
    104a:	46bb      	mov	fp, r7
    104c:	46b2      	mov	sl, r6
    104e:	46a9      	mov	r9, r5
    1050:	46a0      	mov	r8, r4
    1052:	bdf0      	pop	{r4, r5, r6, r7, pc}
    1054:	4653      	mov	r3, sl
    1056:	2b05      	cmp	r3, #5
    1058:	d849      	bhi.n	10ee <Display+0x162>
    105a:	4652      	mov	r2, sl
    105c:	3202      	adds	r2, #2
    105e:	b2d3      	uxtb	r3, r2
    1060:	469a      	mov	sl, r3
    1062:	f240 0800 	movw	r8, #0
    1066:	464b      	mov	r3, r9
    1068:	e7e8      	b.n	103c <Display+0xb0>
    106a:	2fe6      	cmp	r7, #230	; 0xe6
    106c:	d045      	beq.n	10fa <Display+0x16e>
    106e:	2303      	movs	r3, #3
    1070:	2fe5      	cmp	r7, #229	; 0xe5
    1072:	d04f      	beq.n	1114 <Display+0x188>
    1074:	00da      	lsls	r2, r3, #3
    1076:	18d3      	adds	r3, r2, r3
    1078:	f645 2238 	movw	r2, #23096	; 0x5a38
    107c:	f2c0 0200 	movt	r2, #0
    1080:	4694      	mov	ip, r2
    1082:	009b      	lsls	r3, r3, #2
    1084:	1d1c      	adds	r4, r3, #4
    1086:	4464      	add	r4, ip
    1088:	469c      	mov	ip, r3
    108a:	4f2d      	ldr	r7, [pc, #180]	; (1140 <Display+0x1b4>)
    108c:	9301      	str	r3, [sp, #4]
    108e:	4467      	add	r7, ip
    1090:	7820      	ldrb	r0, [r4, #0]
    1092:	3401      	adds	r4, #1
    1094:	f7ff fa9c 	bl	5d0 <Write_Byte.constprop.0>
    1098:	42a7      	cmp	r7, r4
    109a:	d1f9      	bne.n	1090 <Display+0x104>
    109c:	4652      	mov	r2, sl
    109e:	2306      	movs	r3, #6
    10a0:	2050      	movs	r0, #80	; 0x50
    10a2:	1a9b      	subs	r3, r3, r2
    10a4:	4240      	negs	r0, r0
    10a6:	4318      	orrs	r0, r3
    10a8:	b2c0      	uxtb	r0, r0
    10aa:	f7ff fb75 	bl	798 <Write_Byte.constprop.1>
    10ae:	0030      	movs	r0, r6
    10b0:	f7ff fb72 	bl	798 <Write_Byte.constprop.1>
    10b4:	0028      	movs	r0, r5
    10b6:	f7ff fb6f 	bl	798 <Write_Byte.constprop.1>
    10ba:	f645 2238 	movw	r2, #23096	; 0x5a38
    10be:	9b01      	ldr	r3, [sp, #4]
    10c0:	f2c0 0200 	movt	r2, #0
    10c4:	001c      	movs	r4, r3
    10c6:	4694      	mov	ip, r2
    10c8:	465d      	mov	r5, fp
    10ca:	3414      	adds	r4, #20
    10cc:	4464      	add	r4, ip
    10ce:	469c      	mov	ip, r3
    10d0:	3524      	adds	r5, #36	; 0x24
    10d2:	4465      	add	r5, ip
    10d4:	7820      	ldrb	r0, [r4, #0]
    10d6:	3401      	adds	r4, #1
    10d8:	f7ff fa7a 	bl	5d0 <Write_Byte.constprop.0>
    10dc:	42a5      	cmp	r5, r4
    10de:	d1f9      	bne.n	10d4 <Display+0x148>
    10e0:	4641      	mov	r1, r8
    10e2:	3110      	adds	r1, #16
    10e4:	b2cb      	uxtb	r3, r1
    10e6:	4698      	mov	r8, r3
    10e8:	464b      	mov	r3, r9
    10ea:	3302      	adds	r3, #2
    10ec:	e7a6      	b.n	103c <Display+0xb0>
    10ee:	464b      	mov	r3, r9
    10f0:	f240 0a00 	movw	sl, #0
    10f4:	f240 0800 	movw	r8, #0
    10f8:	e7a0      	b.n	103c <Display+0xb0>
    10fa:	464b      	mov	r3, r9
    10fc:	785a      	ldrb	r2, [r3, #1]
    10fe:	2303      	movs	r3, #3
    1100:	2aad      	cmp	r2, #173	; 0xad
    1102:	d1b7      	bne.n	1074 <Display+0xe8>
    1104:	464a      	mov	r2, r9
    1106:	7892      	ldrb	r2, [r2, #2]
    1108:	3aa3      	subs	r2, #163	; 0xa3
    110a:	1e51      	subs	r1, r2, #1
    110c:	418a      	sbcs	r2, r1
    110e:	4252      	negs	r2, r2
    1110:	4013      	ands	r3, r2
    1112:	e7af      	b.n	1074 <Display+0xe8>
    1114:	464a      	mov	r2, r9
    1116:	7852      	ldrb	r2, [r2, #1]
    1118:	2a9c      	cmp	r2, #156	; 0x9c
    111a:	d008      	beq.n	112e <Display+0x1a2>
    111c:	2a91      	cmp	r2, #145	; 0x91
    111e:	d1a9      	bne.n	1074 <Display+0xe8>
    1120:	464b      	mov	r3, r9
    1122:	789b      	ldrb	r3, [r3, #2]
    1124:	3bb5      	subs	r3, #181	; 0xb5
    1126:	1e5a      	subs	r2, r3, #1
    1128:	4193      	sbcs	r3, r2
    112a:	3302      	adds	r3, #2
    112c:	e7a2      	b.n	1074 <Display+0xe8>
    112e:	464b      	mov	r3, r9
    1130:	789b      	ldrb	r3, [r3, #2]
    1132:	3ba8      	subs	r3, #168	; 0xa8
    1134:	1e5a      	subs	r2, r3, #1
    1136:	4193      	sbcs	r3, r2
    1138:	005b      	lsls	r3, r3, #1
    113a:	3301      	adds	r3, #1
    113c:	e79a      	b.n	1074 <Display+0xe8>
    113e:	46c0      	nop			; (mov r8, r8)
    1140:	00005a4c 	andeq	r5, r0, ip, asr #20

00001144 <task1>:
    1144:	b570      	push	{r4, r5, r6, lr}
    1146:	f244 44a4 	movw	r4, #17572	; 0x44a4
    114a:	2520      	movs	r5, #32
    114c:	f2c2 0400 	movt	r4, #8192	; 0x2000
    1150:	f2c4 0504 	movt	r5, #16388	; 0x4004
    1154:	e008      	b.n	1168 <task1+0x24>
    1156:	2208      	movs	r2, #8
    1158:	3301      	adds	r3, #1
    115a:	6223      	str	r3, [r4, #32]
    115c:	896b      	ldrh	r3, [r5, #10]
    115e:	4313      	orrs	r3, r2
    1160:	816b      	strh	r3, [r5, #10]
    1162:	2014      	movs	r0, #20
    1164:	f001 fe8a 	bl	2e7c <rt_thread_delay>
    1168:	2101      	movs	r1, #1
    116a:	f244 40a4 	movw	r0, #17572	; 0x44a4
    116e:	4249      	negs	r1, r1
    1170:	f2c2 0000 	movt	r0, #8192	; 0x2000
    1174:	f002 fa6c 	bl	3650 <rt_sem_take>
    1178:	2800      	cmp	r0, #0
    117a:	d1f2      	bne.n	1162 <task1+0x1e>
    117c:	6a23      	ldr	r3, [r4, #32]
    117e:	2b00      	cmp	r3, #0
    1180:	d0e9      	beq.n	1156 <task1+0x12>
    1182:	2208      	movs	r2, #8
    1184:	6220      	str	r0, [r4, #32]
    1186:	892b      	ldrh	r3, [r5, #8]
    1188:	4313      	orrs	r3, r2
    118a:	812b      	strh	r3, [r5, #8]
    118c:	e7e9      	b.n	1162 <task1+0x1e>
    118e:	46c0      	nop			; (mov r8, r8)

00001190 <led_sw>:
    1190:	b510      	push	{r4, lr}
    1192:	000c      	movs	r4, r1
    1194:	f645 21c8 	movw	r1, #23240	; 0x5ac8
    1198:	6860      	ldr	r0, [r4, #4]
    119a:	f2c0 0100 	movt	r1, #0
    119e:	f003 f81b 	bl	41d8 <rt_strcmp>
    11a2:	b998      	cbnz	r0, 11cc <led_sw+0x3c>
    11a4:	f244 43a4 	movw	r3, #17572	; 0x44a4
    11a8:	2201      	movs	r2, #1
    11aa:	f2c2 0300 	movt	r3, #8192	; 0x2000
    11ae:	621a      	str	r2, [r3, #32]
    11b0:	2320      	movs	r3, #32
    11b2:	2108      	movs	r1, #8
    11b4:	f645 20cc 	movw	r0, #23244	; 0x5acc
    11b8:	f2c4 0304 	movt	r3, #16388	; 0x4004
    11bc:	895a      	ldrh	r2, [r3, #10]
    11be:	f2c0 0000 	movt	r0, #0
    11c2:	430a      	orrs	r2, r1
    11c4:	815a      	strh	r2, [r3, #10]
    11c6:	f003 fa9d 	bl	4704 <rt_kprintf>
    11ca:	bd10      	pop	{r4, pc}
    11cc:	f645 21d8 	movw	r1, #23256	; 0x5ad8
    11d0:	6860      	ldr	r0, [r4, #4]
    11d2:	f2c0 0100 	movt	r1, #0
    11d6:	f002 ffff 	bl	41d8 <rt_strcmp>
    11da:	b990      	cbnz	r0, 1202 <led_sw+0x72>
    11dc:	f244 43a4 	movw	r3, #17572	; 0x44a4
    11e0:	f2c2 0300 	movt	r3, #8192	; 0x2000
    11e4:	6218      	str	r0, [r3, #32]
    11e6:	2320      	movs	r3, #32
    11e8:	2108      	movs	r1, #8
    11ea:	f645 20dc 	movw	r0, #23260	; 0x5adc
    11ee:	f2c4 0304 	movt	r3, #16388	; 0x4004
    11f2:	891a      	ldrh	r2, [r3, #8]
    11f4:	f2c0 0000 	movt	r0, #0
    11f8:	430a      	orrs	r2, r1
    11fa:	811a      	strh	r2, [r3, #8]
    11fc:	f003 fa82 	bl	4704 <rt_kprintf>
    1200:	e7e3      	b.n	11ca <led_sw+0x3a>
    1202:	f645 20e8 	movw	r0, #23272	; 0x5ae8
    1206:	f2c0 0000 	movt	r0, #0
    120a:	f003 fa7b 	bl	4704 <rt_kprintf>
    120e:	e7dc      	b.n	11ca <led_sw+0x3a>

00001210 <icu_irq7_isr>:
    1210:	f244 40a4 	movw	r0, #17572	; 0x44a4
    1214:	b510      	push	{r4, lr}
    1216:	f2c2 0000 	movt	r0, #8192	; 0x2000
    121a:	f002 fadf 	bl	37dc <rt_sem_release>
    121e:	f246 0300 	movw	r3, #24576	; 0x6000
    1222:	f240 311c 	movw	r1, #796	; 0x31c
    1226:	f2c4 0300 	movt	r3, #16384	; 0x4000
    122a:	585a      	ldr	r2, [r3, r1]
    122c:	4801      	ldr	r0, [pc, #4]	; (1234 <icu_irq7_isr+0x24>)
    122e:	4002      	ands	r2, r0
    1230:	505a      	str	r2, [r3, r1]
    1232:	bd10      	pop	{r4, pc}
    1234:	fffeffff 			; <UNDEFINED> instruction: 0xfffeffff

00001238 <sys_init>:
    1238:	2320      	movs	r3, #32
    123a:	2108      	movs	r1, #8
    123c:	b570      	push	{r4, r5, r6, lr}
    123e:	f2c4 0304 	movt	r3, #16388	; 0x4004
    1242:	885a      	ldrh	r2, [r3, #2]
    1244:	f24e 1400 	movw	r4, #57600	; 0xe100
    1248:	430a      	orrs	r2, r1
    124a:	2110      	movs	r1, #16
    124c:	2580      	movs	r5, #128	; 0x80
    124e:	805a      	strh	r2, [r3, #2]
    1250:	885a      	ldrh	r2, [r3, #2]
    1252:	f240 2001 	movw	r0, #513	; 0x201
    1256:	430a      	orrs	r2, r1
    1258:	805a      	strh	r2, [r3, #2]
    125a:	2100      	movs	r1, #0
    125c:	2205      	movs	r2, #5
    125e:	f000 f995 	bl	158c <bsp_port_init>
    1262:	2205      	movs	r2, #5
    1264:	2100      	movs	r1, #0
    1266:	f240 2006 	movw	r0, #518	; 0x206
    126a:	f000 f98f 	bl	158c <bsp_port_init>
    126e:	2205      	movs	r2, #5
    1270:	2100      	movs	r1, #0
    1272:	f240 3000 	movw	r0, #768	; 0x300
    1276:	f000 f989 	bl	158c <bsp_port_init>
    127a:	2205      	movs	r2, #5
    127c:	2100      	movs	r1, #0
    127e:	f240 3002 	movw	r0, #770	; 0x302
    1282:	f000 f983 	bl	158c <bsp_port_init>
    1286:	f2ce 0400 	movt	r4, #57344	; 0xe000
    128a:	f7ff fc75 	bl	b78 <OLED_Init>
    128e:	f7ff fcd7 	bl	c40 <ShowBrand>
    1292:	2001      	movs	r0, #1
    1294:	f7ff fc54 	bl	b40 <OLED_Switch>
    1298:	5165      	str	r5, [r4, r5]
    129a:	f3bf 8f4f 	dsb	sy
    129e:	f3bf 8f6f 	isb	sy
    12a2:	f246 0600 	movw	r6, #24576	; 0x6000
    12a6:	f240 321c 	movw	r2, #796	; 0x31c
    12aa:	f2c4 0600 	movt	r6, #16384	; 0x4000
    12ae:	58b3      	ldr	r3, [r6, r2]
    12b0:	4909      	ldr	r1, [pc, #36]	; (12d8 <sys_init+0xa0>)
    12b2:	200f      	movs	r0, #15
    12b4:	400b      	ands	r3, r1
    12b6:	50b3      	str	r3, [r6, r2]
    12b8:	3a18      	subs	r2, #24
    12ba:	58a3      	ldr	r3, [r4, r2]
    12bc:	2100      	movs	r1, #0
    12be:	021b      	lsls	r3, r3, #8
    12c0:	0a1b      	lsrs	r3, r3, #8
    12c2:	50a3      	str	r3, [r4, r2]
    12c4:	f244 0210 	movw	r2, #16400	; 0x4010
    12c8:	f000 f960 	bl	158c <bsp_port_init>
    12cc:	2390      	movs	r3, #144	; 0x90
    12ce:	71f3      	strb	r3, [r6, #7]
    12d0:	33f0      	adds	r3, #240	; 0xf0
    12d2:	50e5      	str	r5, [r4, r3]
    12d4:	6025      	str	r5, [r4, #0]
    12d6:	bd70      	pop	{r4, r5, r6, pc}
    12d8:	fffeffff 			; <UNDEFINED> instruction: 0xfffeffff

000012dc <main>:
    12dc:	b570      	push	{r4, r5, r6, lr}
    12de:	f244 44a4 	movw	r4, #17572	; 0x44a4
    12e2:	b084      	sub	sp, #16
    12e4:	f7ff ffa8 	bl	1238 <sys_init>
    12e8:	f645 21f8 	movw	r1, #23288	; 0x5af8
    12ec:	f2c2 0400 	movt	r4, #8192	; 0x2000
    12f0:	2300      	movs	r3, #0
    12f2:	2200      	movs	r2, #0
    12f4:	0020      	movs	r0, r4
    12f6:	f2c0 0100 	movt	r1, #0
    12fa:	f002 f97d 	bl	35f8 <rt_sem_init>
    12fe:	2314      	movs	r3, #20
    1300:	9303      	str	r3, [sp, #12]
    1302:	f244 63b8 	movw	r3, #18104	; 0x46b8
    1306:	f240 1500 	movw	r5, #256	; 0x100
    130a:	2602      	movs	r6, #2
    130c:	f241 1245 	movw	r2, #4421	; 0x1145
    1310:	f645 3100 	movw	r1, #23296	; 0x5b00
    1314:	3424      	adds	r4, #36	; 0x24
    1316:	f2c2 0300 	movt	r3, #8192	; 0x2000
    131a:	f2c0 0200 	movt	r2, #0
    131e:	f2c0 0100 	movt	r1, #0
    1322:	0020      	movs	r0, r4
    1324:	9501      	str	r5, [sp, #4]
    1326:	9300      	str	r3, [sp, #0]
    1328:	9602      	str	r6, [sp, #8]
    132a:	2300      	movs	r3, #0
    132c:	f001 fc82 	bl	2c34 <rt_thread_init>
    1330:	0020      	movs	r0, r4
    1332:	f001 fccb 	bl	2ccc <rt_thread_startup>
    1336:	f240 13f4 	movw	r3, #500	; 0x1f4
    133a:	f244 5424 	movw	r4, #17700	; 0x4524
    133e:	9303      	str	r3, [sp, #12]
    1340:	f244 53b8 	movw	r3, #17848	; 0x45b8
    1344:	f241 32ad 	movw	r2, #5037	; 0x13ad
    1348:	f645 3108 	movw	r1, #23304	; 0x5b08
    134c:	f2c2 0400 	movt	r4, #8192	; 0x2000
    1350:	341c      	adds	r4, #28
    1352:	f2c2 0300 	movt	r3, #8192	; 0x2000
    1356:	f2c0 0200 	movt	r2, #0
    135a:	f2c0 0100 	movt	r1, #0
    135e:	0020      	movs	r0, r4
    1360:	9501      	str	r5, [sp, #4]
    1362:	9300      	str	r3, [sp, #0]
    1364:	9602      	str	r6, [sp, #8]
    1366:	2300      	movs	r3, #0
    1368:	f001 fc64 	bl	2c34 <rt_thread_init>
    136c:	0020      	movs	r0, r4
    136e:	f001 fcad 	bl	2ccc <rt_thread_startup>
    1372:	f645 3010 	movw	r0, #23312	; 0x5b10
    1376:	2200      	movs	r2, #0
    1378:	2100      	movs	r1, #0
    137a:	2420      	movs	r4, #32
    137c:	f2c0 0000 	movt	r0, #0
    1380:	f7ff fe04 	bl	f8c <Display>
    1384:	2510      	movs	r5, #16
    1386:	f2c4 0404 	movt	r4, #16388	; 0x4004
    138a:	8963      	ldrh	r3, [r4, #10]
    138c:	f240 10f4 	movw	r0, #500	; 0x1f4
    1390:	432b      	orrs	r3, r5
    1392:	b29b      	uxth	r3, r3
    1394:	8163      	strh	r3, [r4, #10]
    1396:	f001 fd71 	bl	2e7c <rt_thread_delay>
    139a:	8923      	ldrh	r3, [r4, #8]
    139c:	f240 10f4 	movw	r0, #500	; 0x1f4
    13a0:	432b      	orrs	r3, r5
    13a2:	b29b      	uxth	r3, r3
    13a4:	8123      	strh	r3, [r4, #8]
    13a6:	f001 fd69 	bl	2e7c <rt_thread_delay>
    13aa:	e7ee      	b.n	138a <main+0xae>

000013ac <inpass_thread_entry>:
    13ac:	b510      	push	{r4, lr}
    13ae:	f240 30e8 	movw	r0, #1000	; 0x3e8
    13b2:	f001 fd63 	bl	2e7c <rt_thread_delay>
    13b6:	f7ff fc29 	bl	c0c <Cls>
    13ba:	f645 3044 	movw	r0, #23364	; 0x5b44
    13be:	2200      	movs	r2, #0
    13c0:	2100      	movs	r1, #0
    13c2:	f2c0 0000 	movt	r0, #0
    13c6:	f7ff fde1 	bl	f8c <Display>
    13ca:	f645 3054 	movw	r0, #23380	; 0x5b54
    13ce:	2202      	movs	r2, #2
    13d0:	2100      	movs	r1, #0
    13d2:	f2c0 0000 	movt	r0, #0
    13d6:	f7ff fdd9 	bl	f8c <Display>
    13da:	f240 10f4 	movw	r0, #500	; 0x1f4
    13de:	f001 fd4d 	bl	2e7c <rt_thread_delay>
    13e2:	f645 601c 	movw	r0, #24092	; 0x5e1c
    13e6:	2202      	movs	r2, #2
    13e8:	2100      	movs	r1, #0
    13ea:	f2c0 0000 	movt	r0, #0
    13ee:	f7ff fdcd 	bl	f8c <Display>
    13f2:	f240 10f4 	movw	r0, #500	; 0x1f4
    13f6:	f001 fd41 	bl	2e7c <rt_thread_delay>
    13fa:	e7e6      	b.n	13ca <inpass_thread_entry+0x1e>

000013fc <rt_hw_board_init>:
    13fc:	f24e 0210 	movw	r2, #57360	; 0xe010
    1400:	f64b 337f 	movw	r3, #47999	; 0xbb7f
    1404:	f64e 5100 	movw	r1, #60672	; 0xed00
    1408:	20c0      	movs	r0, #192	; 0xc0
    140a:	f2ce 0200 	movt	r2, #57344	; 0xe000
    140e:	b510      	push	{r4, lr}
    1410:	f2ce 0100 	movt	r1, #57344	; 0xe000
    1414:	6053      	str	r3, [r2, #4]
    1416:	6a0b      	ldr	r3, [r1, #32]
    1418:	0600      	lsls	r0, r0, #24
    141a:	021b      	lsls	r3, r3, #8
    141c:	0a1b      	lsrs	r3, r3, #8
    141e:	4303      	orrs	r3, r0
    1420:	620b      	str	r3, [r1, #32]
    1422:	2300      	movs	r3, #0
    1424:	6093      	str	r3, [r2, #8]
    1426:	3307      	adds	r3, #7
    1428:	6013      	str	r3, [r2, #0]
    142a:	f003 f9f7 	bl	481c <rt_components_board_init>
    142e:	bd10      	pop	{r4, pc}

00001430 <SysTick_Handler>:
    1430:	b510      	push	{r4, lr}
    1432:	f001 fb8b 	bl	2b4c <rt_interrupt_enter>
    1436:	f002 fa3b 	bl	38b0 <rt_tick_increase>
    143a:	f001 fb95 	bl	2b68 <rt_interrupt_leave>
    143e:	bd10      	pop	{r4, pc}

00001440 <uart_init>:
    1440:	b570      	push	{r4, r5, r6, lr}
    1442:	2580      	movs	r5, #128	; 0x80
    1444:	2480      	movs	r4, #128	; 0x80
    1446:	026d      	lsls	r5, r5, #9
    1448:	04e4      	lsls	r4, r4, #19
    144a:	b082      	sub	sp, #8
    144c:	002a      	movs	r2, r5
    144e:	0021      	movs	r1, r4
    1450:	f240 1000 	movw	r0, #256	; 0x100
    1454:	f000 f89a 	bl	158c <bsp_port_init>
    1458:	0021      	movs	r1, r4
    145a:	002a      	movs	r2, r5
    145c:	f240 1001 	movw	r0, #257	; 0x101
    1460:	f24e 1400 	movw	r4, #57600	; 0xe100
    1464:	f000 f892 	bl	158c <bsp_port_init>
    1468:	2601      	movs	r6, #1
    146a:	2380      	movs	r3, #128	; 0x80
    146c:	f2ce 0400 	movt	r4, #57344	; 0xe000
    1470:	50e6      	str	r6, [r4, r3]
    1472:	f3bf 8f4f 	dsb	sy
    1476:	f3bf 8f6f 	isb	sy
    147a:	2502      	movs	r5, #2
    147c:	50e5      	str	r5, [r4, r3]
    147e:	f3bf 8f4f 	dsb	sy
    1482:	f3bf 8f6f 	isb	sy
    1486:	f246 0300 	movw	r3, #24576	; 0x6000
    148a:	f240 3200 	movw	r2, #768	; 0x300
    148e:	f2c4 0300 	movt	r3, #16384	; 0x4000
    1492:	5899      	ldr	r1, [r3, r2]
    1494:	480c      	ldr	r0, [pc, #48]	; (14c8 <uart_init+0x88>)
    1496:	4001      	ands	r1, r0
    1498:	5099      	str	r1, [r3, r2]
    149a:	f240 3104 	movw	r1, #772	; 0x304
    149e:	585a      	ldr	r2, [r3, r1]
    14a0:	4002      	ands	r2, r0
    14a2:	505a      	str	r2, [r3, r1]
    14a4:	2000      	movs	r0, #0
    14a6:	2330      	movs	r3, #48	; 0x30
    14a8:	2200      	movs	r2, #0
    14aa:	9300      	str	r3, [sp, #0]
    14ac:	2110      	movs	r1, #16
    14ae:	2300      	movs	r3, #0
    14b0:	f2c4 0007 	movt	r0, #16391	; 0x4007
    14b4:	f000 f884 	bl	15c0 <bsp_sci_uart_init>
    14b8:	f240 1380 	movw	r3, #384	; 0x180
    14bc:	2000      	movs	r0, #0
    14be:	50e6      	str	r6, [r4, r3]
    14c0:	50e5      	str	r5, [r4, r3]
    14c2:	b002      	add	sp, #8
    14c4:	bd70      	pop	{r4, r5, r6, pc}
    14c6:	46c0      	nop			; (mov r8, r8)
    14c8:	fffeffff 			; <UNDEFINED> instruction: 0xfffeffff

000014cc <sci_uart_rxi_isr>:
    14cc:	f246 0300 	movw	r3, #24576	; 0x6000
    14d0:	f240 3100 	movw	r1, #768	; 0x300
    14d4:	f2c4 0300 	movt	r3, #16384	; 0x4000
    14d8:	585a      	ldr	r2, [r3, r1]
    14da:	4802      	ldr	r0, [pc, #8]	; (14e4 <sci_uart_rxi_isr+0x18>)
    14dc:	4002      	ands	r2, r0
    14de:	505a      	str	r2, [r3, r1]
    14e0:	4770      	bx	lr
    14e2:	46c0      	nop			; (mov r8, r8)
    14e4:	fffeffff 			; <UNDEFINED> instruction: 0xfffeffff

000014e8 <sci_uart_txi_isr>:
    14e8:	f246 0300 	movw	r3, #24576	; 0x6000
    14ec:	f240 3104 	movw	r1, #772	; 0x304
    14f0:	f2c4 0300 	movt	r3, #16384	; 0x4000
    14f4:	585a      	ldr	r2, [r3, r1]
    14f6:	4805      	ldr	r0, [pc, #20]	; (150c <sci_uart_txi_isr+0x24>)
    14f8:	4002      	ands	r2, r0
    14fa:	505a      	str	r2, [r3, r1]
    14fc:	f244 73b8 	movw	r3, #18360	; 0x47b8
    1500:	2200      	movs	r2, #0
    1502:	f2c2 0300 	movt	r3, #8192	; 0x2000
    1506:	601a      	str	r2, [r3, #0]
    1508:	4770      	bx	lr
    150a:	46c0      	nop			; (mov r8, r8)
    150c:	fffeffff 			; <UNDEFINED> instruction: 0xfffeffff

00001510 <rt_hw_console_output>:
    1510:	b510      	push	{r4, lr}
    1512:	0004      	movs	r4, r0
    1514:	f002 f842 	bl	359c <rt_enter_critical>
    1518:	7821      	ldrb	r1, [r4, #0]
    151a:	b171      	cbz	r1, 153a <rt_hw_console_output+0x2a>
    151c:	2200      	movs	r2, #0
    151e:	200d      	movs	r0, #13
    1520:	f2c4 0207 	movt	r2, #16391	; 0x4007
    1524:	290a      	cmp	r1, #10
    1526:	d00b      	beq.n	1540 <rt_hw_console_output+0x30>
    1528:	7913      	ldrb	r3, [r2, #4]
    152a:	b25b      	sxtb	r3, r3
    152c:	2b00      	cmp	r3, #0
    152e:	dafb      	bge.n	1528 <rt_hw_console_output+0x18>
    1530:	3401      	adds	r4, #1
    1532:	70d1      	strb	r1, [r2, #3]
    1534:	7821      	ldrb	r1, [r4, #0]
    1536:	2900      	cmp	r1, #0
    1538:	d1f4      	bne.n	1524 <rt_hw_console_output+0x14>
    153a:	f002 f83d 	bl	35b8 <rt_exit_critical>
    153e:	bd10      	pop	{r4, pc}
    1540:	7913      	ldrb	r3, [r2, #4]
    1542:	b25b      	sxtb	r3, r3
    1544:	2b00      	cmp	r3, #0
    1546:	dafb      	bge.n	1540 <rt_hw_console_output+0x30>
    1548:	70d0      	strb	r0, [r2, #3]
    154a:	7821      	ldrb	r1, [r4, #0]
    154c:	e7ec      	b.n	1528 <rt_hw_console_output+0x18>
    154e:	46c0      	nop			; (mov r8, r8)

00001550 <rt_hw_console_getchar>:
    1550:	2300      	movs	r3, #0
    1552:	b510      	push	{r4, lr}
    1554:	f2c4 0307 	movt	r3, #16391	; 0x4007
    1558:	791a      	ldrb	r2, [r3, #4]
    155a:	0652      	lsls	r2, r2, #25
    155c:	d502      	bpl.n	1564 <rt_hw_console_getchar+0x14>
    155e:	7958      	ldrb	r0, [r3, #5]
    1560:	b2c0      	uxtb	r0, r0
    1562:	bd10      	pop	{r4, pc}
    1564:	2220      	movs	r2, #32
    1566:	7919      	ldrb	r1, [r3, #4]
    1568:	420a      	tst	r2, r1
    156a:	d002      	beq.n	1572 <rt_hw_console_getchar+0x22>
    156c:	7919      	ldrb	r1, [r3, #4]
    156e:	4391      	bics	r1, r2
    1570:	7119      	strb	r1, [r3, #4]
    1572:	200a      	movs	r0, #10
    1574:	f001 fd1c 	bl	2fb0 <rt_thread_mdelay>
    1578:	20ff      	movs	r0, #255	; 0xff
    157a:	e7f2      	b.n	1562 <rt_hw_console_getchar+0x12>

0000157c <Default_Handler>:
    157c:	e7fe      	b.n	157c <Default_Handler>
    157e:	46c0      	nop			; (mov r8, r8)

00001580 <Reset_Handler>:
    1580:	b510      	push	{r4, lr}
    1582:	f000 f999 	bl	18b8 <SystemInit>
    1586:	f003 f975 	bl	4874 <entry>
    158a:	e7fe      	b.n	158a <Reset_Handler+0xa>

0000158c <bsp_port_init>:
    158c:	b570      	push	{r4, r5, r6, lr}
    158e:	f640 5400 	movw	r4, #3328	; 0xd00
    1592:	2600      	movs	r6, #0
    1594:	2340      	movs	r3, #64	; 0x40
    1596:	25ff      	movs	r5, #255	; 0xff
    1598:	4311      	orrs	r1, r2
    159a:	f640 0200 	movw	r2, #2048	; 0x800
    159e:	f2c4 0404 	movt	r4, #16388	; 0x4004
    15a2:	70e6      	strb	r6, [r4, #3]
    15a4:	70e3      	strb	r3, [r4, #3]
    15a6:	0a03      	lsrs	r3, r0, #8
    15a8:	011b      	lsls	r3, r3, #4
    15aa:	4028      	ands	r0, r5
    15ac:	181b      	adds	r3, r3, r0
    15ae:	f2c4 0204 	movt	r2, #16388	; 0x4004
    15b2:	009b      	lsls	r3, r3, #2
    15b4:	5099      	str	r1, [r3, r2]
    15b6:	2380      	movs	r3, #128	; 0x80
    15b8:	70e6      	strb	r6, [r4, #3]
    15ba:	70e3      	strb	r3, [r4, #3]
    15bc:	bd70      	pop	{r4, r5, r6, pc}
    15be:	46c0      	nop			; (mov r8, r8)

000015c0 <bsp_sci_uart_init>:
    15c0:	b570      	push	{r4, r5, r6, lr}
    15c2:	f247 0500 	movw	r5, #28672	; 0x7000
    15c6:	ac04      	add	r4, sp, #16
    15c8:	f2c4 0504 	movt	r5, #16388	; 0x4004
    15cc:	7826      	ldrb	r6, [r4, #0]
    15ce:	682c      	ldr	r4, [r5, #0]
    15d0:	431a      	orrs	r2, r3
    15d2:	0064      	lsls	r4, r4, #1
    15d4:	0864      	lsrs	r4, r4, #1
    15d6:	602c      	str	r4, [r5, #0]
    15d8:	2500      	movs	r5, #0
    15da:	2400      	movs	r4, #0
    15dc:	23e2      	movs	r3, #226	; 0xe2
    15de:	7085      	strb	r5, [r0, #2]
    15e0:	7105      	strb	r5, [r0, #4]
    15e2:	8285      	strh	r5, [r0, #20]
    15e4:	7244      	strb	r4, [r0, #9]
    15e6:	7284      	strb	r4, [r0, #10]
    15e8:	72c4      	strb	r4, [r0, #11]
    15ea:	8345      	strh	r5, [r0, #26]
    15ec:	7344      	strb	r4, [r0, #13]
    15ee:	2406      	movs	r4, #6
    15f0:	4319      	orrs	r1, r3
    15f2:	3bae      	subs	r3, #174	; 0xae
    15f4:	7704      	strb	r4, [r0, #28]
    15f6:	7002      	strb	r2, [r0, #0]
    15f8:	7181      	strb	r1, [r0, #6]
    15fa:	71c3      	strb	r3, [r0, #7]
    15fc:	3b28      	subs	r3, #40	; 0x28
    15fe:	7043      	strb	r3, [r0, #1]
    1600:	33f3      	adds	r3, #243	; 0xf3
    1602:	7483      	strb	r3, [r0, #18]
    1604:	7086      	strb	r6, [r0, #2]
    1606:	bd70      	pop	{r4, r5, r6, pc}

00001608 <bsp_sci_irq_enable>:
    1608:	7883      	ldrb	r3, [r0, #2]
    160a:	430b      	orrs	r3, r1
    160c:	7083      	strb	r3, [r0, #2]
    160e:	4770      	bx	lr

00001610 <bsp_sci_irq_disable>:
    1610:	7883      	ldrb	r3, [r0, #2]
    1612:	438b      	bics	r3, r1
    1614:	7083      	strb	r3, [r0, #2]
    1616:	4770      	bx	lr

00001618 <bsp_irq_cfg>:
    1618:	f645 3058 	movw	r0, #23384	; 0x5b58
    161c:	b510      	push	{r4, lr}
    161e:	f246 0400 	movw	r4, #24576	; 0x6000
    1622:	2300      	movs	r3, #0
    1624:	f2c0 0000 	movt	r0, #0
    1628:	f2c4 0400 	movt	r4, #16384	; 0x4000
    162c:	001a      	movs	r2, r3
    162e:	5cc1      	ldrb	r1, [r0, r3]
    1630:	32c0      	adds	r2, #192	; 0xc0
    1632:	0092      	lsls	r2, r2, #2
    1634:	3301      	adds	r3, #1
    1636:	5111      	str	r1, [r2, r4]
    1638:	2b20      	cmp	r3, #32
    163a:	d1f7      	bne.n	162c <bsp_irq_cfg+0x14>
    163c:	bd10      	pop	{r4, pc}
    163e:	46c0      	nop			; (mov r8, r8)

00001640 <bsp_prv_operating_mode_set>:
    1640:	f24e 0200 	movw	r2, #57344	; 0xe000
    1644:	21aa      	movs	r1, #170	; 0xaa
    1646:	b510      	push	{r4, lr}
    1648:	f2c4 0201 	movt	r2, #16385	; 0x4001
    164c:	2804      	cmp	r0, #4
    164e:	d02e      	beq.n	16ae <bsp_prv_operating_mode_set+0x6e>
    1650:	5c53      	ldrb	r3, [r2, r1]
    1652:	06db      	lsls	r3, r3, #27
    1654:	0fdc      	lsrs	r4, r3, #31
    1656:	2b00      	cmp	r3, #0
    1658:	dbfa      	blt.n	1650 <bsp_prv_operating_mode_set+0x10>
    165a:	5454      	strb	r4, [r2, r1]
    165c:	f24e 0200 	movw	r2, #57344	; 0xe000
    1660:	21aa      	movs	r1, #170	; 0xaa
    1662:	f2c4 0201 	movt	r2, #16385	; 0x4001
    1666:	5c53      	ldrb	r3, [r2, r1]
    1668:	2b00      	cmp	r3, #0
    166a:	d1fc      	bne.n	1666 <bsp_prv_operating_mode_set+0x26>
    166c:	33a0      	adds	r3, #160	; 0xa0
    166e:	5cd3      	ldrb	r3, [r2, r3]
    1670:	4298      	cmp	r0, r3
    1672:	d01b      	beq.n	16ac <bsp_prv_operating_mode_set+0x6c>
    1674:	2336      	movs	r3, #54	; 0x36
    1676:	5cd3      	ldrb	r3, [r2, r3]
    1678:	b93b      	cbnz	r3, 168a <bsp_prv_operating_mode_set+0x4a>
    167a:	f24e 0200 	movw	r2, #57344	; 0xe000
    167e:	213c      	movs	r1, #60	; 0x3c
    1680:	f2c4 0201 	movt	r2, #16385	; 0x4001
    1684:	5c53      	ldrb	r3, [r2, r1]
    1686:	07db      	lsls	r3, r3, #31
    1688:	d5fc      	bpl.n	1684 <bsp_prv_operating_mode_set+0x44>
    168a:	f24e 0200 	movw	r2, #57344	; 0xe000
    168e:	21a0      	movs	r1, #160	; 0xa0
    1690:	f2c4 0201 	movt	r2, #16385	; 0x4001
    1694:	5c53      	ldrb	r3, [r2, r1]
    1696:	06db      	lsls	r3, r3, #27
    1698:	d4fc      	bmi.n	1694 <bsp_prv_operating_mode_set+0x54>
    169a:	5450      	strb	r0, [r2, r1]
    169c:	f24e 0200 	movw	r2, #57344	; 0xe000
    16a0:	21a0      	movs	r1, #160	; 0xa0
    16a2:	f2c4 0201 	movt	r2, #16385	; 0x4001
    16a6:	5c53      	ldrb	r3, [r2, r1]
    16a8:	06db      	lsls	r3, r3, #27
    16aa:	d4fc      	bmi.n	16a6 <bsp_prv_operating_mode_set+0x66>
    16ac:	bd10      	pop	{r4, pc}
    16ae:	5c53      	ldrb	r3, [r2, r1]
    16b0:	06db      	lsls	r3, r3, #27
    16b2:	d4fc      	bmi.n	16ae <bsp_prv_operating_mode_set+0x6e>
    16b4:	2301      	movs	r3, #1
    16b6:	5453      	strb	r3, [r2, r1]
    16b8:	f24e 0200 	movw	r2, #57344	; 0xe000
    16bc:	21aa      	movs	r1, #170	; 0xaa
    16be:	f2c4 0201 	movt	r2, #16385	; 0x4001
    16c2:	5c53      	ldrb	r3, [r2, r1]
    16c4:	06db      	lsls	r3, r3, #27
    16c6:	d4fc      	bmi.n	16c2 <bsp_prv_operating_mode_set+0x82>
    16c8:	e7f0      	b.n	16ac <bsp_prv_operating_mode_set+0x6c>
    16ca:	46c0      	nop			; (mov r8, r8)

000016cc <SystemCoreClockUpdate>:
    16cc:	f24e 0300 	movw	r3, #57344	; 0xe000
    16d0:	2226      	movs	r2, #38	; 0x26
    16d2:	f244 4174 	movw	r1, #17524	; 0x4474
    16d6:	f2c4 0301 	movt	r3, #16385	; 0x4001
    16da:	5c98      	ldrb	r0, [r3, r2]
    16dc:	6a1b      	ldr	r3, [r3, #32]
    16de:	0080      	lsls	r0, r0, #2
    16e0:	f2c2 0100 	movt	r1, #8192	; 0x2000
    16e4:	5841      	ldr	r1, [r0, r1]
    16e6:	015b      	lsls	r3, r3, #5
    16e8:	0f5b      	lsrs	r3, r3, #29
    16ea:	f244 72bc 	movw	r2, #18364	; 0x47bc
    16ee:	40d9      	lsrs	r1, r3
    16f0:	f2c2 0200 	movt	r2, #8192	; 0x2000
    16f4:	6011      	str	r1, [r2, #0]
    16f6:	4770      	bx	lr

000016f8 <bsp_prv_clock_set>:
    16f8:	f244 4374 	movw	r3, #17524	; 0x4474
    16fc:	0082      	lsls	r2, r0, #2
    16fe:	f2c2 0300 	movt	r3, #8192	; 0x2000
    1702:	b570      	push	{r4, r5, r6, lr}
    1704:	58d5      	ldr	r5, [r2, r3]
    1706:	f644 0300 	movw	r3, #18432	; 0x4800
    170a:	014c      	lsls	r4, r1, #5
    170c:	0f64      	lsrs	r4, r4, #29
    170e:	f2c0 13e8 	movt	r3, #488	; 0x1e8
    1712:	40e5      	lsrs	r5, r4
    1714:	429d      	cmp	r5, r3
    1716:	d90b      	bls.n	1730 <bsp_prv_clock_set+0x38>
    1718:	f24e 0300 	movw	r3, #57344	; 0xe000
    171c:	2201      	movs	r2, #1
    171e:	2631      	movs	r6, #49	; 0x31
    1720:	f2c4 0301 	movt	r3, #16385	; 0x4001
    1724:	559a      	strb	r2, [r3, r6]
    1726:	f64f 73c4 	movw	r3, #65476	; 0xffc4
    172a:	f2c4 037e 	movt	r3, #16510	; 0x407e
    172e:	701a      	strb	r2, [r3, #0]
    1730:	23e0      	movs	r3, #224	; 0xe0
    1732:	f24e 0200 	movw	r2, #57344	; 0xe000
    1736:	04db      	lsls	r3, r3, #19
    1738:	f2c4 0201 	movt	r2, #16385	; 0x4001
    173c:	4019      	ands	r1, r3
    173e:	6a13      	ldr	r3, [r2, #32]
    1740:	015b      	lsls	r3, r3, #5
    1742:	0f5b      	lsrs	r3, r3, #29
    1744:	42a3      	cmp	r3, r4
    1746:	d21b      	bcs.n	1780 <bsp_prv_clock_set+0x88>
    1748:	2326      	movs	r3, #38	; 0x26
    174a:	b2c0      	uxtb	r0, r0
    174c:	6211      	str	r1, [r2, #32]
    174e:	54d0      	strb	r0, [r2, r3]
    1750:	f244 73bc 	movw	r3, #18364	; 0x47bc
    1754:	f2c2 0300 	movt	r3, #8192	; 0x2000
    1758:	601d      	str	r5, [r3, #0]
    175a:	f644 0300 	movw	r3, #18432	; 0x4800
    175e:	f2c0 13e8 	movt	r3, #488	; 0x1e8
    1762:	429d      	cmp	r5, r3
    1764:	d80b      	bhi.n	177e <bsp_prv_clock_set+0x86>
    1766:	f24e 0300 	movw	r3, #57344	; 0xe000
    176a:	2200      	movs	r2, #0
    176c:	2131      	movs	r1, #49	; 0x31
    176e:	f2c4 0301 	movt	r3, #16385	; 0x4001
    1772:	545a      	strb	r2, [r3, r1]
    1774:	f64f 73c4 	movw	r3, #65476	; 0xffc4
    1778:	f2c4 037e 	movt	r3, #16510	; 0x407e
    177c:	701a      	strb	r2, [r3, #0]
    177e:	bd70      	pop	{r4, r5, r6, pc}
    1780:	2326      	movs	r3, #38	; 0x26
    1782:	b2c0      	uxtb	r0, r0
    1784:	54d0      	strb	r0, [r2, r3]
    1786:	6211      	str	r1, [r2, #32]
    1788:	e7e2      	b.n	1750 <bsp_prv_clock_set+0x58>
    178a:	46c0      	nop			; (mov r8, r8)

0000178c <bsp_clock_init>:
    178c:	f24e 0300 	movw	r3, #57344	; 0xe000
    1790:	f240 32fe 	movw	r2, #1022	; 0x3fe
    1794:	4946      	ldr	r1, [pc, #280]	; (18b0 <bsp_clock_init+0x124>)
    1796:	f2c4 0301 	movt	r3, #16385	; 0x4001
    179a:	b530      	push	{r4, r5, lr}
    179c:	5299      	strh	r1, [r3, r2]
    179e:	f24c 0200 	movw	r2, #49152	; 0xc000
    17a2:	2100      	movs	r1, #0
    17a4:	f643 70c8 	movw	r0, #16328	; 0x3fc8
    17a8:	f2c4 027e 	movt	r2, #16510	; 0x407e
    17ac:	5411      	strb	r1, [r2, r0]
    17ae:	f244 4074 	movw	r0, #17524	; 0x4474
    17b2:	f646 4200 	movw	r2, #27648	; 0x6c00
    17b6:	f2c2 0000 	movt	r0, #8192	; 0x2000
    17ba:	f2c0 22dc 	movt	r2, #732	; 0x2dc
    17be:	6002      	str	r2, [r0, #0]
    17c0:	f241 2200 	movw	r2, #4608	; 0x1200
    17c4:	f2c0 027a 	movt	r2, #122	; 0x7a
    17c8:	6042      	str	r2, [r0, #4]
    17ca:	f248 0200 	movw	r2, #32768	; 0x8000
    17ce:	f242 4400 	movw	r4, #9216	; 0x2400
    17d2:	6082      	str	r2, [r0, #8]
    17d4:	6102      	str	r2, [r0, #16]
    17d6:	2226      	movs	r2, #38	; 0x26
    17d8:	f2c0 04f4 	movt	r4, #244	; 0xf4
    17dc:	60c4      	str	r4, [r0, #12]
    17de:	5c9d      	ldrb	r5, [r3, r2]
    17e0:	6a1a      	ldr	r2, [r3, #32]
    17e2:	00ad      	lsls	r5, r5, #2
    17e4:	5945      	ldr	r5, [r0, r5]
    17e6:	0152      	lsls	r2, r2, #5
    17e8:	0f52      	lsrs	r2, r2, #29
    17ea:	f244 74bc 	movw	r4, #18364	; 0x47bc
    17ee:	40d5      	lsrs	r5, r2
    17f0:	f240 4213 	movw	r2, #1043	; 0x413
    17f4:	f2c2 0400 	movt	r4, #8192	; 0x2000
    17f8:	6025      	str	r5, [r4, #0]
    17fa:	5499      	strb	r1, [r3, r2]
    17fc:	2509      	movs	r5, #9
    17fe:	22a2      	movs	r2, #162	; 0xa2
    1800:	549d      	strb	r5, [r3, r2]
    1802:	f240 4280 	movw	r2, #1152	; 0x480
    1806:	5c9d      	ldrb	r5, [r3, r2]
    1808:	b11d      	cbz	r5, 1812 <bsp_clock_init+0x86>
    180a:	f240 4581 	movw	r5, #1153	; 0x481
    180e:	5559      	strb	r1, [r3, r5]
    1810:	5499      	strb	r1, [r3, r2]
    1812:	f24e 0300 	movw	r3, #57344	; 0xe000
    1816:	22a0      	movs	r2, #160	; 0xa0
    1818:	f2c4 0301 	movt	r3, #16385	; 0x4001
    181c:	5c9a      	ldrb	r2, [r3, r2]
    181e:	b1ca      	cbz	r2, 1854 <bsp_clock_init+0xc8>
    1820:	2236      	movs	r2, #54	; 0x36
    1822:	5c9a      	ldrb	r2, [r3, r2]
    1824:	b91a      	cbnz	r2, 182e <bsp_clock_init+0xa2>
    1826:	213c      	movs	r1, #60	; 0x3c
    1828:	5c5a      	ldrb	r2, [r3, r1]
    182a:	07d2      	lsls	r2, r2, #31
    182c:	d5fc      	bpl.n	1828 <bsp_clock_init+0x9c>
    182e:	f24e 0200 	movw	r2, #57344	; 0xe000
    1832:	21a0      	movs	r1, #160	; 0xa0
    1834:	f2c4 0201 	movt	r2, #16385	; 0x4001
    1838:	5c53      	ldrb	r3, [r2, r1]
    183a:	06db      	lsls	r3, r3, #27
    183c:	0fdd      	lsrs	r5, r3, #31
    183e:	2b00      	cmp	r3, #0
    1840:	dbfa      	blt.n	1838 <bsp_clock_init+0xac>
    1842:	5455      	strb	r5, [r2, r1]
    1844:	f24e 0200 	movw	r2, #57344	; 0xe000
    1848:	21a0      	movs	r1, #160	; 0xa0
    184a:	f2c4 0201 	movt	r2, #16385	; 0x4001
    184e:	5c53      	ldrb	r3, [r2, r1]
    1850:	06db      	lsls	r3, r3, #27
    1852:	d4fc      	bmi.n	184e <bsp_clock_init+0xc2>
    1854:	f24e 0200 	movw	r2, #57344	; 0xe000
    1858:	2100      	movs	r1, #0
    185a:	2336      	movs	r3, #54	; 0x36
    185c:	f2c4 0201 	movt	r2, #16385	; 0x4001
    1860:	54d1      	strb	r1, [r2, r3]
    1862:	313c      	adds	r1, #60	; 0x3c
    1864:	5c53      	ldrb	r3, [r2, r1]
    1866:	07db      	lsls	r3, r3, #31
    1868:	d5fc      	bpl.n	1864 <bsp_clock_init+0xd8>
    186a:	2101      	movs	r1, #1
    186c:	2331      	movs	r3, #49	; 0x31
    186e:	54d1      	strb	r1, [r2, r3]
    1870:	f64f 73c4 	movw	r3, #65476	; 0xffc4
    1874:	f2c4 037e 	movt	r3, #16510	; 0x407e
    1878:	7019      	strb	r1, [r3, #0]
    187a:	2500      	movs	r5, #0
    187c:	2326      	movs	r3, #38	; 0x26
    187e:	54d5      	strb	r5, [r2, r3]
    1880:	3501      	adds	r5, #1
    1882:	35ff      	adds	r5, #255	; 0xff
    1884:	6215      	str	r5, [r2, #32]
    1886:	5cd5      	ldrb	r5, [r2, r3]
    1888:	6a13      	ldr	r3, [r2, #32]
    188a:	00ad      	lsls	r5, r5, #2
    188c:	5940      	ldr	r0, [r0, r5]
    188e:	015b      	lsls	r3, r3, #5
    1890:	0f5b      	lsrs	r3, r3, #29
    1892:	40d8      	lsrs	r0, r3
    1894:	f240 33fe 	movw	r3, #1022	; 0x3fe
    1898:	6020      	str	r0, [r4, #0]
    189a:	4806      	ldr	r0, [pc, #24]	; (18b4 <bsp_clock_init+0x128>)
    189c:	52d0      	strh	r0, [r2, r3]
    189e:	f24c 0300 	movw	r3, #49152	; 0xc000
    18a2:	f643 72c8 	movw	r2, #16328	; 0x3fc8
    18a6:	f2c4 037e 	movt	r3, #16510	; 0x407e
    18aa:	5499      	strb	r1, [r3, r2]
    18ac:	bd30      	pop	{r4, r5, pc}
    18ae:	46c0      	nop			; (mov r8, r8)
    18b0:	ffffa503 			; <UNDEFINED> instruction: 0xffffa503
    18b4:	ffffa500 			; <UNDEFINED> instruction: 0xffffa500

000018b8 <SystemInit>:
    18b8:	f240 0300 	movw	r3, #0
    18bc:	f64e 5200 	movw	r2, #60672	; 0xed00
    18c0:	b570      	push	{r4, r5, r6, lr}
    18c2:	f2ce 0200 	movt	r2, #57344	; 0xe000
    18c6:	f2c0 0300 	movt	r3, #0
    18ca:	b082      	sub	sp, #8
    18cc:	6093      	str	r3, [r2, #8]
    18ce:	f7ff ff5d 	bl	178c <bsp_clock_init>
    18d2:	466b      	mov	r3, sp
    18d4:	2600      	movs	r6, #0
    18d6:	1ddc      	adds	r4, r3, #7
    18d8:	7026      	strb	r6, [r4, #0]
    18da:	2001      	movs	r0, #1
    18dc:	7823      	ldrb	r3, [r4, #0]
    18de:	f000 f8ab 	bl	1a38 <R_BSP_RegisterProtectDisable>
    18e2:	f3ef 8110 	mrs	r1, PRIMASK
    18e6:	2501      	movs	r5, #1
    18e8:	f385 8810 	msr	PRIMASK, r5
    18ec:	f247 0300 	movw	r3, #28672	; 0x7000
    18f0:	f2c4 0304 	movt	r3, #16388	; 0x4004
    18f4:	685a      	ldr	r2, [r3, #4]
    18f6:	4839      	ldr	r0, [pc, #228]	; (19dc <SystemInit+0x124>)
    18f8:	4002      	ands	r2, r0
    18fa:	605a      	str	r2, [r3, #4]
    18fc:	685a      	ldr	r2, [r3, #4]
    18fe:	f381 8810 	msr	PRIMASK, r1
    1902:	f640 0100 	movw	r1, #2048	; 0x800
    1906:	f2c4 0104 	movt	r1, #16388	; 0x4004
    190a:	680a      	ldr	r2, [r1, #0]
    190c:	07d2      	lsls	r2, r2, #31
    190e:	0fd2      	lsrs	r2, r2, #31
    1910:	7022      	strb	r2, [r4, #0]
    1912:	680a      	ldr	r2, [r1, #0]
    1914:	07d2      	lsls	r2, r2, #31
    1916:	0fd2      	lsrs	r2, r2, #31
    1918:	7022      	strb	r2, [r4, #0]
    191a:	680a      	ldr	r2, [r1, #0]
    191c:	07d2      	lsls	r2, r2, #31
    191e:	0fd2      	lsrs	r2, r2, #31
    1920:	7022      	strb	r2, [r4, #0]
    1922:	f3ef 8110 	mrs	r1, PRIMASK
    1926:	f385 8810 	msr	PRIMASK, r5
    192a:	2280      	movs	r2, #128	; 0x80
    192c:	6858      	ldr	r0, [r3, #4]
    192e:	0552      	lsls	r2, r2, #21
    1930:	4302      	orrs	r2, r0
    1932:	605a      	str	r2, [r3, #4]
    1934:	685b      	ldr	r3, [r3, #4]
    1936:	f381 8810 	msr	PRIMASK, r1
    193a:	2001      	movs	r0, #1
    193c:	f000 f852 	bl	19e4 <R_BSP_RegisterProtectEnable>
    1940:	f640 5300 	movw	r3, #3328	; 0xd00
    1944:	4a26      	ldr	r2, [pc, #152]	; (19e0 <SystemInit+0x128>)
    1946:	f2c4 0300 	movt	r3, #16384	; 0x4000
    194a:	809e      	strh	r6, [r3, #4]
    194c:	801a      	strh	r2, [r3, #0]
    194e:	f245 02e0 	movw	r2, #20704	; 0x50e0
    1952:	f2c2 0200 	movt	r2, #8192	; 0x2000
    1956:	609a      	str	r2, [r3, #8]
    1958:	f245 42e0 	movw	r2, #21728	; 0x54e0
    195c:	f2c2 0200 	movt	r2, #8192	; 0x2000
    1960:	60da      	str	r2, [r3, #12]
    1962:	f246 0200 	movw	r2, #24576	; 0x6000
    1966:	f240 1120 	movw	r1, #288	; 0x120
    196a:	f241 0000 	movw	r0, #4096	; 0x1000
    196e:	f2c4 0200 	movt	r2, #16384	; 0x4000
    1972:	5250      	strh	r0, [r2, r1]
    1974:	f644 62e0 	movw	r2, #20192	; 0x4ee0
    1978:	f244 4088 	movw	r0, #17544	; 0x4488
    197c:	f2c2 0200 	movt	r2, #8192	; 0x2000
    1980:	f2c2 0000 	movt	r0, #8192	; 0x2000
    1984:	809d      	strh	r5, [r3, #4]
    1986:	2100      	movs	r1, #0
    1988:	1a12      	subs	r2, r2, r0
    198a:	f003 f96d 	bl	4c68 <memset>
    198e:	f244 0000 	movw	r0, #16384	; 0x4000
    1992:	f244 4274 	movw	r2, #17524	; 0x4474
    1996:	f246 4114 	movw	r1, #25620	; 0x6414
    199a:	f2c2 0000 	movt	r0, #8192	; 0x2000
    199e:	f2c2 0200 	movt	r2, #8192	; 0x2000
    19a2:	1a12      	subs	r2, r2, r0
    19a4:	f2c0 0100 	movt	r1, #0
    19a8:	f003 f90e 	bl	4bc8 <memcpy>
    19ac:	f244 4568 	movw	r5, #17512	; 0x4468
    19b0:	f244 4370 	movw	r3, #17520	; 0x4470
    19b4:	f2c2 0500 	movt	r5, #8192	; 0x2000
    19b8:	f2c2 0300 	movt	r3, #8192	; 0x2000
    19bc:	1b5b      	subs	r3, r3, r5
    19be:	109e      	asrs	r6, r3, #2
    19c0:	2b00      	cmp	r3, #0
    19c2:	dd05      	ble.n	19d0 <SystemInit+0x118>
    19c4:	2400      	movs	r4, #0
    19c6:	cd08      	ldmia	r5!, {r3}
    19c8:	3401      	adds	r4, #1
    19ca:	4798      	blx	r3
    19cc:	42a6      	cmp	r6, r4
    19ce:	dcfa      	bgt.n	19c6 <SystemInit+0x10e>
    19d0:	f7ff fe7c 	bl	16cc <SystemCoreClockUpdate>
    19d4:	f7ff fe20 	bl	1618 <bsp_irq_cfg>
    19d8:	b002      	add	sp, #8
    19da:	bd70      	pop	{r4, r5, r6, pc}
    19dc:	efffffff 	svc	0x00ffffff
    19e0:	ffffa500 			; <UNDEFINED> instruction: 0xffffa500

000019e4 <R_BSP_RegisterProtectEnable>:
    19e4:	b570      	push	{r4, r5, r6, lr}
    19e6:	f3ef 8110 	mrs	r1, PRIMASK
    19ea:	2301      	movs	r3, #1
    19ec:	f383 8810 	msr	PRIMASK, r3
    19f0:	f244 73c0 	movw	r3, #18368	; 0x47c0
    19f4:	0040      	lsls	r0, r0, #1
    19f6:	f2c2 0300 	movt	r3, #8192	; 0x2000
    19fa:	5a1a      	ldrh	r2, [r3, r0]
    19fc:	b11a      	cbz	r2, 1a06 <R_BSP_RegisterProtectEnable+0x22>
    19fe:	5a1a      	ldrh	r2, [r3, r0]
    1a00:	3a01      	subs	r2, #1
    1a02:	b292      	uxth	r2, r2
    1a04:	521a      	strh	r2, [r3, r0]
    1a06:	5a1b      	ldrh	r3, [r3, r0]
    1a08:	b983      	cbnz	r3, 1a2c <R_BSP_RegisterProtectEnable+0x48>
    1a0a:	f24e 0200 	movw	r2, #57344	; 0xe000
    1a0e:	f240 35fe 	movw	r5, #1022	; 0x3fe
    1a12:	f645 3478 	movw	r4, #23416	; 0x5b78
    1a16:	f2c4 0201 	movt	r2, #16385	; 0x4001
    1a1a:	5b56      	ldrh	r6, [r2, r5]
    1a1c:	4b05      	ldr	r3, [pc, #20]	; (1a34 <R_BSP_RegisterProtectEnable+0x50>)
    1a1e:	f2c0 0400 	movt	r4, #0
    1a22:	5a20      	ldrh	r0, [r4, r0]
    1a24:	4333      	orrs	r3, r6
    1a26:	4383      	bics	r3, r0
    1a28:	b29b      	uxth	r3, r3
    1a2a:	5353      	strh	r3, [r2, r5]
    1a2c:	f381 8810 	msr	PRIMASK, r1
    1a30:	bd70      	pop	{r4, r5, r6, pc}
    1a32:	46c0      	nop			; (mov r8, r8)
    1a34:	ffffa500 			; <UNDEFINED> instruction: 0xffffa500

00001a38 <R_BSP_RegisterProtectDisable>:
    1a38:	b570      	push	{r4, r5, r6, lr}
    1a3a:	f3ef 8110 	mrs	r1, PRIMASK
    1a3e:	2301      	movs	r3, #1
    1a40:	f383 8810 	msr	PRIMASK, r3
    1a44:	f244 72c0 	movw	r2, #18368	; 0x47c0
    1a48:	0040      	lsls	r0, r0, #1
    1a4a:	f2c2 0200 	movt	r2, #8192	; 0x2000
    1a4e:	5a13      	ldrh	r3, [r2, r0]
    1a50:	b983      	cbnz	r3, 1a74 <R_BSP_RegisterProtectDisable+0x3c>
    1a52:	f24e 0400 	movw	r4, #57344	; 0xe000
    1a56:	f645 3578 	movw	r5, #23416	; 0x5b78
    1a5a:	f240 36fe 	movw	r6, #1022	; 0x3fe
    1a5e:	f2c4 0401 	movt	r4, #16385	; 0x4001
    1a62:	f2c0 0500 	movt	r5, #0
    1a66:	5ba3      	ldrh	r3, [r4, r6]
    1a68:	5a2d      	ldrh	r5, [r5, r0]
    1a6a:	432b      	orrs	r3, r5
    1a6c:	f24a 5500 	movw	r5, #42240	; 0xa500
    1a70:	432b      	orrs	r3, r5
    1a72:	53a3      	strh	r3, [r4, r6]
    1a74:	5a13      	ldrh	r3, [r2, r0]
    1a76:	3301      	adds	r3, #1
    1a78:	b29b      	uxth	r3, r3
    1a7a:	5213      	strh	r3, [r2, r0]
    1a7c:	f381 8810 	msr	PRIMASK, r1
    1a80:	bd70      	pop	{r4, r5, r6, pc}
    1a82:	46c0      	nop			; (mov r8, r8)

00001a84 <finsh_system_init>:
    1a84:	b570      	push	{r4, r5, r6, lr}
    1a86:	f246 3354 	movw	r3, #25428	; 0x6354
    1a8a:	f244 74c8 	movw	r4, #18376	; 0x47c8
    1a8e:	f2c0 0300 	movt	r3, #0
    1a92:	f2c2 0400 	movt	r4, #8192	; 0x2000
    1a96:	6023      	str	r3, [r4, #0]
    1a98:	f246 33f0 	movw	r3, #25584	; 0x63f0
    1a9c:	f2c0 0300 	movt	r3, #0
    1aa0:	6063      	str	r3, [r4, #4]
    1aa2:	f246 33f0 	movw	r3, #25584	; 0x63f0
    1aa6:	f2c0 0300 	movt	r3, #0
    1aaa:	60a3      	str	r3, [r4, #8]
    1aac:	f246 33f0 	movw	r3, #25584	; 0x63f0
    1ab0:	f2c0 0300 	movt	r3, #0
    1ab4:	60e3      	str	r3, [r4, #12]
    1ab6:	0023      	movs	r3, r4
    1ab8:	3314      	adds	r3, #20
    1aba:	6123      	str	r3, [r4, #16]
    1abc:	230a      	movs	r3, #10
    1abe:	b084      	sub	sp, #16
    1ac0:	9303      	str	r3, [sp, #12]
    1ac2:	3b04      	subs	r3, #4
    1ac4:	9302      	str	r3, [sp, #8]
    1ac6:	33fb      	adds	r3, #251	; 0xfb
    1ac8:	33ff      	adds	r3, #255	; 0xff
    1aca:	f644 0648 	movw	r6, #18504	; 0x4848
    1ace:	9301      	str	r3, [sp, #4]
    1ad0:	f644 1350 	movw	r3, #18768	; 0x4950
    1ad4:	f641 32b5 	movw	r2, #7093	; 0x1bb5
    1ad8:	f645 3180 	movw	r1, #23424	; 0x5b80
    1adc:	f2c2 0600 	movt	r6, #8192	; 0x2000
    1ae0:	f2c2 0300 	movt	r3, #8192	; 0x2000
    1ae4:	360c      	adds	r6, #12
    1ae6:	9300      	str	r3, [sp, #0]
    1ae8:	f2c0 0200 	movt	r2, #0
    1aec:	2300      	movs	r3, #0
    1aee:	f2c0 0100 	movt	r1, #0
    1af2:	0030      	movs	r0, r6
    1af4:	f001 f89e 	bl	2c34 <rt_thread_init>
    1af8:	f645 3188 	movw	r1, #23432	; 0x5b88
    1afc:	2300      	movs	r3, #0
    1afe:	2200      	movs	r2, #0
    1b00:	f2c0 0100 	movt	r1, #0
    1b04:	0005      	movs	r5, r0
    1b06:	6920      	ldr	r0, [r4, #16]
    1b08:	f001 fd76 	bl	35f8 <rt_sem_init>
    1b0c:	2221      	movs	r2, #33	; 0x21
    1b0e:	2002      	movs	r0, #2
    1b10:	6921      	ldr	r1, [r4, #16]
    1b12:	5c8b      	ldrb	r3, [r1, r2]
    1b14:	4303      	orrs	r3, r0
    1b16:	548b      	strb	r3, [r1, r2]
    1b18:	b115      	cbz	r5, 1b20 <finsh_system_init+0x9c>
    1b1a:	2000      	movs	r0, #0
    1b1c:	b004      	add	sp, #16
    1b1e:	bd70      	pop	{r4, r5, r6, pc}
    1b20:	0030      	movs	r0, r6
    1b22:	f001 f8d3 	bl	2ccc <rt_thread_startup>
    1b26:	e7f8      	b.n	1b1a <finsh_system_init+0x96>

00001b28 <finsh_get_prompt>:
    1b28:	f244 73c8 	movw	r3, #18376	; 0x47c8
    1b2c:	f2c2 0300 	movt	r3, #8192	; 0x2000
    1b30:	691a      	ldr	r2, [r3, #16]
    1b32:	2321      	movs	r3, #33	; 0x21
    1b34:	5cd3      	ldrb	r3, [r2, r3]
    1b36:	2202      	movs	r2, #2
    1b38:	0011      	movs	r1, r2
    1b3a:	b510      	push	{r4, lr}
    1b3c:	4019      	ands	r1, r3
    1b3e:	421a      	tst	r2, r3
    1b40:	d024      	beq.n	1b8c <finsh_get_prompt+0x64>
    1b42:	f000 fa23 	bl	1f8c <msh_is_used>
    1b46:	f644 03cc 	movw	r3, #18636	; 0x48cc
    1b4a:	f2c2 0300 	movt	r3, #8192	; 0x2000
    1b4e:	bb38      	cbnz	r0, 1ba0 <finsh_get_prompt+0x78>
    1b50:	f645 3298 	movw	r2, #23448	; 0x5b98
    1b54:	f2c0 0200 	movt	r2, #0
    1b58:	6811      	ldr	r1, [r2, #0]
    1b5a:	6019      	str	r1, [r3, #0]
    1b5c:	8891      	ldrh	r1, [r2, #4]
    1b5e:	8099      	strh	r1, [r3, #4]
    1b60:	7992      	ldrb	r2, [r2, #6]
    1b62:	719a      	strb	r2, [r3, #6]
    1b64:	f644 00cc 	movw	r0, #18636	; 0x48cc
    1b68:	f2c2 0000 	movt	r0, #8192	; 0x2000
    1b6c:	f003 f8cc 	bl	4d08 <strlen>
    1b70:	f644 03cc 	movw	r3, #18636	; 0x48cc
    1b74:	f2c2 0300 	movt	r3, #8192	; 0x2000
    1b78:	469c      	mov	ip, r3
    1b7a:	f645 31a0 	movw	r1, #23456	; 0x5ba0
    1b7e:	2202      	movs	r2, #2
    1b80:	4460      	add	r0, ip
    1b82:	f2c0 0100 	movt	r1, #0
    1b86:	f003 f81f 	bl	4bc8 <memcpy>
    1b8a:	e004      	b.n	1b96 <finsh_get_prompt+0x6e>
    1b8c:	f644 03cc 	movw	r3, #18636	; 0x48cc
    1b90:	f2c2 0300 	movt	r3, #8192	; 0x2000
    1b94:	7019      	strb	r1, [r3, #0]
    1b96:	f644 00cc 	movw	r0, #18636	; 0x48cc
    1b9a:	f2c2 0000 	movt	r0, #8192	; 0x2000
    1b9e:	bd10      	pop	{r4, pc}
    1ba0:	f645 3290 	movw	r2, #23440	; 0x5b90
    1ba4:	f2c0 0200 	movt	r2, #0
    1ba8:	6811      	ldr	r1, [r2, #0]
    1baa:	6019      	str	r1, [r3, #0]
    1bac:	7912      	ldrb	r2, [r2, #4]
    1bae:	711a      	strb	r2, [r3, #4]
    1bb0:	e7d8      	b.n	1b64 <finsh_get_prompt+0x3c>
    1bb2:	46c0      	nop			; (mov r8, r8)

00001bb4 <finsh_thread_entry>:
    1bb4:	b5f8      	push	{r3, r4, r5, r6, r7, lr}
    1bb6:	f244 75c8 	movw	r5, #18376	; 0x47c8
    1bba:	2221      	movs	r2, #33	; 0x21
    1bbc:	2001      	movs	r0, #1
    1bbe:	f2c2 0500 	movt	r5, #8192	; 0x2000
    1bc2:	6929      	ldr	r1, [r5, #16]
    1bc4:	5c8b      	ldrb	r3, [r1, r2]
    1bc6:	4303      	orrs	r3, r0
    1bc8:	548b      	strb	r3, [r1, r2]
    1bca:	f7ff ffad 	bl	1b28 <finsh_get_prompt>
    1bce:	f002 fd99 	bl	4704 <rt_kprintf>
    1bd2:	f7ff fcbd 	bl	1550 <rt_hw_console_getchar>
    1bd6:	0004      	movs	r4, r0
    1bd8:	281b      	cmp	r0, #27
    1bda:	d038      	beq.n	1c4e <finsh_thread_entry+0x9a>
    1bdc:	2220      	movs	r2, #32
    1bde:	6928      	ldr	r0, [r5, #16]
    1be0:	5c83      	ldrb	r3, [r0, r2]
    1be2:	2b01      	cmp	r3, #1
    1be4:	d038      	beq.n	1c58 <finsh_thread_entry+0xa4>
    1be6:	2b02      	cmp	r3, #2
    1be8:	d03b      	beq.n	1c62 <finsh_thread_entry+0xae>
    1bea:	1e63      	subs	r3, r4, #1
    1bec:	b2db      	uxtb	r3, r3
    1bee:	2bfd      	cmp	r3, #253	; 0xfd
    1bf0:	d8ef      	bhi.n	1bd2 <finsh_thread_entry+0x1e>
    1bf2:	2c09      	cmp	r4, #9
    1bf4:	d100      	bne.n	1bf8 <finsh_thread_entry+0x44>
    1bf6:	e0b2      	b.n	1d5e <finsh_thread_entry+0x1aa>
    1bf8:	2c7f      	cmp	r4, #127	; 0x7f
    1bfa:	d052      	beq.n	1ca2 <finsh_thread_entry+0xee>
    1bfc:	2c08      	cmp	r4, #8
    1bfe:	d050      	beq.n	1ca2 <finsh_thread_entry+0xee>
    1c00:	2c0d      	cmp	r4, #13
    1c02:	d100      	bne.n	1c06 <finsh_thread_entry+0x52>
    1c04:	e095      	b.n	1d32 <finsh_thread_entry+0x17e>
    1c06:	2c0a      	cmp	r4, #10
    1c08:	d100      	bne.n	1c0c <finsh_thread_entry+0x58>
    1c0a:	e092      	b.n	1d32 <finsh_thread_entry+0x17e>
    1c0c:	2372      	movs	r3, #114	; 0x72
    1c0e:	5ac2      	ldrh	r2, [r0, r3]
    1c10:	2a4f      	cmp	r2, #79	; 0x4f
    1c12:	d965      	bls.n	1ce0 <finsh_thread_entry+0x12c>
    1c14:	2200      	movs	r2, #0
    1c16:	52c2      	strh	r2, [r0, r3]
    1c18:	2300      	movs	r3, #0
    1c1a:	18c3      	adds	r3, r0, r3
    1c1c:	3322      	adds	r3, #34	; 0x22
    1c1e:	701c      	strb	r4, [r3, #0]
    1c20:	2321      	movs	r3, #33	; 0x21
    1c22:	5cc3      	ldrb	r3, [r0, r3]
    1c24:	07db      	lsls	r3, r3, #31
    1c26:	d500      	bpl.n	1c2a <finsh_thread_entry+0x76>
    1c28:	e0ca      	b.n	1dc0 <finsh_thread_entry+0x20c>
    1c2a:	2472      	movs	r4, #114	; 0x72
    1c2c:	2174      	movs	r1, #116	; 0x74
    1c2e:	3201      	adds	r2, #1
    1c30:	b292      	uxth	r2, r2
    1c32:	5302      	strh	r2, [r0, r4]
    1c34:	5a43      	ldrh	r3, [r0, r1]
    1c36:	3301      	adds	r3, #1
    1c38:	5243      	strh	r3, [r0, r1]
    1c3a:	2a4f      	cmp	r2, #79	; 0x4f
    1c3c:	d9c9      	bls.n	1bd2 <finsh_thread_entry+0x1e>
    1c3e:	2300      	movs	r3, #0
    1c40:	5303      	strh	r3, [r0, r4]
    1c42:	5243      	strh	r3, [r0, r1]
    1c44:	f7ff fc84 	bl	1550 <rt_hw_console_getchar>
    1c48:	0004      	movs	r4, r0
    1c4a:	281b      	cmp	r0, #27
    1c4c:	d1c6      	bne.n	1bdc <finsh_thread_entry+0x28>
    1c4e:	2320      	movs	r3, #32
    1c50:	2201      	movs	r2, #1
    1c52:	6929      	ldr	r1, [r5, #16]
    1c54:	54ca      	strb	r2, [r1, r3]
    1c56:	e7bc      	b.n	1bd2 <finsh_thread_entry+0x1e>
    1c58:	2c5b      	cmp	r4, #91	; 0x5b
    1c5a:	d03e      	beq.n	1cda <finsh_thread_entry+0x126>
    1c5c:	2300      	movs	r3, #0
    1c5e:	5483      	strb	r3, [r0, r2]
    1c60:	e7c3      	b.n	1bea <finsh_thread_entry+0x36>
    1c62:	2300      	movs	r3, #0
    1c64:	5483      	strb	r3, [r0, r2]
    1c66:	0023      	movs	r3, r4
    1c68:	3b41      	subs	r3, #65	; 0x41
    1c6a:	b2db      	uxtb	r3, r3
    1c6c:	2b01      	cmp	r3, #1
    1c6e:	d9b0      	bls.n	1bd2 <finsh_thread_entry+0x1e>
    1c70:	2c44      	cmp	r4, #68	; 0x44
    1c72:	d100      	bne.n	1c76 <finsh_thread_entry+0xc2>
    1c74:	e0d7      	b.n	1e26 <finsh_thread_entry+0x272>
    1c76:	2c43      	cmp	r4, #67	; 0x43
    1c78:	d1b7      	bne.n	1bea <finsh_thread_entry+0x36>
    1c7a:	2272      	movs	r2, #114	; 0x72
    1c7c:	3431      	adds	r4, #49	; 0x31
    1c7e:	5b03      	ldrh	r3, [r0, r4]
    1c80:	5a82      	ldrh	r2, [r0, r2]
    1c82:	429a      	cmp	r2, r3
    1c84:	d9a5      	bls.n	1bd2 <finsh_thread_entry+0x1e>
    1c86:	18c3      	adds	r3, r0, r3
    1c88:	f645 30a8 	movw	r0, #23464	; 0x5ba8
    1c8c:	3322      	adds	r3, #34	; 0x22
    1c8e:	7819      	ldrb	r1, [r3, #0]
    1c90:	f2c0 0000 	movt	r0, #0
    1c94:	f002 fd36 	bl	4704 <rt_kprintf>
    1c98:	692a      	ldr	r2, [r5, #16]
    1c9a:	5b13      	ldrh	r3, [r2, r4]
    1c9c:	3301      	adds	r3, #1
    1c9e:	5313      	strh	r3, [r2, r4]
    1ca0:	e797      	b.n	1bd2 <finsh_thread_entry+0x1e>
    1ca2:	2474      	movs	r4, #116	; 0x74
    1ca4:	5b01      	ldrh	r1, [r0, r4]
    1ca6:	2900      	cmp	r1, #0
    1ca8:	d093      	beq.n	1bd2 <finsh_thread_entry+0x1e>
    1caa:	2672      	movs	r6, #114	; 0x72
    1cac:	5b82      	ldrh	r2, [r0, r6]
    1cae:	1e4b      	subs	r3, r1, #1
    1cb0:	3a01      	subs	r2, #1
    1cb2:	b292      	uxth	r2, r2
    1cb4:	b29b      	uxth	r3, r3
    1cb6:	5382      	strh	r2, [r0, r6]
    1cb8:	5303      	strh	r3, [r0, r4]
    1cba:	429a      	cmp	r2, r3
    1cbc:	d900      	bls.n	1cc0 <finsh_thread_entry+0x10c>
    1cbe:	e08a      	b.n	1dd6 <finsh_thread_entry+0x222>
    1cc0:	f645 30bc 	movw	r0, #23484	; 0x5bbc
    1cc4:	f2c0 0000 	movt	r0, #0
    1cc8:	f002 fd1c 	bl	4704 <rt_kprintf>
    1ccc:	692b      	ldr	r3, [r5, #16]
    1cce:	5b9a      	ldrh	r2, [r3, r6]
    1cd0:	189b      	adds	r3, r3, r2
    1cd2:	2200      	movs	r2, #0
    1cd4:	3322      	adds	r3, #34	; 0x22
    1cd6:	701a      	strb	r2, [r3, #0]
    1cd8:	e77b      	b.n	1bd2 <finsh_thread_entry+0x1e>
    1cda:	3301      	adds	r3, #1
    1cdc:	5483      	strb	r3, [r0, r2]
    1cde:	e778      	b.n	1bd2 <finsh_thread_entry+0x1e>
    1ce0:	2774      	movs	r7, #116	; 0x74
    1ce2:	5bc6      	ldrh	r6, [r0, r7]
    1ce4:	0013      	movs	r3, r2
    1ce6:	42b2      	cmp	r2, r6
    1ce8:	d997      	bls.n	1c1a <finsh_thread_entry+0x66>
    1cea:	0031      	movs	r1, r6
    1cec:	1b92      	subs	r2, r2, r6
    1cee:	3122      	adds	r1, #34	; 0x22
    1cf0:	3623      	adds	r6, #35	; 0x23
    1cf2:	1841      	adds	r1, r0, r1
    1cf4:	1980      	adds	r0, r0, r6
    1cf6:	f002 f9b1 	bl	405c <rt_memmove>
    1cfa:	6928      	ldr	r0, [r5, #16]
    1cfc:	5bc6      	ldrh	r6, [r0, r7]
    1cfe:	1983      	adds	r3, r0, r6
    1d00:	3322      	adds	r3, #34	; 0x22
    1d02:	701c      	strb	r4, [r3, #0]
    1d04:	2321      	movs	r3, #33	; 0x21
    1d06:	5cc3      	ldrb	r3, [r0, r3]
    1d08:	07db      	lsls	r3, r3, #31
    1d0a:	d500      	bpl.n	1d0e <finsh_thread_entry+0x15a>
    1d0c:	e0ab      	b.n	1e66 <finsh_thread_entry+0x2b2>
    1d0e:	2372      	movs	r3, #114	; 0x72
    1d10:	5ac2      	ldrh	r2, [r0, r3]
    1d12:	4296      	cmp	r6, r2
    1d14:	db00      	blt.n	1d18 <finsh_thread_entry+0x164>
    1d16:	e788      	b.n	1c2a <finsh_thread_entry+0x76>
    1d18:	2472      	movs	r4, #114	; 0x72
    1d1a:	f645 30a4 	movw	r0, #23460	; 0x5ba4
    1d1e:	f2c0 0000 	movt	r0, #0
    1d22:	f002 fcef 	bl	4704 <rt_kprintf>
    1d26:	6928      	ldr	r0, [r5, #16]
    1d28:	3601      	adds	r6, #1
    1d2a:	5b02      	ldrh	r2, [r0, r4]
    1d2c:	42b2      	cmp	r2, r6
    1d2e:	dcf4      	bgt.n	1d1a <finsh_thread_entry+0x166>
    1d30:	e77b      	b.n	1c2a <finsh_thread_entry+0x76>
    1d32:	f000 f92b 	bl	1f8c <msh_is_used>
    1d36:	2801      	cmp	r0, #1
    1d38:	d100      	bne.n	1d3c <finsh_thread_entry+0x188>
    1d3a:	e084      	b.n	1e46 <finsh_thread_entry+0x292>
    1d3c:	f7ff fef4 	bl	1b28 <finsh_get_prompt>
    1d40:	f002 fce0 	bl	4704 <rt_kprintf>
    1d44:	692c      	ldr	r4, [r5, #16]
    1d46:	2250      	movs	r2, #80	; 0x50
    1d48:	0020      	movs	r0, r4
    1d4a:	2100      	movs	r1, #0
    1d4c:	3022      	adds	r0, #34	; 0x22
    1d4e:	f002 ff8b 	bl	4c68 <memset>
    1d52:	2300      	movs	r3, #0
    1d54:	2272      	movs	r2, #114	; 0x72
    1d56:	52a3      	strh	r3, [r4, r2]
    1d58:	3202      	adds	r2, #2
    1d5a:	52a3      	strh	r3, [r4, r2]
    1d5c:	e739      	b.n	1bd2 <finsh_thread_entry+0x1e>
    1d5e:	2374      	movs	r3, #116	; 0x74
    1d60:	5ac3      	ldrh	r3, [r0, r3]
    1d62:	b163      	cbz	r3, 1d7e <finsh_thread_entry+0x1ca>
    1d64:	2400      	movs	r4, #0
    1d66:	2674      	movs	r6, #116	; 0x74
    1d68:	f645 30a4 	movw	r0, #23460	; 0x5ba4
    1d6c:	f2c0 0000 	movt	r0, #0
    1d70:	f002 fcc8 	bl	4704 <rt_kprintf>
    1d74:	6928      	ldr	r0, [r5, #16]
    1d76:	3401      	adds	r4, #1
    1d78:	5b83      	ldrh	r3, [r0, r6]
    1d7a:	42a3      	cmp	r3, r4
    1d7c:	dcf4      	bgt.n	1d68 <finsh_thread_entry+0x1b4>
    1d7e:	3022      	adds	r0, #34	; 0x22
    1d80:	0004      	movs	r4, r0
    1d82:	f645 408c 	movw	r0, #23692	; 0x5c8c
    1d86:	f2c0 0000 	movt	r0, #0
    1d8a:	f002 fcbb 	bl	4704 <rt_kprintf>
    1d8e:	f000 f8fd 	bl	1f8c <msh_is_used>
    1d92:	2801      	cmp	r0, #1
    1d94:	d063      	beq.n	1e5e <finsh_thread_entry+0x2aa>
    1d96:	f7ff fec7 	bl	1b28 <finsh_get_prompt>
    1d9a:	0001      	movs	r1, r0
    1d9c:	f645 30ac 	movw	r0, #23468	; 0x5bac
    1da0:	0022      	movs	r2, r4
    1da2:	f2c0 0000 	movt	r0, #0
    1da6:	f002 fcad 	bl	4704 <rt_kprintf>
    1daa:	692c      	ldr	r4, [r5, #16]
    1dac:	0020      	movs	r0, r4
    1dae:	3022      	adds	r0, #34	; 0x22
    1db0:	f002 ffaa 	bl	4d08 <strlen>
    1db4:	2372      	movs	r3, #114	; 0x72
    1db6:	b280      	uxth	r0, r0
    1db8:	52e0      	strh	r0, [r4, r3]
    1dba:	3302      	adds	r3, #2
    1dbc:	52e0      	strh	r0, [r4, r3]
    1dbe:	e708      	b.n	1bd2 <finsh_thread_entry+0x1e>
    1dc0:	f645 30a8 	movw	r0, #23464	; 0x5ba8
    1dc4:	0021      	movs	r1, r4
    1dc6:	f2c0 0000 	movt	r0, #0
    1dca:	f002 fc9b 	bl	4704 <rt_kprintf>
    1dce:	2372      	movs	r3, #114	; 0x72
    1dd0:	6928      	ldr	r0, [r5, #16]
    1dd2:	5ac2      	ldrh	r2, [r0, r3]
    1dd4:	e729      	b.n	1c2a <finsh_thread_entry+0x76>
    1dd6:	1ad2      	subs	r2, r2, r3
    1dd8:	3122      	adds	r1, #34	; 0x22
    1dda:	3322      	adds	r3, #34	; 0x22
    1ddc:	1841      	adds	r1, r0, r1
    1dde:	18c0      	adds	r0, r0, r3
    1de0:	f002 f93c 	bl	405c <rt_memmove>
    1de4:	2200      	movs	r2, #0
    1de6:	f645 30b4 	movw	r0, #23476	; 0x5bb4
    1dea:	6929      	ldr	r1, [r5, #16]
    1dec:	f2c0 0000 	movt	r0, #0
    1df0:	5b8b      	ldrh	r3, [r1, r6]
    1df2:	18cb      	adds	r3, r1, r3
    1df4:	3322      	adds	r3, #34	; 0x22
    1df6:	701a      	strb	r2, [r3, #0]
    1df8:	5b0b      	ldrh	r3, [r1, r4]
    1dfa:	3322      	adds	r3, #34	; 0x22
    1dfc:	18c9      	adds	r1, r1, r3
    1dfe:	f002 fc81 	bl	4704 <rt_kprintf>
    1e02:	692b      	ldr	r3, [r5, #16]
    1e04:	5b1c      	ldrh	r4, [r3, r4]
    1e06:	5b9b      	ldrh	r3, [r3, r6]
    1e08:	429c      	cmp	r4, r3
    1e0a:	dd00      	ble.n	1e0e <finsh_thread_entry+0x25a>
    1e0c:	e6e1      	b.n	1bd2 <finsh_thread_entry+0x1e>
    1e0e:	f645 30a4 	movw	r0, #23460	; 0x5ba4
    1e12:	f2c0 0000 	movt	r0, #0
    1e16:	f002 fc75 	bl	4704 <rt_kprintf>
    1e1a:	692b      	ldr	r3, [r5, #16]
    1e1c:	3401      	adds	r4, #1
    1e1e:	5b9b      	ldrh	r3, [r3, r6]
    1e20:	42a3      	cmp	r3, r4
    1e22:	daf4      	bge.n	1e0e <finsh_thread_entry+0x25a>
    1e24:	e6d5      	b.n	1bd2 <finsh_thread_entry+0x1e>
    1e26:	3430      	adds	r4, #48	; 0x30
    1e28:	5b03      	ldrh	r3, [r0, r4]
    1e2a:	2b00      	cmp	r3, #0
    1e2c:	d100      	bne.n	1e30 <finsh_thread_entry+0x27c>
    1e2e:	e6d0      	b.n	1bd2 <finsh_thread_entry+0x1e>
    1e30:	f645 30a4 	movw	r0, #23460	; 0x5ba4
    1e34:	f2c0 0000 	movt	r0, #0
    1e38:	f002 fc64 	bl	4704 <rt_kprintf>
    1e3c:	692a      	ldr	r2, [r5, #16]
    1e3e:	5b13      	ldrh	r3, [r2, r4]
    1e40:	3b01      	subs	r3, #1
    1e42:	5313      	strh	r3, [r2, r4]
    1e44:	e6c5      	b.n	1bd2 <finsh_thread_entry+0x1e>
    1e46:	2221      	movs	r2, #33	; 0x21
    1e48:	692b      	ldr	r3, [r5, #16]
    1e4a:	5c9a      	ldrb	r2, [r3, r2]
    1e4c:	4210      	tst	r0, r2
    1e4e:	d116      	bne.n	1e7e <finsh_thread_entry+0x2ca>
    1e50:	2272      	movs	r2, #114	; 0x72
    1e52:	5a99      	ldrh	r1, [r3, r2]
    1e54:	3322      	adds	r3, #34	; 0x22
    1e56:	0018      	movs	r0, r3
    1e58:	f000 f89a 	bl	1f90 <msh_exec>
    1e5c:	e76e      	b.n	1d3c <finsh_thread_entry+0x188>
    1e5e:	0020      	movs	r0, r4
    1e60:	f000 f982 	bl	2168 <msh_auto_complete>
    1e64:	e797      	b.n	1d96 <finsh_thread_entry+0x1e2>
    1e66:	0031      	movs	r1, r6
    1e68:	3122      	adds	r1, #34	; 0x22
    1e6a:	1841      	adds	r1, r0, r1
    1e6c:	f645 30c0 	movw	r0, #23488	; 0x5bc0
    1e70:	f2c0 0000 	movt	r0, #0
    1e74:	f002 fc46 	bl	4704 <rt_kprintf>
    1e78:	6928      	ldr	r0, [r5, #16]
    1e7a:	5bc6      	ldrh	r6, [r0, r7]
    1e7c:	e747      	b.n	1d0e <finsh_thread_entry+0x15a>
    1e7e:	f645 408c 	movw	r0, #23692	; 0x5c8c
    1e82:	f2c0 0000 	movt	r0, #0
    1e86:	f002 fc3d 	bl	4704 <rt_kprintf>
    1e8a:	692b      	ldr	r3, [r5, #16]
    1e8c:	e7e0      	b.n	1e50 <finsh_thread_entry+0x29c>
    1e8e:	46c0      	nop			; (mov r8, r8)

00001e90 <finsh_get_prompt_mode>:
    1e90:	f244 73c8 	movw	r3, #18376	; 0x47c8
    1e94:	f2c2 0300 	movt	r3, #8192	; 0x2000
    1e98:	691a      	ldr	r2, [r3, #16]
    1e9a:	2321      	movs	r3, #33	; 0x21
    1e9c:	5cd0      	ldrb	r0, [r2, r3]
    1e9e:	0780      	lsls	r0, r0, #30
    1ea0:	0fc0      	lsrs	r0, r0, #31
    1ea2:	4770      	bx	lr

00001ea4 <finsh_set_prompt_mode>:
    1ea4:	f244 72c8 	movw	r2, #18376	; 0x47c8
    1ea8:	f2c2 0200 	movt	r2, #8192	; 0x2000
    1eac:	6911      	ldr	r1, [r2, #16]
    1eae:	2301      	movs	r3, #1
    1eb0:	2221      	movs	r2, #33	; 0x21
    1eb2:	b510      	push	{r4, lr}
    1eb4:	2402      	movs	r4, #2
    1eb6:	4003      	ands	r3, r0
    1eb8:	5c88      	ldrb	r0, [r1, r2]
    1eba:	005b      	lsls	r3, r3, #1
    1ebc:	43a0      	bics	r0, r4
    1ebe:	4318      	orrs	r0, r3
    1ec0:	5488      	strb	r0, [r1, r2]
    1ec2:	bd10      	pop	{r4, pc}

00001ec4 <finsh_set_echo>:
    1ec4:	f244 73c8 	movw	r3, #18376	; 0x47c8
    1ec8:	2221      	movs	r2, #33	; 0x21
    1eca:	f2c2 0300 	movt	r3, #8192	; 0x2000
    1ece:	b510      	push	{r4, lr}
    1ed0:	6919      	ldr	r1, [r3, #16]
    1ed2:	2401      	movs	r4, #1
    1ed4:	0003      	movs	r3, r0
    1ed6:	5c88      	ldrb	r0, [r1, r2]
    1ed8:	4023      	ands	r3, r4
    1eda:	43a0      	bics	r0, r4
    1edc:	4318      	orrs	r0, r3
    1ede:	5488      	strb	r0, [r1, r2]
    1ee0:	bd10      	pop	{r4, pc}
    1ee2:	46c0      	nop			; (mov r8, r8)

00001ee4 <finsh_get_echo>:
    1ee4:	f244 73c8 	movw	r3, #18376	; 0x47c8
    1ee8:	f2c2 0300 	movt	r3, #8192	; 0x2000
    1eec:	691a      	ldr	r2, [r3, #16]
    1eee:	2321      	movs	r3, #33	; 0x21
    1ef0:	5cd0      	ldrb	r0, [r2, r3]
    1ef2:	07c0      	lsls	r0, r0, #31
    1ef4:	0fc0      	lsrs	r0, r0, #31
    1ef6:	4770      	bx	lr

00001ef8 <finsh_system_function_init>:
    1ef8:	f244 73c8 	movw	r3, #18376	; 0x47c8
    1efc:	f2c2 0300 	movt	r3, #8192	; 0x2000
    1f00:	c303      	stmia	r3!, {r0, r1}
    1f02:	4770      	bx	lr

00001f04 <finsh_system_var_init>:
    1f04:	f244 73c8 	movw	r3, #18376	; 0x47c8
    1f08:	f2c2 0300 	movt	r3, #8192	; 0x2000
    1f0c:	6098      	str	r0, [r3, #8]
    1f0e:	60d9      	str	r1, [r3, #12]
    1f10:	4770      	bx	lr
    1f12:	46c0      	nop			; (mov r8, r8)

00001f14 <msh_help>:
    1f14:	f645 30c4 	movw	r0, #23492	; 0x5bc4
    1f18:	b5f8      	push	{r3, r4, r5, r6, r7, lr}
    1f1a:	f2c0 0000 	movt	r0, #0
    1f1e:	f002 fbf1 	bl	4704 <rt_kprintf>
    1f22:	f244 77cc 	movw	r7, #18380	; 0x47cc
    1f26:	f244 73c8 	movw	r3, #18376	; 0x47c8
    1f2a:	f2c2 0700 	movt	r7, #8192	; 0x2000
    1f2e:	f2c2 0300 	movt	r3, #8192	; 0x2000
    1f32:	681c      	ldr	r4, [r3, #0]
    1f34:	683e      	ldr	r6, [r7, #0]
    1f36:	42b4      	cmp	r4, r6
    1f38:	d215      	bcs.n	1f66 <msh_help+0x52>
    1f3a:	f645 31e0 	movw	r1, #23520	; 0x5be0
    1f3e:	6825      	ldr	r5, [r4, #0]
    1f40:	2206      	movs	r2, #6
    1f42:	0028      	movs	r0, r5
    1f44:	f2c0 0100 	movt	r1, #0
    1f48:	f002 ff0a 	bl	4d60 <strncmp>
    1f4c:	b998      	cbnz	r0, 1f76 <msh_help+0x62>
    1f4e:	f645 30e8 	movw	r0, #23528	; 0x5be8
    1f52:	6862      	ldr	r2, [r4, #4]
    1f54:	1da9      	adds	r1, r5, #6
    1f56:	f2c0 0000 	movt	r0, #0
    1f5a:	f002 fbd3 	bl	4704 <rt_kprintf>
    1f5e:	683e      	ldr	r6, [r7, #0]
    1f60:	340c      	adds	r4, #12
    1f62:	42b4      	cmp	r4, r6
    1f64:	d3e9      	bcc.n	1f3a <msh_help+0x26>
    1f66:	f645 408c 	movw	r0, #23692	; 0x5c8c
    1f6a:	f2c0 0000 	movt	r0, #0
    1f6e:	f002 fbc9 	bl	4704 <rt_kprintf>
    1f72:	2000      	movs	r0, #0
    1f74:	bdf8      	pop	{r3, r4, r5, r6, r7, pc}
    1f76:	340c      	adds	r4, #12
    1f78:	42b4      	cmp	r4, r6
    1f7a:	d3de      	bcc.n	1f3a <msh_help+0x26>
    1f7c:	e7f3      	b.n	1f66 <msh_help+0x52>
    1f7e:	46c0      	nop			; (mov r8, r8)

00001f80 <cmd_ps>:
    1f80:	b510      	push	{r4, lr}
    1f82:	f000 f9d1 	bl	2328 <list_thread>
    1f86:	2000      	movs	r0, #0
    1f88:	bd10      	pop	{r4, pc}
    1f8a:	46c0      	nop			; (mov r8, r8)

00001f8c <msh_is_used>:
    1f8c:	2001      	movs	r0, #1
    1f8e:	4770      	bx	lr

00001f90 <msh_exec>:
    1f90:	b5f0      	push	{r4, r5, r6, r7, lr}
    1f92:	4645      	mov	r5, r8
    1f94:	46de      	mov	lr, fp
    1f96:	4657      	mov	r7, sl
    1f98:	464e      	mov	r6, r9
    1f9a:	b5e0      	push	{r5, r6, r7, lr}
    1f9c:	000c      	movs	r4, r1
    1f9e:	0005      	movs	r5, r0
    1fa0:	b089      	sub	sp, #36	; 0x24
    1fa2:	b141      	cbz	r1, 1fb6 <msh_exec+0x26>
    1fa4:	782f      	ldrb	r7, [r5, #0]
    1fa6:	2f20      	cmp	r7, #32
    1fa8:	d001      	beq.n	1fae <msh_exec+0x1e>
    1faa:	2f09      	cmp	r7, #9
    1fac:	d10b      	bne.n	1fc6 <msh_exec+0x36>
    1fae:	3c01      	subs	r4, #1
    1fb0:	3501      	adds	r5, #1
    1fb2:	2c00      	cmp	r4, #0
    1fb4:	d1f6      	bne.n	1fa4 <msh_exec+0x14>
    1fb6:	2000      	movs	r0, #0
    1fb8:	b009      	add	sp, #36	; 0x24
    1fba:	bcf0      	pop	{r4, r5, r6, r7}
    1fbc:	46bb      	mov	fp, r7
    1fbe:	46b2      	mov	sl, r6
    1fc0:	46a9      	mov	r9, r5
    1fc2:	46a0      	mov	r8, r4
    1fc4:	bdf0      	pop	{r4, r5, r6, r7, pc}
    1fc6:	f240 0800 	movw	r8, #0
    1fca:	e001      	b.n	1fd0 <msh_exec+0x40>
    1fcc:	45a0      	cmp	r8, r4
    1fce:	d009      	beq.n	1fe4 <msh_exec+0x54>
    1fd0:	f240 0c01 	movw	ip, #1
    1fd4:	46c3      	mov	fp, r8
    1fd6:	44e0      	add	r8, ip
    1fd8:	4643      	mov	r3, r8
    1fda:	5ceb      	ldrb	r3, [r5, r3]
    1fdc:	2b20      	cmp	r3, #32
    1fde:	d001      	beq.n	1fe4 <msh_exec+0x54>
    1fe0:	2b09      	cmp	r3, #9
    1fe2:	d1f3      	bne.n	1fcc <msh_exec+0x3c>
    1fe4:	f244 73c8 	movw	r3, #18376	; 0x47c8
    1fe8:	f2c2 0300 	movt	r3, #8192	; 0x2000
    1fec:	681e      	ldr	r6, [r3, #0]
    1fee:	f244 73cc 	movw	r3, #18380	; 0x47cc
    1ff2:	f2c2 0300 	movt	r3, #8192	; 0x2000
    1ff6:	681b      	ldr	r3, [r3, #0]
    1ff8:	469a      	mov	sl, r3
    1ffa:	42b3      	cmp	r3, r6
    1ffc:	d918      	bls.n	2030 <msh_exec+0xa0>
    1ffe:	f645 31e0 	movw	r1, #23520	; 0x5be0
    2002:	6833      	ldr	r3, [r6, #0]
    2004:	2206      	movs	r2, #6
    2006:	0018      	movs	r0, r3
    2008:	f2c0 0100 	movt	r1, #0
    200c:	4699      	mov	r9, r3
    200e:	f002 fea7 	bl	4d60 <strncmp>
    2012:	b950      	cbnz	r0, 202a <msh_exec+0x9a>
    2014:	464b      	mov	r3, r9
    2016:	4642      	mov	r2, r8
    2018:	0029      	movs	r1, r5
    201a:	1d98      	adds	r0, r3, #6
    201c:	f002 fea0 	bl	4d60 <strncmp>
    2020:	b918      	cbnz	r0, 202a <msh_exec+0x9a>
    2022:	464b      	mov	r3, r9
    2024:	445b      	add	r3, fp
    2026:	79db      	ldrb	r3, [r3, #7]
    2028:	b1a3      	cbz	r3, 2054 <msh_exec+0xc4>
    202a:	360c      	adds	r6, #12
    202c:	45b2      	cmp	sl, r6
    202e:	d8e6      	bhi.n	1ffe <msh_exec+0x6e>
    2030:	002b      	movs	r3, r5
    2032:	b11f      	cbz	r7, 203c <msh_exec+0xac>
    2034:	785f      	ldrb	r7, [r3, #1]
    2036:	3301      	adds	r3, #1
    2038:	2f20      	cmp	r7, #32
    203a:	d1fa      	bne.n	2032 <msh_exec+0xa2>
    203c:	2200      	movs	r2, #0
    203e:	f645 4018 	movw	r0, #23576	; 0x5c18
    2042:	0029      	movs	r1, r5
    2044:	f2c0 0000 	movt	r0, #0
    2048:	701a      	strb	r2, [r3, #0]
    204a:	f002 fb5b 	bl	4704 <rt_kprintf>
    204e:	2001      	movs	r0, #1
    2050:	4240      	negs	r0, r0
    2052:	e7b1      	b.n	1fb8 <msh_exec+0x28>
    2054:	68b3      	ldr	r3, [r6, #8]
    2056:	4698      	mov	r8, r3
    2058:	2b00      	cmp	r3, #0
    205a:	d0e9      	beq.n	2030 <msh_exec+0xa0>
    205c:	2220      	movs	r2, #32
    205e:	2100      	movs	r1, #0
    2060:	4668      	mov	r0, sp
    2062:	f002 fe01 	bl	4c68 <memset>
    2066:	466e      	mov	r6, sp
    2068:	46e9      	mov	r9, sp
    206a:	002b      	movs	r3, r5
    206c:	f240 0c01 	movw	ip, #1
    2070:	2200      	movs	r2, #0
    2072:	2000      	movs	r0, #0
    2074:	4661      	mov	r1, ip
    2076:	3901      	subs	r1, #1
    2078:	468a      	mov	sl, r1
    207a:	e003      	b.n	2084 <msh_exec+0xf4>
    207c:	7018      	strb	r0, [r3, #0]
    207e:	785f      	ldrb	r7, [r3, #1]
    2080:	3301      	adds	r3, #1
    2082:	3201      	adds	r2, #1
    2084:	2f20      	cmp	r7, #32
    2086:	d001      	beq.n	208c <msh_exec+0xfc>
    2088:	2f09      	cmp	r7, #9
    208a:	d11e      	bne.n	20ca <msh_exec+0x13a>
    208c:	4294      	cmp	r4, r2
    208e:	d8f5      	bhi.n	207c <msh_exec+0xec>
    2090:	4653      	mov	r3, sl
    2092:	2b08      	cmp	r3, #8
    2094:	d15d      	bne.n	2152 <msh_exec+0x1c2>
    2096:	f645 30f4 	movw	r0, #23540	; 0x5bf4
    209a:	f2c0 0000 	movt	r0, #0
    209e:	f002 fb31 	bl	4704 <rt_kprintf>
    20a2:	ac08      	add	r4, sp, #32
    20a4:	f645 4014 	movw	r0, #23572	; 0x5c14
    20a8:	ce02      	ldmia	r6!, {r1}
    20aa:	f2c0 0000 	movt	r0, #0
    20ae:	f002 fb29 	bl	4704 <rt_kprintf>
    20b2:	42a6      	cmp	r6, r4
    20b4:	d1f6      	bne.n	20a4 <msh_exec+0x114>
    20b6:	f645 408c 	movw	r0, #23692	; 0x5c8c
    20ba:	f2c0 0000 	movt	r0, #0
    20be:	f002 fb21 	bl	4704 <rt_kprintf>
    20c2:	2008      	movs	r0, #8
    20c4:	4669      	mov	r1, sp
    20c6:	47c0      	blx	r8
    20c8:	e776      	b.n	1fb8 <msh_exec+0x28>
    20ca:	4661      	mov	r1, ip
    20cc:	2909      	cmp	r1, #9
    20ce:	d0e2      	beq.n	2096 <msh_exec+0x106>
    20d0:	4294      	cmp	r4, r2
    20d2:	d93e      	bls.n	2152 <msh_exec+0x1c2>
    20d4:	2f22      	cmp	r7, #34	; 0x22
    20d6:	d016      	beq.n	2106 <msh_exec+0x176>
    20d8:	4649      	mov	r1, r9
    20da:	1aa7      	subs	r7, r4, r2
    20dc:	600b      	str	r3, [r1, #0]
    20de:	19df      	adds	r7, r3, r7
    20e0:	42bb      	cmp	r3, r7
    20e2:	d030      	beq.n	2146 <msh_exec+0x1b6>
    20e4:	7859      	ldrb	r1, [r3, #1]
    20e6:	3301      	adds	r3, #1
    20e8:	3201      	adds	r2, #1
    20ea:	2920      	cmp	r1, #32
    20ec:	d001      	beq.n	20f2 <msh_exec+0x162>
    20ee:	2909      	cmp	r1, #9
    20f0:	d1f6      	bne.n	20e0 <msh_exec+0x150>
    20f2:	4294      	cmp	r4, r2
    20f4:	d927      	bls.n	2146 <msh_exec+0x1b6>
    20f6:	781f      	ldrb	r7, [r3, #0]
    20f8:	f240 0a01 	movw	sl, #1
    20fc:	44d4      	add	ip, sl
    20fe:	f240 0a04 	movw	sl, #4
    2102:	44d1      	add	r9, sl
    2104:	e7b6      	b.n	2074 <msh_exec+0xe4>
    2106:	464f      	mov	r7, r9
    2108:	1c59      	adds	r1, r3, #1
    210a:	785b      	ldrb	r3, [r3, #1]
    210c:	3201      	adds	r2, #1
    210e:	6039      	str	r1, [r7, #0]
    2110:	2b22      	cmp	r3, #34	; 0x22
    2112:	d008      	beq.n	2126 <msh_exec+0x196>
    2114:	4294      	cmp	r4, r2
    2116:	d916      	bls.n	2146 <msh_exec+0x1b6>
    2118:	2b5c      	cmp	r3, #92	; 0x5c
    211a:	d00d      	beq.n	2138 <msh_exec+0x1a8>
    211c:	784b      	ldrb	r3, [r1, #1]
    211e:	3101      	adds	r1, #1
    2120:	3201      	adds	r2, #1
    2122:	2b22      	cmp	r3, #34	; 0x22
    2124:	d1f6      	bne.n	2114 <msh_exec+0x184>
    2126:	4294      	cmp	r4, r2
    2128:	d90d      	bls.n	2146 <msh_exec+0x1b6>
    212a:	3201      	adds	r2, #1
    212c:	7008      	strb	r0, [r1, #0]
    212e:	1c4b      	adds	r3, r1, #1
    2130:	4294      	cmp	r4, r2
    2132:	d908      	bls.n	2146 <msh_exec+0x1b6>
    2134:	784f      	ldrb	r7, [r1, #1]
    2136:	e7df      	b.n	20f8 <msh_exec+0x168>
    2138:	784b      	ldrb	r3, [r1, #1]
    213a:	2b22      	cmp	r3, #34	; 0x22
    213c:	d005      	beq.n	214a <msh_exec+0x1ba>
    213e:	3201      	adds	r2, #1
    2140:	3101      	adds	r1, #1
    2142:	4294      	cmp	r4, r2
    2144:	d8e8      	bhi.n	2118 <msh_exec+0x188>
    2146:	4660      	mov	r0, ip
    2148:	e7bc      	b.n	20c4 <msh_exec+0x134>
    214a:	788b      	ldrb	r3, [r1, #2]
    214c:	3201      	adds	r2, #1
    214e:	3101      	adds	r1, #1
    2150:	e7e5      	b.n	211e <msh_exec+0x18e>
    2152:	4650      	mov	r0, sl
    2154:	2800      	cmp	r0, #0
    2156:	d1b5      	bne.n	20c4 <msh_exec+0x134>
    2158:	782f      	ldrb	r7, [r5, #0]
    215a:	002b      	movs	r3, r5
    215c:	2f20      	cmp	r7, #32
    215e:	d100      	bne.n	2162 <msh_exec+0x1d2>
    2160:	e76c      	b.n	203c <msh_exec+0xac>
    2162:	002b      	movs	r3, r5
    2164:	e765      	b.n	2032 <msh_exec+0xa2>
    2166:	46c0      	nop			; (mov r8, r8)

00002168 <msh_auto_complete>:
    2168:	b5f8      	push	{r3, r4, r5, r6, r7, lr}
    216a:	4657      	mov	r7, sl
    216c:	46de      	mov	lr, fp
    216e:	464e      	mov	r6, r9
    2170:	4645      	mov	r5, r8
    2172:	b5e0      	push	{r5, r6, r7, lr}
    2174:	7803      	ldrb	r3, [r0, #0]
    2176:	0007      	movs	r7, r0
    2178:	2b00      	cmp	r3, #0
    217a:	d061      	beq.n	2240 <msh_auto_complete+0xd8>
    217c:	f244 73c8 	movw	r3, #18376	; 0x47c8
    2180:	f244 78cc 	movw	r8, #18380	; 0x47cc
    2184:	f2c2 0300 	movt	r3, #8192	; 0x2000
    2188:	f2c2 0800 	movt	r8, #8192	; 0x2000
    218c:	681d      	ldr	r5, [r3, #0]
    218e:	4643      	mov	r3, r8
    2190:	681b      	ldr	r3, [r3, #0]
    2192:	f240 0900 	movw	r9, #0
    2196:	469b      	mov	fp, r3
    2198:	f240 0a00 	movw	sl, #0
    219c:	429d      	cmp	r5, r3
    219e:	d303      	bcc.n	21a8 <msh_auto_complete+0x40>
    21a0:	e048      	b.n	2234 <msh_auto_complete+0xcc>
    21a2:	350c      	adds	r5, #12
    21a4:	455d      	cmp	r5, fp
    21a6:	d23e      	bcs.n	2226 <msh_auto_complete+0xbe>
    21a8:	f645 31e0 	movw	r1, #23520	; 0x5be0
    21ac:	682c      	ldr	r4, [r5, #0]
    21ae:	2206      	movs	r2, #6
    21b0:	0020      	movs	r0, r4
    21b2:	f2c0 0100 	movt	r1, #0
    21b6:	f002 fdd3 	bl	4d60 <strncmp>
    21ba:	2800      	cmp	r0, #0
    21bc:	d1f1      	bne.n	21a2 <msh_auto_complete+0x3a>
    21be:	0038      	movs	r0, r7
    21c0:	f002 fda2 	bl	4d08 <strlen>
    21c4:	3406      	adds	r4, #6
    21c6:	0002      	movs	r2, r0
    21c8:	0021      	movs	r1, r4
    21ca:	0038      	movs	r0, r7
    21cc:	f002 fdc8 	bl	4d60 <strncmp>
    21d0:	0006      	movs	r6, r0
    21d2:	2800      	cmp	r0, #0
    21d4:	d1e5      	bne.n	21a2 <msh_auto_complete+0x3a>
    21d6:	4653      	mov	r3, sl
    21d8:	b923      	cbnz	r3, 21e4 <msh_auto_complete+0x7c>
    21da:	0020      	movs	r0, r4
    21dc:	f002 fd94 	bl	4d08 <strlen>
    21e0:	46a1      	mov	r9, r4
    21e2:	4682      	mov	sl, r0
    21e4:	464b      	mov	r3, r9
    21e6:	781b      	ldrb	r3, [r3, #0]
    21e8:	0021      	movs	r1, r4
    21ea:	464a      	mov	r2, r9
    21ec:	b933      	cbnz	r3, 21fc <msh_auto_complete+0x94>
    21ee:	e00a      	b.n	2206 <msh_auto_complete+0x9e>
    21f0:	4298      	cmp	r0, r3
    21f2:	d106      	bne.n	2202 <msh_auto_complete+0x9a>
    21f4:	7853      	ldrb	r3, [r2, #1]
    21f6:	3201      	adds	r2, #1
    21f8:	3101      	adds	r1, #1
    21fa:	b113      	cbz	r3, 2202 <msh_auto_complete+0x9a>
    21fc:	7808      	ldrb	r0, [r1, #0]
    21fe:	2800      	cmp	r0, #0
    2200:	d1f6      	bne.n	21f0 <msh_auto_complete+0x88>
    2202:	464b      	mov	r3, r9
    2204:	1ad6      	subs	r6, r2, r3
    2206:	45b2      	cmp	sl, r6
    2208:	dd00      	ble.n	220c <msh_auto_complete+0xa4>
    220a:	46b2      	mov	sl, r6
    220c:	f645 30f0 	movw	r0, #23536	; 0x5bf0
    2210:	0021      	movs	r1, r4
    2212:	f2c0 0000 	movt	r0, #0
    2216:	f002 fa75 	bl	4704 <rt_kprintf>
    221a:	4643      	mov	r3, r8
    221c:	681b      	ldr	r3, [r3, #0]
    221e:	350c      	adds	r5, #12
    2220:	469b      	mov	fp, r3
    2222:	455d      	cmp	r5, fp
    2224:	d3c0      	bcc.n	21a8 <msh_auto_complete+0x40>
    2226:	464b      	mov	r3, r9
    2228:	b123      	cbz	r3, 2234 <msh_auto_complete+0xcc>
    222a:	4652      	mov	r2, sl
    222c:	4649      	mov	r1, r9
    222e:	0038      	movs	r0, r7
    2230:	f001 ffa8 	bl	4184 <rt_strncpy>
    2234:	bcf0      	pop	{r4, r5, r6, r7}
    2236:	46bb      	mov	fp, r7
    2238:	46b2      	mov	sl, r6
    223a:	46a9      	mov	r9, r5
    223c:	46a0      	mov	r8, r4
    223e:	bdf8      	pop	{r3, r4, r5, r6, r7, pc}
    2240:	f645 30c4 	movw	r0, #23492	; 0x5bc4
    2244:	f2c0 0000 	movt	r0, #0
    2248:	f002 fa5c 	bl	4704 <rt_kprintf>
    224c:	f244 78cc 	movw	r8, #18380	; 0x47cc
    2250:	f244 73c8 	movw	r3, #18376	; 0x47c8
    2254:	f2c2 0800 	movt	r8, #8192	; 0x2000
    2258:	f2c2 0300 	movt	r3, #8192	; 0x2000
    225c:	681c      	ldr	r4, [r3, #0]
    225e:	4643      	mov	r3, r8
    2260:	681e      	ldr	r6, [r3, #0]
    2262:	42a6      	cmp	r6, r4
    2264:	d916      	bls.n	2294 <msh_auto_complete+0x12c>
    2266:	f645 31e0 	movw	r1, #23520	; 0x5be0
    226a:	6825      	ldr	r5, [r4, #0]
    226c:	2206      	movs	r2, #6
    226e:	0028      	movs	r0, r5
    2270:	f2c0 0100 	movt	r1, #0
    2274:	f002 fd74 	bl	4d60 <strncmp>
    2278:	b998      	cbnz	r0, 22a2 <msh_auto_complete+0x13a>
    227a:	f645 30e8 	movw	r0, #23528	; 0x5be8
    227e:	6862      	ldr	r2, [r4, #4]
    2280:	1da9      	adds	r1, r5, #6
    2282:	f2c0 0000 	movt	r0, #0
    2286:	f002 fa3d 	bl	4704 <rt_kprintf>
    228a:	4643      	mov	r3, r8
    228c:	681e      	ldr	r6, [r3, #0]
    228e:	340c      	adds	r4, #12
    2290:	42b4      	cmp	r4, r6
    2292:	d3e8      	bcc.n	2266 <msh_auto_complete+0xfe>
    2294:	f645 408c 	movw	r0, #23692	; 0x5c8c
    2298:	f2c0 0000 	movt	r0, #0
    229c:	f002 fa32 	bl	4704 <rt_kprintf>
    22a0:	e7c8      	b.n	2234 <msh_auto_complete+0xcc>
    22a2:	340c      	adds	r4, #12
    22a4:	42b4      	cmp	r4, r6
    22a6:	d3de      	bcc.n	2266 <msh_auto_complete+0xfe>
    22a8:	e7f4      	b.n	2294 <msh_auto_complete+0x12c>
    22aa:	46c0      	nop			; (mov r8, r8)
    22ac:	20ff      	movs	r0, #255	; 0xff
    22ae:	4770      	bx	lr

000022b0 <hello>:
    22b0:	f645 407c 	movw	r0, #23676	; 0x5c7c
    22b4:	b510      	push	{r4, lr}
    22b6:	f2c0 0000 	movt	r0, #0
    22ba:	f002 fa23 	bl	4704 <rt_kprintf>
    22be:	2000      	movs	r0, #0
    22c0:	bd10      	pop	{r4, pc}
    22c2:	46c0      	nop			; (mov r8, r8)

000022c4 <version>:
    22c4:	b510      	push	{r4, lr}
    22c6:	f002 fa33 	bl	4730 <rt_show_version>
    22ca:	2000      	movs	r0, #0
    22cc:	bd10      	pop	{r4, pc}
    22ce:	46c0      	nop			; (mov r8, r8)

000022d0 <list>:
    22d0:	f645 4090 	movw	r0, #23696	; 0x5c90
    22d4:	b570      	push	{r4, r5, r6, lr}
    22d6:	f2c0 0000 	movt	r0, #0
    22da:	f002 fa13 	bl	4704 <rt_kprintf>
    22de:	f244 75cc 	movw	r5, #18380	; 0x47cc
    22e2:	f244 73c8 	movw	r3, #18376	; 0x47c8
    22e6:	f2c2 0500 	movt	r5, #8192	; 0x2000
    22ea:	f2c2 0300 	movt	r3, #8192	; 0x2000
    22ee:	681c      	ldr	r4, [r3, #0]
    22f0:	682a      	ldr	r2, [r5, #0]
    22f2:	4294      	cmp	r4, r2
    22f4:	d209      	bcs.n	230a <list+0x3a>
    22f6:	6821      	ldr	r1, [r4, #0]
    22f8:	780b      	ldrb	r3, [r1, #0]
    22fa:	2b5f      	cmp	r3, #95	; 0x5f
    22fc:	d107      	bne.n	230e <list+0x3e>
    22fe:	784b      	ldrb	r3, [r1, #1]
    2300:	2b5f      	cmp	r3, #95	; 0x5f
    2302:	d104      	bne.n	230e <list+0x3e>
    2304:	340c      	adds	r4, #12
    2306:	4294      	cmp	r4, r2
    2308:	d3f5      	bcc.n	22f6 <list+0x26>
    230a:	2000      	movs	r0, #0
    230c:	bd70      	pop	{r4, r5, r6, pc}
    230e:	f645 40a4 	movw	r0, #23716	; 0x5ca4
    2312:	6862      	ldr	r2, [r4, #4]
    2314:	f2c0 0000 	movt	r0, #0
    2318:	f002 f9f4 	bl	4704 <rt_kprintf>
    231c:	682a      	ldr	r2, [r5, #0]
    231e:	340c      	adds	r4, #12
    2320:	4294      	cmp	r4, r2
    2322:	d3e8      	bcc.n	22f6 <list+0x26>
    2324:	e7f1      	b.n	230a <list+0x3a>
    2326:	46c0      	nop			; (mov r8, r8)

00002328 <list_thread>:
    2328:	b5f0      	push	{r4, r5, r6, r7, lr}
    232a:	46ce      	mov	lr, r9
    232c:	4647      	mov	r7, r8
    232e:	b580      	push	{r7, lr}
    2330:	2001      	movs	r0, #1
    2332:	b08b      	sub	sp, #44	; 0x2c
    2334:	f000 fad8 	bl	28e8 <rt_object_get_information>
    2338:	f645 42b4 	movw	r2, #23732	; 0x5cb4
    233c:	1d03      	adds	r3, r0, #4
    233e:	f645 40bc 	movw	r0, #23740	; 0x5cbc
    2342:	2108      	movs	r1, #8
    2344:	f2c0 0200 	movt	r2, #0
    2348:	f2c0 0000 	movt	r0, #0
    234c:	4698      	mov	r8, r3
    234e:	2408      	movs	r4, #8
    2350:	f002 f9d8 	bl	4704 <rt_kprintf>
    2354:	f645 5000 	movw	r0, #23808	; 0x5d00
    2358:	3c01      	subs	r4, #1
    235a:	f2c0 0000 	movt	r0, #0
    235e:	f002 f9d1 	bl	4704 <rt_kprintf>
    2362:	2c00      	cmp	r4, #0
    2364:	d1f6      	bne.n	2354 <list_thread+0x2c>
    2366:	f645 5004 	movw	r0, #23812	; 0x5d04
    236a:	f2c0 0000 	movt	r0, #0
    236e:	f002 f9c9 	bl	4704 <rt_kprintf>
    2372:	46c1      	mov	r9, r8
    2374:	f002 fb80 	bl	4a78 <rt_hw_interrupt_disable>
    2378:	464b      	mov	r3, r9
    237a:	681b      	ldr	r3, [r3, #0]
    237c:	4598      	cmp	r8, r3
    237e:	d100      	bne.n	2382 <list_thread+0x5a>
    2380:	e081      	b.n	2486 <list_thread+0x15e>
    2382:	9302      	str	r3, [sp, #8]
    2384:	681b      	ldr	r3, [r3, #0]
    2386:	4598      	cmp	r8, r3
    2388:	d100      	bne.n	238c <list_thread+0x64>
    238a:	e0ac      	b.n	24e6 <list_thread+0x1be>
    238c:	9303      	str	r3, [sp, #12]
    238e:	681b      	ldr	r3, [r3, #0]
    2390:	4598      	cmp	r8, r3
    2392:	d100      	bne.n	2396 <list_thread+0x6e>
    2394:	e0ad      	b.n	24f2 <list_thread+0x1ca>
    2396:	9304      	str	r3, [sp, #16]
    2398:	681b      	ldr	r3, [r3, #0]
    239a:	4598      	cmp	r8, r3
    239c:	d100      	bne.n	23a0 <list_thread+0x78>
    239e:	e0ae      	b.n	24fe <list_thread+0x1d6>
    23a0:	9305      	str	r3, [sp, #20]
    23a2:	681b      	ldr	r3, [r3, #0]
    23a4:	4598      	cmp	r8, r3
    23a6:	d100      	bne.n	23aa <list_thread+0x82>
    23a8:	e0b5      	b.n	2516 <list_thread+0x1ee>
    23aa:	9306      	str	r3, [sp, #24]
    23ac:	681b      	ldr	r3, [r3, #0]
    23ae:	4598      	cmp	r8, r3
    23b0:	d100      	bne.n	23b4 <list_thread+0x8c>
    23b2:	e0aa      	b.n	250a <list_thread+0x1e2>
    23b4:	9307      	str	r3, [sp, #28]
    23b6:	681b      	ldr	r3, [r3, #0]
    23b8:	4598      	cmp	r8, r3
    23ba:	d100      	bne.n	23be <list_thread+0x96>
    23bc:	e0b1      	b.n	2522 <list_thread+0x1fa>
    23be:	9308      	str	r3, [sp, #32]
    23c0:	681b      	ldr	r3, [r3, #0]
    23c2:	4699      	mov	r9, r3
    23c4:	4598      	cmp	r8, r3
    23c6:	d100      	bne.n	23ca <list_thread+0xa2>
    23c8:	e0b1      	b.n	252e <list_thread+0x206>
    23ca:	9309      	str	r3, [sp, #36]	; 0x24
    23cc:	2708      	movs	r7, #8
    23ce:	f002 fb57 	bl	4a80 <rt_hw_interrupt_enable>
    23d2:	2500      	movs	r5, #0
    23d4:	ae02      	add	r6, sp, #8
    23d6:	e005      	b.n	23e4 <list_thread+0xbc>
    23d8:	3501      	adds	r5, #1
    23da:	f002 fb51 	bl	4a80 <rt_hw_interrupt_enable>
    23de:	3604      	adds	r6, #4
    23e0:	42bd      	cmp	r5, r7
    23e2:	da44      	bge.n	246e <list_thread+0x146>
    23e4:	6834      	ldr	r4, [r6, #0]
    23e6:	f002 fb47 	bl	4a78 <rt_hw_interrupt_disable>
    23ea:	2280      	movs	r2, #128	; 0x80
    23ec:	3c0c      	subs	r4, #12
    23ee:	7a23      	ldrb	r3, [r4, #8]
    23f0:	4393      	bics	r3, r2
    23f2:	2b01      	cmp	r3, #1
    23f4:	d1f0      	bne.n	23d8 <list_thread+0xb0>
    23f6:	f002 fb43 	bl	4a80 <rt_hw_interrupt_enable>
    23fa:	2335      	movs	r3, #53	; 0x35
    23fc:	f645 5044 	movw	r0, #23876	; 0x5d44
    2400:	5ce3      	ldrb	r3, [r4, r3]
    2402:	2208      	movs	r2, #8
    2404:	9300      	str	r3, [sp, #0]
    2406:	2108      	movs	r1, #8
    2408:	0023      	movs	r3, r4
    240a:	f2c0 0000 	movt	r0, #0
    240e:	f002 f979 	bl	4704 <rt_kprintf>
    2412:	2334      	movs	r3, #52	; 0x34
    2414:	5ce2      	ldrb	r2, [r4, r3]
    2416:	3b25      	subs	r3, #37	; 0x25
    2418:	4013      	ands	r3, r2
    241a:	2b01      	cmp	r3, #1
    241c:	d047      	beq.n	24ae <list_thread+0x186>
    241e:	2b02      	cmp	r3, #2
    2420:	d04c      	beq.n	24bc <list_thread+0x194>
    2422:	2b00      	cmp	r3, #0
    2424:	d037      	beq.n	2496 <list_thread+0x16e>
    2426:	2b04      	cmp	r3, #4
    2428:	d04f      	beq.n	24ca <list_thread+0x1a2>
    242a:	2b03      	cmp	r3, #3
    242c:	d054      	beq.n	24d8 <list_thread+0x1b0>
    242e:	6aa1      	ldr	r1, [r4, #40]	; 0x28
    2430:	780b      	ldrb	r3, [r1, #0]
    2432:	2b23      	cmp	r3, #35	; 0x23
    2434:	d139      	bne.n	24aa <list_thread+0x182>
    2436:	000b      	movs	r3, r1
    2438:	785a      	ldrb	r2, [r3, #1]
    243a:	3301      	adds	r3, #1
    243c:	2a23      	cmp	r2, #35	; 0x23
    243e:	d0fb      	beq.n	2438 <list_thread+0x110>
    2440:	2064      	movs	r0, #100	; 0x64
    2442:	6ae2      	ldr	r2, [r4, #44]	; 0x2c
    2444:	3501      	adds	r5, #1
    2446:	1889      	adds	r1, r1, r2
    2448:	1acb      	subs	r3, r1, r3
    244a:	4343      	muls	r3, r0
    244c:	69e0      	ldr	r0, [r4, #28]
    244e:	fbb3 f3f2 	udiv	r3, r3, r2
    2452:	1a09      	subs	r1, r1, r0
    2454:	6b20      	ldr	r0, [r4, #48]	; 0x30
    2456:	3604      	adds	r6, #4
    2458:	9001      	str	r0, [sp, #4]
    245a:	6c20      	ldr	r0, [r4, #64]	; 0x40
    245c:	9000      	str	r0, [sp, #0]
    245e:	f645 508c 	movw	r0, #23948	; 0x5d8c
    2462:	f2c0 0000 	movt	r0, #0
    2466:	f002 f94d 	bl	4704 <rt_kprintf>
    246a:	42bd      	cmp	r5, r7
    246c:	dbba      	blt.n	23e4 <list_thread+0xbc>
    246e:	464b      	mov	r3, r9
    2470:	b15b      	cbz	r3, 248a <list_thread+0x162>
    2472:	f002 fb01 	bl	4a78 <rt_hw_interrupt_disable>
    2476:	464b      	mov	r3, r9
    2478:	2280      	movs	r2, #128	; 0x80
    247a:	3b0c      	subs	r3, #12
    247c:	7a1b      	ldrb	r3, [r3, #8]
    247e:	4393      	bics	r3, r2
    2480:	2b01      	cmp	r3, #1
    2482:	d100      	bne.n	2486 <list_thread+0x15e>
    2484:	e778      	b.n	2378 <list_thread+0x50>
    2486:	f002 fafb 	bl	4a80 <rt_hw_interrupt_enable>
    248a:	2000      	movs	r0, #0
    248c:	b00b      	add	sp, #44	; 0x2c
    248e:	bcc0      	pop	{r6, r7}
    2490:	46b9      	mov	r9, r7
    2492:	46b0      	mov	r8, r6
    2494:	bdf0      	pop	{r4, r5, r6, r7, pc}
    2496:	f645 5068 	movw	r0, #23912	; 0x5d68
    249a:	f2c0 0000 	movt	r0, #0
    249e:	f002 f931 	bl	4704 <rt_kprintf>
    24a2:	6aa1      	ldr	r1, [r4, #40]	; 0x28
    24a4:	780b      	ldrb	r3, [r1, #0]
    24a6:	2b23      	cmp	r3, #35	; 0x23
    24a8:	d0c5      	beq.n	2436 <list_thread+0x10e>
    24aa:	000b      	movs	r3, r1
    24ac:	e7c8      	b.n	2440 <list_thread+0x118>
    24ae:	f645 5050 	movw	r0, #23888	; 0x5d50
    24b2:	f2c0 0000 	movt	r0, #0
    24b6:	f002 f925 	bl	4704 <rt_kprintf>
    24ba:	e7b8      	b.n	242e <list_thread+0x106>
    24bc:	f645 505c 	movw	r0, #23900	; 0x5d5c
    24c0:	f2c0 0000 	movt	r0, #0
    24c4:	f002 f91e 	bl	4704 <rt_kprintf>
    24c8:	e7b1      	b.n	242e <list_thread+0x106>
    24ca:	f645 5074 	movw	r0, #23924	; 0x5d74
    24ce:	f2c0 0000 	movt	r0, #0
    24d2:	f002 f917 	bl	4704 <rt_kprintf>
    24d6:	e7aa      	b.n	242e <list_thread+0x106>
    24d8:	f645 5080 	movw	r0, #23936	; 0x5d80
    24dc:	f2c0 0000 	movt	r0, #0
    24e0:	f002 f910 	bl	4704 <rt_kprintf>
    24e4:	e7a3      	b.n	242e <list_thread+0x106>
    24e6:	f002 facb 	bl	4a80 <rt_hw_interrupt_enable>
    24ea:	f240 0900 	movw	r9, #0
    24ee:	2701      	movs	r7, #1
    24f0:	e76f      	b.n	23d2 <list_thread+0xaa>
    24f2:	f002 fac5 	bl	4a80 <rt_hw_interrupt_enable>
    24f6:	f240 0900 	movw	r9, #0
    24fa:	2702      	movs	r7, #2
    24fc:	e769      	b.n	23d2 <list_thread+0xaa>
    24fe:	f002 fabf 	bl	4a80 <rt_hw_interrupt_enable>
    2502:	f240 0900 	movw	r9, #0
    2506:	2703      	movs	r7, #3
    2508:	e763      	b.n	23d2 <list_thread+0xaa>
    250a:	f002 fab9 	bl	4a80 <rt_hw_interrupt_enable>
    250e:	f240 0900 	movw	r9, #0
    2512:	2705      	movs	r7, #5
    2514:	e75d      	b.n	23d2 <list_thread+0xaa>
    2516:	f002 fab3 	bl	4a80 <rt_hw_interrupt_enable>
    251a:	f240 0900 	movw	r9, #0
    251e:	2704      	movs	r7, #4
    2520:	e757      	b.n	23d2 <list_thread+0xaa>
    2522:	f002 faad 	bl	4a80 <rt_hw_interrupt_enable>
    2526:	f240 0900 	movw	r9, #0
    252a:	2706      	movs	r7, #6
    252c:	e751      	b.n	23d2 <list_thread+0xaa>
    252e:	f002 faa7 	bl	4a80 <rt_hw_interrupt_enable>
    2532:	f240 0900 	movw	r9, #0
    2536:	2707      	movs	r7, #7
    2538:	e74b      	b.n	23d2 <list_thread+0xaa>
    253a:	46c0      	nop			; (mov r8, r8)

0000253c <list_timer>:
    253c:	b5f0      	push	{r4, r5, r6, r7, lr}
    253e:	46d6      	mov	lr, sl
    2540:	4646      	mov	r6, r8
    2542:	464f      	mov	r7, r9
    2544:	b5c0      	push	{r6, r7, lr}
    2546:	200a      	movs	r0, #10
    2548:	b08a      	sub	sp, #40	; 0x28
    254a:	f000 f9cd 	bl	28e8 <rt_object_get_information>
    254e:	f645 52b4 	movw	r2, #23988	; 0x5db4
    2552:	1d03      	adds	r3, r0, #4
    2554:	f645 50bc 	movw	r0, #23996	; 0x5dbc
    2558:	2108      	movs	r1, #8
    255a:	f2c0 0200 	movt	r2, #0
    255e:	f2c0 0000 	movt	r0, #0
    2562:	4698      	mov	r8, r3
    2564:	2408      	movs	r4, #8
    2566:	f002 f8cd 	bl	4704 <rt_kprintf>
    256a:	f645 5000 	movw	r0, #23808	; 0x5d00
    256e:	3c01      	subs	r4, #1
    2570:	f2c0 0000 	movt	r0, #0
    2574:	f002 f8c6 	bl	4704 <rt_kprintf>
    2578:	2c00      	cmp	r4, #0
    257a:	d1f6      	bne.n	256a <list_timer+0x2e>
    257c:	f645 50e4 	movw	r0, #24036	; 0x5de4
    2580:	f2c0 0000 	movt	r0, #0
    2584:	f002 f8be 	bl	4704 <rt_kprintf>
    2588:	46c2      	mov	sl, r8
    258a:	f002 fa75 	bl	4a78 <rt_hw_interrupt_disable>
    258e:	f240 0901 	movw	r9, #1
    2592:	4653      	mov	r3, sl
    2594:	681b      	ldr	r3, [r3, #0]
    2596:	4598      	cmp	r8, r3
    2598:	d061      	beq.n	265e <list_timer+0x122>
    259a:	9302      	str	r3, [sp, #8]
    259c:	681b      	ldr	r3, [r3, #0]
    259e:	4598      	cmp	r8, r3
    25a0:	d100      	bne.n	25a4 <list_timer+0x68>
    25a2:	e075      	b.n	2690 <list_timer+0x154>
    25a4:	9303      	str	r3, [sp, #12]
    25a6:	681b      	ldr	r3, [r3, #0]
    25a8:	4598      	cmp	r8, r3
    25aa:	d100      	bne.n	25ae <list_timer+0x72>
    25ac:	e076      	b.n	269c <list_timer+0x160>
    25ae:	9304      	str	r3, [sp, #16]
    25b0:	681b      	ldr	r3, [r3, #0]
    25b2:	4598      	cmp	r8, r3
    25b4:	d100      	bne.n	25b8 <list_timer+0x7c>
    25b6:	e077      	b.n	26a8 <list_timer+0x16c>
    25b8:	9305      	str	r3, [sp, #20]
    25ba:	681b      	ldr	r3, [r3, #0]
    25bc:	4598      	cmp	r8, r3
    25be:	d100      	bne.n	25c2 <list_timer+0x86>
    25c0:	e078      	b.n	26b4 <list_timer+0x178>
    25c2:	9306      	str	r3, [sp, #24]
    25c4:	681b      	ldr	r3, [r3, #0]
    25c6:	4598      	cmp	r8, r3
    25c8:	d100      	bne.n	25cc <list_timer+0x90>
    25ca:	e079      	b.n	26c0 <list_timer+0x184>
    25cc:	9307      	str	r3, [sp, #28]
    25ce:	681b      	ldr	r3, [r3, #0]
    25d0:	4598      	cmp	r8, r3
    25d2:	d100      	bne.n	25d6 <list_timer+0x9a>
    25d4:	e07a      	b.n	26cc <list_timer+0x190>
    25d6:	9308      	str	r3, [sp, #32]
    25d8:	681b      	ldr	r3, [r3, #0]
    25da:	469a      	mov	sl, r3
    25dc:	4598      	cmp	r8, r3
    25de:	d100      	bne.n	25e2 <list_timer+0xa6>
    25e0:	e07a      	b.n	26d8 <list_timer+0x19c>
    25e2:	9309      	str	r3, [sp, #36]	; 0x24
    25e4:	2708      	movs	r7, #8
    25e6:	f002 fa4b 	bl	4a80 <rt_hw_interrupt_enable>
    25ea:	2500      	movs	r5, #0
    25ec:	ae02      	add	r6, sp, #8
    25ee:	e005      	b.n	25fc <list_timer+0xc0>
    25f0:	f002 fa46 	bl	4a80 <rt_hw_interrupt_enable>
    25f4:	3501      	adds	r5, #1
    25f6:	3604      	adds	r6, #4
    25f8:	42bd      	cmp	r5, r7
    25fa:	da25      	bge.n	2648 <list_timer+0x10c>
    25fc:	6834      	ldr	r4, [r6, #0]
    25fe:	f002 fa3b 	bl	4a78 <rt_hw_interrupt_disable>
    2602:	2280      	movs	r2, #128	; 0x80
    2604:	3c0c      	subs	r4, #12
    2606:	7a23      	ldrb	r3, [r4, #8]
    2608:	4393      	bics	r3, r2
    260a:	2b0a      	cmp	r3, #10
    260c:	d1f0      	bne.n	25f0 <list_timer+0xb4>
    260e:	f002 fa37 	bl	4a80 <rt_hw_interrupt_enable>
    2612:	f645 6008 	movw	r0, #24072	; 0x5e08
    2616:	6aa3      	ldr	r3, [r4, #40]	; 0x28
    2618:	2208      	movs	r2, #8
    261a:	9301      	str	r3, [sp, #4]
    261c:	6a63      	ldr	r3, [r4, #36]	; 0x24
    261e:	2108      	movs	r1, #8
    2620:	9300      	str	r3, [sp, #0]
    2622:	f2c0 0000 	movt	r0, #0
    2626:	0023      	movs	r3, r4
    2628:	f002 f86c 	bl	4704 <rt_kprintf>
    262c:	464a      	mov	r2, r9
    262e:	7a63      	ldrb	r3, [r4, #9]
    2630:	421a      	tst	r2, r3
    2632:	d026      	beq.n	2682 <list_timer+0x146>
    2634:	f645 6020 	movw	r0, #24096	; 0x5e20
    2638:	3501      	adds	r5, #1
    263a:	f2c0 0000 	movt	r0, #0
    263e:	f002 f861 	bl	4704 <rt_kprintf>
    2642:	3604      	adds	r6, #4
    2644:	42bd      	cmp	r5, r7
    2646:	dbd9      	blt.n	25fc <list_timer+0xc0>
    2648:	4653      	mov	r3, sl
    264a:	b153      	cbz	r3, 2662 <list_timer+0x126>
    264c:	f002 fa14 	bl	4a78 <rt_hw_interrupt_disable>
    2650:	4653      	mov	r3, sl
    2652:	2280      	movs	r2, #128	; 0x80
    2654:	3b0c      	subs	r3, #12
    2656:	7a1b      	ldrb	r3, [r3, #8]
    2658:	4393      	bics	r3, r2
    265a:	2b0a      	cmp	r3, #10
    265c:	d099      	beq.n	2592 <list_timer+0x56>
    265e:	f002 fa0f 	bl	4a80 <rt_hw_interrupt_enable>
    2662:	f001 f913 	bl	388c <rt_tick_get>
    2666:	0001      	movs	r1, r0
    2668:	f645 603c 	movw	r0, #24124	; 0x5e3c
    266c:	f2c0 0000 	movt	r0, #0
    2670:	f002 f848 	bl	4704 <rt_kprintf>
    2674:	2000      	movs	r0, #0
    2676:	b00a      	add	sp, #40	; 0x28
    2678:	bce0      	pop	{r5, r6, r7}
    267a:	46ba      	mov	sl, r7
    267c:	46b1      	mov	r9, r6
    267e:	46a8      	mov	r8, r5
    2680:	bdf0      	pop	{r4, r5, r6, r7, pc}
    2682:	f645 602c 	movw	r0, #24108	; 0x5e2c
    2686:	f2c0 0000 	movt	r0, #0
    268a:	f002 f83b 	bl	4704 <rt_kprintf>
    268e:	e7b1      	b.n	25f4 <list_timer+0xb8>
    2690:	f002 f9f6 	bl	4a80 <rt_hw_interrupt_enable>
    2694:	f240 0a00 	movw	sl, #0
    2698:	2701      	movs	r7, #1
    269a:	e7a6      	b.n	25ea <list_timer+0xae>
    269c:	f002 f9f0 	bl	4a80 <rt_hw_interrupt_enable>
    26a0:	f240 0a00 	movw	sl, #0
    26a4:	2702      	movs	r7, #2
    26a6:	e7a0      	b.n	25ea <list_timer+0xae>
    26a8:	f002 f9ea 	bl	4a80 <rt_hw_interrupt_enable>
    26ac:	f240 0a00 	movw	sl, #0
    26b0:	2703      	movs	r7, #3
    26b2:	e79a      	b.n	25ea <list_timer+0xae>
    26b4:	f002 f9e4 	bl	4a80 <rt_hw_interrupt_enable>
    26b8:	f240 0a00 	movw	sl, #0
    26bc:	2704      	movs	r7, #4
    26be:	e794      	b.n	25ea <list_timer+0xae>
    26c0:	f002 f9de 	bl	4a80 <rt_hw_interrupt_enable>
    26c4:	f240 0a00 	movw	sl, #0
    26c8:	2705      	movs	r7, #5
    26ca:	e78e      	b.n	25ea <list_timer+0xae>
    26cc:	f002 f9d8 	bl	4a80 <rt_hw_interrupt_enable>
    26d0:	f240 0a00 	movw	sl, #0
    26d4:	2706      	movs	r7, #6
    26d6:	e788      	b.n	25ea <list_timer+0xae>
    26d8:	f002 f9d2 	bl	4a80 <rt_hw_interrupt_enable>
    26dc:	f240 0a00 	movw	sl, #0
    26e0:	2707      	movs	r7, #7
    26e2:	e782      	b.n	25ea <list_timer+0xae>

000026e4 <list_sem>:
    26e4:	b5f0      	push	{r4, r5, r6, r7, lr}
    26e6:	46de      	mov	lr, fp
    26e8:	4657      	mov	r7, sl
    26ea:	464e      	mov	r6, r9
    26ec:	4645      	mov	r5, r8
    26ee:	b5e0      	push	{r5, r6, r7, lr}
    26f0:	2002      	movs	r0, #2
    26f2:	b08b      	sub	sp, #44	; 0x2c
    26f4:	f000 f8f8 	bl	28e8 <rt_object_get_information>
    26f8:	f645 6254 	movw	r2, #24148	; 0x5e54
    26fc:	1d03      	adds	r3, r0, #4
    26fe:	f645 6060 	movw	r0, #24160	; 0x5e60
    2702:	2108      	movs	r1, #8
    2704:	f2c0 0200 	movt	r2, #0
    2708:	f2c0 0000 	movt	r0, #0
    270c:	469a      	mov	sl, r3
    270e:	2408      	movs	r4, #8
    2710:	f001 fff8 	bl	4704 <rt_kprintf>
    2714:	f645 5000 	movw	r0, #23808	; 0x5d00
    2718:	3c01      	subs	r4, #1
    271a:	f2c0 0000 	movt	r0, #0
    271e:	f001 fff1 	bl	4704 <rt_kprintf>
    2722:	2c00      	cmp	r4, #0
    2724:	d1f6      	bne.n	2714 <list_sem+0x30>
    2726:	f645 607c 	movw	r0, #24188	; 0x5e7c
    272a:	f2c0 0000 	movt	r0, #0
    272e:	f001 ffe9 	bl	4704 <rt_kprintf>
    2732:	46d3      	mov	fp, sl
    2734:	f002 f9a0 	bl	4a78 <rt_hw_interrupt_disable>
    2738:	465b      	mov	r3, fp
    273a:	681b      	ldr	r3, [r3, #0]
    273c:	459a      	cmp	sl, r3
    273e:	d100      	bne.n	2742 <list_sem+0x5e>
    2740:	e085      	b.n	284e <list_sem+0x16a>
    2742:	9302      	str	r3, [sp, #8]
    2744:	681b      	ldr	r3, [r3, #0]
    2746:	4553      	cmp	r3, sl
    2748:	d100      	bne.n	274c <list_sem+0x68>
    274a:	e099      	b.n	2880 <list_sem+0x19c>
    274c:	9303      	str	r3, [sp, #12]
    274e:	681b      	ldr	r3, [r3, #0]
    2750:	459a      	cmp	sl, r3
    2752:	d100      	bne.n	2756 <list_sem+0x72>
    2754:	e09b      	b.n	288e <list_sem+0x1aa>
    2756:	9304      	str	r3, [sp, #16]
    2758:	681b      	ldr	r3, [r3, #0]
    275a:	459a      	cmp	sl, r3
    275c:	d100      	bne.n	2760 <list_sem+0x7c>
    275e:	e09d      	b.n	289c <list_sem+0x1b8>
    2760:	9305      	str	r3, [sp, #20]
    2762:	681b      	ldr	r3, [r3, #0]
    2764:	459a      	cmp	sl, r3
    2766:	d100      	bne.n	276a <list_sem+0x86>
    2768:	e0a6      	b.n	28b8 <list_sem+0x1d4>
    276a:	9306      	str	r3, [sp, #24]
    276c:	681b      	ldr	r3, [r3, #0]
    276e:	459a      	cmp	sl, r3
    2770:	d100      	bne.n	2774 <list_sem+0x90>
    2772:	e09a      	b.n	28aa <list_sem+0x1c6>
    2774:	9307      	str	r3, [sp, #28]
    2776:	681b      	ldr	r3, [r3, #0]
    2778:	459a      	cmp	sl, r3
    277a:	d100      	bne.n	277e <list_sem+0x9a>
    277c:	e0aa      	b.n	28d4 <list_sem+0x1f0>
    277e:	9308      	str	r3, [sp, #32]
    2780:	681b      	ldr	r3, [r3, #0]
    2782:	469b      	mov	fp, r3
    2784:	459a      	cmp	sl, r3
    2786:	d100      	bne.n	278a <list_sem+0xa6>
    2788:	e09d      	b.n	28c6 <list_sem+0x1e2>
    278a:	9309      	str	r3, [sp, #36]	; 0x24
    278c:	f240 0908 	movw	r9, #8
    2790:	f002 f976 	bl	4a80 <rt_hw_interrupt_enable>
    2794:	2600      	movs	r6, #0
    2796:	af02      	add	r7, sp, #8
    2798:	e005      	b.n	27a6 <list_sem+0xc2>
    279a:	f002 f971 	bl	4a80 <rt_hw_interrupt_enable>
    279e:	3601      	adds	r6, #1
    27a0:	3704      	adds	r7, #4
    27a2:	454e      	cmp	r6, r9
    27a4:	da47      	bge.n	2836 <list_sem+0x152>
    27a6:	683d      	ldr	r5, [r7, #0]
    27a8:	f002 f966 	bl	4a78 <rt_hw_interrupt_disable>
    27ac:	230c      	movs	r3, #12
    27ae:	425b      	negs	r3, r3
    27b0:	4698      	mov	r8, r3
    27b2:	44a8      	add	r8, r5
    27b4:	4643      	mov	r3, r8
    27b6:	2280      	movs	r2, #128	; 0x80
    27b8:	7a1b      	ldrb	r3, [r3, #8]
    27ba:	4393      	bics	r3, r2
    27bc:	2b02      	cmp	r3, #2
    27be:	d1ec      	bne.n	279a <list_sem+0xb6>
    27c0:	f002 f95e 	bl	4a80 <rt_hw_interrupt_enable>
    27c4:	002a      	movs	r2, r5
    27c6:	68ac      	ldr	r4, [r5, #8]
    27c8:	3208      	adds	r2, #8
    27ca:	42a2      	cmp	r2, r4
    27cc:	d049      	beq.n	2862 <list_sem+0x17e>
    27ce:	4643      	mov	r3, r8
    27d0:	8b99      	ldrh	r1, [r3, #28]
    27d2:	2300      	movs	r3, #0
    27d4:	6824      	ldr	r4, [r4, #0]
    27d6:	3301      	adds	r3, #1
    27d8:	42a2      	cmp	r2, r4
    27da:	d1fb      	bne.n	27d4 <list_sem+0xf0>
    27dc:	f645 6094 	movw	r0, #24212	; 0x5e94
    27e0:	9301      	str	r3, [sp, #4]
    27e2:	9100      	str	r1, [sp, #0]
    27e4:	4643      	mov	r3, r8
    27e6:	2208      	movs	r2, #8
    27e8:	2108      	movs	r1, #8
    27ea:	f2c0 0000 	movt	r0, #0
    27ee:	f001 ff89 	bl	4704 <rt_kprintf>
    27f2:	68ad      	ldr	r5, [r5, #8]
    27f4:	42ac      	cmp	r4, r5
    27f6:	d109      	bne.n	280c <list_sem+0x128>
    27f8:	e013      	b.n	2822 <list_sem+0x13e>
    27fa:	f645 60a4 	movw	r0, #24228	; 0x5ea4
    27fe:	f2c0 0000 	movt	r0, #0
    2802:	f001 ff7f 	bl	4704 <rt_kprintf>
    2806:	682d      	ldr	r5, [r5, #0]
    2808:	42ac      	cmp	r4, r5
    280a:	d00a      	beq.n	2822 <list_sem+0x13e>
    280c:	0029      	movs	r1, r5
    280e:	f645 30c0 	movw	r0, #23488	; 0x5bc0
    2812:	3914      	subs	r1, #20
    2814:	f2c0 0000 	movt	r0, #0
    2818:	f001 ff74 	bl	4704 <rt_kprintf>
    281c:	682b      	ldr	r3, [r5, #0]
    281e:	429c      	cmp	r4, r3
    2820:	d1eb      	bne.n	27fa <list_sem+0x116>
    2822:	f645 408c 	movw	r0, #23692	; 0x5c8c
    2826:	3601      	adds	r6, #1
    2828:	f2c0 0000 	movt	r0, #0
    282c:	f001 ff6a 	bl	4704 <rt_kprintf>
    2830:	3704      	adds	r7, #4
    2832:	454e      	cmp	r6, r9
    2834:	dbb7      	blt.n	27a6 <list_sem+0xc2>
    2836:	465b      	mov	r3, fp
    2838:	b15b      	cbz	r3, 2852 <list_sem+0x16e>
    283a:	f002 f91d 	bl	4a78 <rt_hw_interrupt_disable>
    283e:	465b      	mov	r3, fp
    2840:	2280      	movs	r2, #128	; 0x80
    2842:	3b0c      	subs	r3, #12
    2844:	7a1b      	ldrb	r3, [r3, #8]
    2846:	4393      	bics	r3, r2
    2848:	2b02      	cmp	r3, #2
    284a:	d100      	bne.n	284e <list_sem+0x16a>
    284c:	e774      	b.n	2738 <list_sem+0x54>
    284e:	f002 f917 	bl	4a80 <rt_hw_interrupt_enable>
    2852:	2000      	movs	r0, #0
    2854:	b00b      	add	sp, #44	; 0x2c
    2856:	bcf0      	pop	{r4, r5, r6, r7}
    2858:	46bb      	mov	fp, r7
    285a:	46b2      	mov	sl, r6
    285c:	46a9      	mov	r9, r5
    285e:	46a0      	mov	r8, r4
    2860:	bdf0      	pop	{r4, r5, r6, r7, pc}
    2862:	2300      	movs	r3, #0
    2864:	9301      	str	r3, [sp, #4]
    2866:	4643      	mov	r3, r8
    2868:	f645 60a8 	movw	r0, #24232	; 0x5ea8
    286c:	8b9b      	ldrh	r3, [r3, #28]
    286e:	2208      	movs	r2, #8
    2870:	9300      	str	r3, [sp, #0]
    2872:	2108      	movs	r1, #8
    2874:	4643      	mov	r3, r8
    2876:	f2c0 0000 	movt	r0, #0
    287a:	f001 ff43 	bl	4704 <rt_kprintf>
    287e:	e78e      	b.n	279e <list_sem+0xba>
    2880:	f002 f8fe 	bl	4a80 <rt_hw_interrupt_enable>
    2884:	f240 0b00 	movw	fp, #0
    2888:	f240 0901 	movw	r9, #1
    288c:	e782      	b.n	2794 <list_sem+0xb0>
    288e:	f002 f8f7 	bl	4a80 <rt_hw_interrupt_enable>
    2892:	f240 0b00 	movw	fp, #0
    2896:	f240 0902 	movw	r9, #2
    289a:	e77b      	b.n	2794 <list_sem+0xb0>
    289c:	f002 f8f0 	bl	4a80 <rt_hw_interrupt_enable>
    28a0:	f240 0b00 	movw	fp, #0
    28a4:	f240 0903 	movw	r9, #3
    28a8:	e774      	b.n	2794 <list_sem+0xb0>
    28aa:	f002 f8e9 	bl	4a80 <rt_hw_interrupt_enable>
    28ae:	f240 0b00 	movw	fp, #0
    28b2:	f240 0905 	movw	r9, #5
    28b6:	e76d      	b.n	2794 <list_sem+0xb0>
    28b8:	f002 f8e2 	bl	4a80 <rt_hw_interrupt_enable>
    28bc:	f240 0b00 	movw	fp, #0
    28c0:	f240 0904 	movw	r9, #4
    28c4:	e766      	b.n	2794 <list_sem+0xb0>
    28c6:	f002 f8db 	bl	4a80 <rt_hw_interrupt_enable>
    28ca:	f240 0b00 	movw	fp, #0
    28ce:	f240 0907 	movw	r9, #7
    28d2:	e75f      	b.n	2794 <list_sem+0xb0>
    28d4:	f002 f8d4 	bl	4a80 <rt_hw_interrupt_enable>
    28d8:	f240 0b00 	movw	fp, #0
    28dc:	f240 0906 	movw	r9, #6
    28e0:	e758      	b.n	2794 <list_sem+0xb0>
    28e2:	46c0      	nop			; (mov r8, r8)

000028e4 <rt_system_object_init>:
    28e4:	4770      	bx	lr
    28e6:	46c0      	nop			; (mov r8, r8)

000028e8 <rt_object_get_information>:
    28e8:	f244 4338 	movw	r3, #17464	; 0x4438
    28ec:	f2c2 0300 	movt	r3, #8192	; 0x2000
    28f0:	7819      	ldrb	r1, [r3, #0]
    28f2:	0002      	movs	r2, r0
    28f4:	4281      	cmp	r1, r0
    28f6:	d009      	beq.n	290c <rt_object_get_information+0x24>
    28f8:	7c19      	ldrb	r1, [r3, #16]
    28fa:	4281      	cmp	r1, r0
    28fc:	d005      	beq.n	290a <rt_object_get_information+0x22>
    28fe:	2120      	movs	r1, #32
    2900:	5c59      	ldrb	r1, [r3, r1]
    2902:	2000      	movs	r0, #0
    2904:	4291      	cmp	r1, r2
    2906:	d003      	beq.n	2910 <rt_object_get_information+0x28>
    2908:	4770      	bx	lr
    290a:	3310      	adds	r3, #16
    290c:	0018      	movs	r0, r3
    290e:	e7fb      	b.n	2908 <rt_object_get_information+0x20>
    2910:	3320      	adds	r3, #32
    2912:	0018      	movs	r0, r3
    2914:	e7f8      	b.n	2908 <rt_object_get_information+0x20>
    2916:	46c0      	nop			; (mov r8, r8)

00002918 <rt_object_get_length>:
    2918:	f244 4338 	movw	r3, #17464	; 0x4438
    291c:	f2c2 0300 	movt	r3, #8192	; 0x2000
    2920:	781a      	ldrb	r2, [r3, #0]
    2922:	b570      	push	{r4, r5, r6, lr}
    2924:	4282      	cmp	r2, r0
    2926:	d009      	beq.n	293c <rt_object_get_length+0x24>
    2928:	7c1a      	ldrb	r2, [r3, #16]
    292a:	4282      	cmp	r2, r0
    292c:	d01d      	beq.n	296a <rt_object_get_length+0x52>
    292e:	2220      	movs	r2, #32
    2930:	5c9b      	ldrb	r3, [r3, r2]
    2932:	4283      	cmp	r3, r0
    2934:	d01c      	beq.n	2970 <rt_object_get_length+0x58>
    2936:	2400      	movs	r4, #0
    2938:	0020      	movs	r0, r4
    293a:	bd70      	pop	{r4, r5, r6, pc}
    293c:	2404      	movs	r4, #4
    293e:	2500      	movs	r5, #0
    2940:	f002 f89a 	bl	4a78 <rt_hw_interrupt_disable>
    2944:	f244 4238 	movw	r2, #17464	; 0x4438
    2948:	f2c2 0200 	movt	r2, #8192	; 0x2000
    294c:	4694      	mov	ip, r2
    294e:	012b      	lsls	r3, r5, #4
    2950:	4463      	add	r3, ip
    2952:	685b      	ldr	r3, [r3, #4]
    2954:	18a2      	adds	r2, r4, r2
    2956:	2400      	movs	r4, #0
    2958:	4293      	cmp	r3, r2
    295a:	d003      	beq.n	2964 <rt_object_get_length+0x4c>
    295c:	681b      	ldr	r3, [r3, #0]
    295e:	3401      	adds	r4, #1
    2960:	4293      	cmp	r3, r2
    2962:	d1fb      	bne.n	295c <rt_object_get_length+0x44>
    2964:	f002 f88c 	bl	4a80 <rt_hw_interrupt_enable>
    2968:	e7e6      	b.n	2938 <rt_object_get_length+0x20>
    296a:	2414      	movs	r4, #20
    296c:	2501      	movs	r5, #1
    296e:	e7e7      	b.n	2940 <rt_object_get_length+0x28>
    2970:	2424      	movs	r4, #36	; 0x24
    2972:	2502      	movs	r5, #2
    2974:	e7e4      	b.n	2940 <rt_object_get_length+0x28>
    2976:	46c0      	nop			; (mov r8, r8)

00002978 <rt_object_get_pointers>:
    2978:	b5f8      	push	{r3, r4, r5, r6, r7, lr}
    297a:	000f      	movs	r7, r1
    297c:	1e15      	subs	r5, r2, #0
    297e:	dd0d      	ble.n	299c <rt_object_get_pointers+0x24>
    2980:	f244 4338 	movw	r3, #17464	; 0x4438
    2984:	f2c2 0300 	movt	r3, #8192	; 0x2000
    2988:	781a      	ldrb	r2, [r3, #0]
    298a:	4282      	cmp	r2, r0
    298c:	d02c      	beq.n	29e8 <rt_object_get_pointers+0x70>
    298e:	7c1a      	ldrb	r2, [r3, #16]
    2990:	4282      	cmp	r2, r0
    2992:	d02c      	beq.n	29ee <rt_object_get_pointers+0x76>
    2994:	2220      	movs	r2, #32
    2996:	5c9b      	ldrb	r3, [r3, r2]
    2998:	4283      	cmp	r3, r0
    299a:	d002      	beq.n	29a2 <rt_object_get_pointers+0x2a>
    299c:	2400      	movs	r4, #0
    299e:	0020      	movs	r0, r4
    29a0:	bdf8      	pop	{r3, r4, r5, r6, r7, pc}
    29a2:	2424      	movs	r4, #36	; 0x24
    29a4:	2602      	movs	r6, #2
    29a6:	f002 f867 	bl	4a78 <rt_hw_interrupt_disable>
    29aa:	f244 4238 	movw	r2, #17464	; 0x4438
    29ae:	f2c2 0200 	movt	r2, #8192	; 0x2000
    29b2:	4694      	mov	ip, r2
    29b4:	0133      	lsls	r3, r6, #4
    29b6:	4463      	add	r3, ip
    29b8:	685b      	ldr	r3, [r3, #4]
    29ba:	18a1      	adds	r1, r4, r2
    29bc:	428b      	cmp	r3, r1
    29be:	d019      	beq.n	29f4 <rt_object_get_pointers+0x7c>
    29c0:	001a      	movs	r2, r3
    29c2:	3a0c      	subs	r2, #12
    29c4:	2401      	movs	r4, #1
    29c6:	603a      	str	r2, [r7, #0]
    29c8:	2d01      	cmp	r5, #1
    29ca:	d107      	bne.n	29dc <rt_object_get_pointers+0x64>
    29cc:	e009      	b.n	29e2 <rt_object_get_pointers+0x6a>
    29ce:	001e      	movs	r6, r3
    29d0:	00a2      	lsls	r2, r4, #2
    29d2:	3e0c      	subs	r6, #12
    29d4:	3401      	adds	r4, #1
    29d6:	50be      	str	r6, [r7, r2]
    29d8:	42a5      	cmp	r5, r4
    29da:	d002      	beq.n	29e2 <rt_object_get_pointers+0x6a>
    29dc:	681b      	ldr	r3, [r3, #0]
    29de:	428b      	cmp	r3, r1
    29e0:	d1f5      	bne.n	29ce <rt_object_get_pointers+0x56>
    29e2:	f002 f84d 	bl	4a80 <rt_hw_interrupt_enable>
    29e6:	e7da      	b.n	299e <rt_object_get_pointers+0x26>
    29e8:	2404      	movs	r4, #4
    29ea:	2600      	movs	r6, #0
    29ec:	e7db      	b.n	29a6 <rt_object_get_pointers+0x2e>
    29ee:	2414      	movs	r4, #20
    29f0:	2601      	movs	r6, #1
    29f2:	e7d8      	b.n	29a6 <rt_object_get_pointers+0x2e>
    29f4:	2400      	movs	r4, #0
    29f6:	e7f4      	b.n	29e2 <rt_object_get_pointers+0x6a>

000029f8 <rt_object_init>:
    29f8:	b5f8      	push	{r3, r4, r5, r6, r7, lr}
    29fa:	f244 4538 	movw	r5, #17464	; 0x4438
    29fe:	4647      	mov	r7, r8
    2a00:	46ce      	mov	lr, r9
    2a02:	f2c2 0500 	movt	r5, #8192	; 0x2000
    2a06:	4690      	mov	r8, r2
    2a08:	782a      	ldrb	r2, [r5, #0]
    2a0a:	b580      	push	{r7, lr}
    2a0c:	0006      	movs	r6, r0
    2a0e:	000f      	movs	r7, r1
    2a10:	428a      	cmp	r2, r1
    2a12:	d035      	beq.n	2a80 <rt_object_init+0x88>
    2a14:	7c2a      	ldrb	r2, [r5, #16]
    2a16:	428a      	cmp	r2, r1
    2a18:	d036      	beq.n	2a88 <rt_object_init+0x90>
    2a1a:	2220      	movs	r2, #32
    2a1c:	5caa      	ldrb	r2, [r5, r2]
    2a1e:	428a      	cmp	r2, r1
    2a20:	d137      	bne.n	2a92 <rt_object_init+0x9a>
    2a22:	f240 0924 	movw	r9, #36	; 0x24
    2a26:	2402      	movs	r4, #2
    2a28:	3520      	adds	r5, #32
    2a2a:	f000 fdb7 	bl	359c <rt_enter_critical>
    2a2e:	f244 4238 	movw	r2, #17464	; 0x4438
    2a32:	f2c2 0200 	movt	r2, #8192	; 0x2000
    2a36:	4694      	mov	ip, r2
    2a38:	0123      	lsls	r3, r4, #4
    2a3a:	0014      	movs	r4, r2
    2a3c:	4463      	add	r3, ip
    2a3e:	685b      	ldr	r3, [r3, #4]
    2a40:	444c      	add	r4, r9
    2a42:	42a3      	cmp	r3, r4
    2a44:	d002      	beq.n	2a4c <rt_object_init+0x54>
    2a46:	681b      	ldr	r3, [r3, #0]
    2a48:	42a3      	cmp	r3, r4
    2a4a:	d1fc      	bne.n	2a46 <rt_object_init+0x4e>
    2a4c:	f000 fdb4 	bl	35b8 <rt_exit_critical>
    2a50:	2180      	movs	r1, #128	; 0x80
    2a52:	4249      	negs	r1, r1
    2a54:	430f      	orrs	r7, r1
    2a56:	7237      	strb	r7, [r6, #8]
    2a58:	4641      	mov	r1, r8
    2a5a:	2208      	movs	r2, #8
    2a5c:	0030      	movs	r0, r6
    2a5e:	f001 fb91 	bl	4184 <rt_strncpy>
    2a62:	f002 f809 	bl	4a78 <rt_hw_interrupt_disable>
    2a66:	0033      	movs	r3, r6
    2a68:	686a      	ldr	r2, [r5, #4]
    2a6a:	330c      	adds	r3, #12
    2a6c:	6053      	str	r3, [r2, #4]
    2a6e:	60f2      	str	r2, [r6, #12]
    2a70:	606b      	str	r3, [r5, #4]
    2a72:	6134      	str	r4, [r6, #16]
    2a74:	f002 f804 	bl	4a80 <rt_hw_interrupt_enable>
    2a78:	bcc0      	pop	{r6, r7}
    2a7a:	46b9      	mov	r9, r7
    2a7c:	46b0      	mov	r8, r6
    2a7e:	bdf8      	pop	{r3, r4, r5, r6, r7, pc}
    2a80:	f240 0904 	movw	r9, #4
    2a84:	2400      	movs	r4, #0
    2a86:	e7d0      	b.n	2a2a <rt_object_init+0x32>
    2a88:	f240 0914 	movw	r9, #20
    2a8c:	2401      	movs	r4, #1
    2a8e:	3510      	adds	r5, #16
    2a90:	e7cb      	b.n	2a2a <rt_object_init+0x32>
    2a92:	f000 fd83 	bl	359c <rt_enter_critical>
    2a96:	2300      	movs	r3, #0
    2a98:	685b      	ldr	r3, [r3, #4]
    2a9a:	deff      	udf	#255	; 0xff

00002a9c <rt_object_detach>:
    2a9c:	2300      	movs	r3, #0
    2a9e:	b510      	push	{r4, lr}
    2aa0:	0004      	movs	r4, r0
    2aa2:	7203      	strb	r3, [r0, #8]
    2aa4:	f001 ffe8 	bl	4a78 <rt_hw_interrupt_disable>
    2aa8:	0023      	movs	r3, r4
    2aaa:	68e1      	ldr	r1, [r4, #12]
    2aac:	6922      	ldr	r2, [r4, #16]
    2aae:	330c      	adds	r3, #12
    2ab0:	604a      	str	r2, [r1, #4]
    2ab2:	6011      	str	r1, [r2, #0]
    2ab4:	6123      	str	r3, [r4, #16]
    2ab6:	60e3      	str	r3, [r4, #12]
    2ab8:	f001 ffe2 	bl	4a80 <rt_hw_interrupt_enable>
    2abc:	bd10      	pop	{r4, pc}
    2abe:	46c0      	nop			; (mov r8, r8)

00002ac0 <rt_object_is_systemobject>:
    2ac0:	7a00      	ldrb	r0, [r0, #8]
    2ac2:	b240      	sxtb	r0, r0
    2ac4:	0fc0      	lsrs	r0, r0, #31
    2ac6:	4770      	bx	lr

00002ac8 <rt_object_get_type>:
    2ac8:	7a03      	ldrb	r3, [r0, #8]
    2aca:	207f      	movs	r0, #127	; 0x7f
    2acc:	4018      	ands	r0, r3
    2ace:	4770      	bx	lr

00002ad0 <rt_object_find>:
    2ad0:	b5f8      	push	{r3, r4, r5, r6, r7, lr}
    2ad2:	f244 4338 	movw	r3, #17464	; 0x4438
    2ad6:	f2c2 0300 	movt	r3, #8192	; 0x2000
    2ada:	781a      	ldrb	r2, [r3, #0]
    2adc:	0006      	movs	r6, r0
    2ade:	428a      	cmp	r2, r1
    2ae0:	d02d      	beq.n	2b3e <rt_object_find+0x6e>
    2ae2:	7c1a      	ldrb	r2, [r3, #16]
    2ae4:	428a      	cmp	r2, r1
    2ae6:	d02d      	beq.n	2b44 <rt_object_find+0x74>
    2ae8:	2220      	movs	r2, #32
    2aea:	5c9b      	ldrb	r3, [r3, r2]
    2aec:	428b      	cmp	r3, r1
    2aee:	d002      	beq.n	2af6 <rt_object_find+0x26>
    2af0:	2500      	movs	r5, #0
    2af2:	0028      	movs	r0, r5
    2af4:	bdf8      	pop	{r3, r4, r5, r6, r7, pc}
    2af6:	2724      	movs	r7, #36	; 0x24
    2af8:	2402      	movs	r4, #2
    2afa:	2e00      	cmp	r6, #0
    2afc:	d0f8      	beq.n	2af0 <rt_object_find+0x20>
    2afe:	f000 fd4d 	bl	359c <rt_enter_critical>
    2b02:	f244 4238 	movw	r2, #17464	; 0x4438
    2b06:	f2c2 0200 	movt	r2, #8192	; 0x2000
    2b0a:	4694      	mov	ip, r2
    2b0c:	0123      	lsls	r3, r4, #4
    2b0e:	4463      	add	r3, ip
    2b10:	685c      	ldr	r4, [r3, #4]
    2b12:	4467      	add	r7, ip
    2b14:	42bc      	cmp	r4, r7
    2b16:	d103      	bne.n	2b20 <rt_object_find+0x50>
    2b18:	e00e      	b.n	2b38 <rt_object_find+0x68>
    2b1a:	6824      	ldr	r4, [r4, #0]
    2b1c:	42bc      	cmp	r4, r7
    2b1e:	d00b      	beq.n	2b38 <rt_object_find+0x68>
    2b20:	0025      	movs	r5, r4
    2b22:	3d0c      	subs	r5, #12
    2b24:	2208      	movs	r2, #8
    2b26:	0031      	movs	r1, r6
    2b28:	0028      	movs	r0, r5
    2b2a:	f001 fb43 	bl	41b4 <rt_strncmp>
    2b2e:	2800      	cmp	r0, #0
    2b30:	d1f3      	bne.n	2b1a <rt_object_find+0x4a>
    2b32:	f000 fd41 	bl	35b8 <rt_exit_critical>
    2b36:	e7dc      	b.n	2af2 <rt_object_find+0x22>
    2b38:	f000 fd3e 	bl	35b8 <rt_exit_critical>
    2b3c:	e7d8      	b.n	2af0 <rt_object_find+0x20>
    2b3e:	2704      	movs	r7, #4
    2b40:	2400      	movs	r4, #0
    2b42:	e7da      	b.n	2afa <rt_object_find+0x2a>
    2b44:	2714      	movs	r7, #20
    2b46:	2401      	movs	r4, #1
    2b48:	e7d7      	b.n	2afa <rt_object_find+0x2a>
    2b4a:	46c0      	nop			; (mov r8, r8)

00002b4c <rt_interrupt_enter>:
    2b4c:	b510      	push	{r4, lr}
    2b4e:	f001 ff93 	bl	4a78 <rt_hw_interrupt_disable>
    2b52:	f644 3250 	movw	r2, #19280	; 0x4b50
    2b56:	f2c2 0200 	movt	r2, #8192	; 0x2000
    2b5a:	7813      	ldrb	r3, [r2, #0]
    2b5c:	3301      	adds	r3, #1
    2b5e:	b2db      	uxtb	r3, r3
    2b60:	7013      	strb	r3, [r2, #0]
    2b62:	f001 ff8d 	bl	4a80 <rt_hw_interrupt_enable>
    2b66:	bd10      	pop	{r4, pc}

00002b68 <rt_interrupt_leave>:
    2b68:	b510      	push	{r4, lr}
    2b6a:	f001 ff85 	bl	4a78 <rt_hw_interrupt_disable>
    2b6e:	f644 3250 	movw	r2, #19280	; 0x4b50
    2b72:	f2c2 0200 	movt	r2, #8192	; 0x2000
    2b76:	7813      	ldrb	r3, [r2, #0]
    2b78:	3b01      	subs	r3, #1
    2b7a:	b2db      	uxtb	r3, r3
    2b7c:	7013      	strb	r3, [r2, #0]
    2b7e:	f001 ff7f 	bl	4a80 <rt_hw_interrupt_enable>
    2b82:	bd10      	pop	{r4, pc}

00002b84 <rt_interrupt_get_nest>:
    2b84:	b510      	push	{r4, lr}
    2b86:	f001 ff77 	bl	4a78 <rt_hw_interrupt_disable>
    2b8a:	f644 3350 	movw	r3, #19280	; 0x4b50
    2b8e:	f2c2 0300 	movt	r3, #8192	; 0x2000
    2b92:	781c      	ldrb	r4, [r3, #0]
    2b94:	f001 ff74 	bl	4a80 <rt_hw_interrupt_enable>
    2b98:	b2e4      	uxtb	r4, r4
    2b9a:	0020      	movs	r0, r4
    2b9c:	bd10      	pop	{r4, pc}
    2b9e:	46c0      	nop			; (mov r8, r8)

00002ba0 <rt_thread_timeout>:
    2ba0:	2302      	movs	r3, #2
    2ba2:	425b      	negs	r3, r3
    2ba4:	6303      	str	r3, [r0, #48]	; 0x30
    2ba6:	0003      	movs	r3, r0
    2ba8:	b510      	push	{r4, lr}
    2baa:	6941      	ldr	r1, [r0, #20]
    2bac:	6982      	ldr	r2, [r0, #24]
    2bae:	3314      	adds	r3, #20
    2bb0:	604a      	str	r2, [r1, #4]
    2bb2:	6011      	str	r1, [r2, #0]
    2bb4:	6183      	str	r3, [r0, #24]
    2bb6:	6143      	str	r3, [r0, #20]
    2bb8:	f000 fcaa 	bl	3510 <rt_schedule_insert_thread>
    2bbc:	f000 fc78 	bl	34b0 <rt_schedule>
    2bc0:	bd10      	pop	{r4, pc}
    2bc2:	46c0      	nop			; (mov r8, r8)

00002bc4 <rt_thread_exit>:
    2bc4:	f644 33a8 	movw	r3, #19368	; 0x4ba8
    2bc8:	b570      	push	{r4, r5, r6, lr}
    2bca:	f2c2 0300 	movt	r3, #8192	; 0x2000
    2bce:	681c      	ldr	r4, [r3, #0]
    2bd0:	f001 ff52 	bl	4a78 <rt_hw_interrupt_disable>
    2bd4:	0005      	movs	r5, r0
    2bd6:	f001 ff4f 	bl	4a78 <rt_hw_interrupt_disable>
    2bda:	6f23      	ldr	r3, [r4, #112]	; 0x70
    2bdc:	0006      	movs	r6, r0
    2bde:	b10b      	cbz	r3, 2be4 <rt_thread_exit+0x20>
    2be0:	0020      	movs	r0, r4
    2be2:	4798      	blx	r3
    2be4:	0030      	movs	r0, r6
    2be6:	f001 ff4b 	bl	4a80 <rt_hw_interrupt_enable>
    2bea:	0020      	movs	r0, r4
    2bec:	f000 fcb4 	bl	3558 <rt_schedule_remove_thread>
    2bf0:	2334      	movs	r3, #52	; 0x34
    2bf2:	2204      	movs	r2, #4
    2bf4:	0020      	movs	r0, r4
    2bf6:	54e2      	strb	r2, [r4, r3]
    2bf8:	3044      	adds	r0, #68	; 0x44
    2bfa:	f000 fae1 	bl	31c0 <rt_timer_detach>
    2bfe:	0020      	movs	r0, r4
    2c00:	f7ff ff5e 	bl	2ac0 <rt_object_is_systemobject>
    2c04:	2801      	cmp	r0, #1
    2c06:	d010      	beq.n	2c2a <rt_thread_exit+0x66>
    2c08:	f644 33b0 	movw	r3, #19376	; 0x4bb0
    2c0c:	0022      	movs	r2, r4
    2c0e:	f2c2 0300 	movt	r3, #8192	; 0x2000
    2c12:	6819      	ldr	r1, [r3, #0]
    2c14:	3214      	adds	r2, #20
    2c16:	604a      	str	r2, [r1, #4]
    2c18:	601a      	str	r2, [r3, #0]
    2c1a:	6161      	str	r1, [r4, #20]
    2c1c:	61a3      	str	r3, [r4, #24]
    2c1e:	f000 fc47 	bl	34b0 <rt_schedule>
    2c22:	0028      	movs	r0, r5
    2c24:	f001 ff2c 	bl	4a80 <rt_hw_interrupt_enable>
    2c28:	bd70      	pop	{r4, r5, r6, pc}
    2c2a:	0020      	movs	r0, r4
    2c2c:	f7ff ff36 	bl	2a9c <rt_object_detach>
    2c30:	e7f5      	b.n	2c1e <rt_thread_exit+0x5a>
    2c32:	46c0      	nop			; (mov r8, r8)

00002c34 <rt_thread_init>:
    2c34:	b5f0      	push	{r4, r5, r6, r7, lr}
    2c36:	0004      	movs	r4, r0
    2c38:	b083      	sub	sp, #12
    2c3a:	0016      	movs	r6, r2
    2c3c:	001d      	movs	r5, r3
    2c3e:	000a      	movs	r2, r1
    2c40:	ab0a      	add	r3, sp, #40	; 0x28
    2c42:	2101      	movs	r1, #1
    2c44:	781f      	ldrb	r7, [r3, #0]
    2c46:	f7ff fed7 	bl	29f8 <rt_object_init>
    2c4a:	0023      	movs	r3, r4
    2c4c:	3314      	adds	r3, #20
    2c4e:	61a3      	str	r3, [r4, #24]
    2c50:	6163      	str	r3, [r4, #20]
    2c52:	9b08      	ldr	r3, [sp, #32]
    2c54:	2123      	movs	r1, #35	; 0x23
    2c56:	62a3      	str	r3, [r4, #40]	; 0x28
    2c58:	9b09      	ldr	r3, [sp, #36]	; 0x24
    2c5a:	9808      	ldr	r0, [sp, #32]
    2c5c:	001a      	movs	r2, r3
    2c5e:	62e3      	str	r3, [r4, #44]	; 0x2c
    2c60:	6226      	str	r6, [r4, #32]
    2c62:	6265      	str	r5, [r4, #36]	; 0x24
    2c64:	f001 f8ee 	bl	3e44 <rt_memset>
    2c68:	6aa1      	ldr	r1, [r4, #40]	; 0x28
    2c6a:	f642 33c5 	movw	r3, #11205	; 0x2bc5
    2c6e:	468c      	mov	ip, r1
    2c70:	6ae2      	ldr	r2, [r4, #44]	; 0x2c
    2c72:	6a61      	ldr	r1, [r4, #36]	; 0x24
    2c74:	3a04      	subs	r2, #4
    2c76:	4462      	add	r2, ip
    2c78:	6a20      	ldr	r0, [r4, #32]
    2c7a:	f2c0 0300 	movt	r3, #0
    2c7e:	f001 fe83 	bl	4988 <rt_hw_stack_init>
    2c82:	2336      	movs	r3, #54	; 0x36
    2c84:	9a0b      	ldr	r2, [sp, #44]	; 0x2c
    2c86:	61e0      	str	r0, [r4, #28]
    2c88:	54e7      	strb	r7, [r4, r3]
    2c8a:	3b01      	subs	r3, #1
    2c8c:	54e7      	strb	r7, [r4, r3]
    2c8e:	2300      	movs	r3, #0
    2c90:	63e2      	str	r2, [r4, #60]	; 0x3c
    2c92:	6422      	str	r2, [r4, #64]	; 0x40
    2c94:	2234      	movs	r2, #52	; 0x34
    2c96:	63a3      	str	r3, [r4, #56]	; 0x38
    2c98:	6323      	str	r3, [r4, #48]	; 0x30
    2c9a:	0020      	movs	r0, r4
    2c9c:	54a3      	strb	r3, [r4, r2]
    2c9e:	f642 32a1 	movw	r2, #11169	; 0x2ba1
    2ca2:	6723      	str	r3, [r4, #112]	; 0x70
    2ca4:	6763      	str	r3, [r4, #116]	; 0x74
    2ca6:	9301      	str	r3, [sp, #4]
    2ca8:	9300      	str	r3, [sp, #0]
    2caa:	0021      	movs	r1, r4
    2cac:	0023      	movs	r3, r4
    2cae:	f2c0 0200 	movt	r2, #0
    2cb2:	3044      	adds	r0, #68	; 0x44
    2cb4:	f000 fa66 	bl	3184 <rt_timer_init>
    2cb8:	2000      	movs	r0, #0
    2cba:	b003      	add	sp, #12
    2cbc:	bdf0      	pop	{r4, r5, r6, r7, pc}
    2cbe:	46c0      	nop			; (mov r8, r8)

00002cc0 <rt_thread_self>:
    2cc0:	f644 33a8 	movw	r3, #19368	; 0x4ba8
    2cc4:	f2c2 0300 	movt	r3, #8192	; 0x2000
    2cc8:	6818      	ldr	r0, [r3, #0]
    2cca:	4770      	bx	lr

00002ccc <rt_thread_startup>:
    2ccc:	2336      	movs	r3, #54	; 0x36
    2cce:	b570      	push	{r4, r5, r6, lr}
    2cd0:	5cc2      	ldrb	r2, [r0, r3]
    2cd2:	3b01      	subs	r3, #1
    2cd4:	54c2      	strb	r2, [r0, r3]
    2cd6:	3b34      	subs	r3, #52	; 0x34
    2cd8:	4093      	lsls	r3, r2
    2cda:	2202      	movs	r2, #2
    2cdc:	6383      	str	r3, [r0, #56]	; 0x38
    2cde:	2334      	movs	r3, #52	; 0x34
    2ce0:	0004      	movs	r4, r0
    2ce2:	54c2      	strb	r2, [r0, r3]
    2ce4:	f001 fec8 	bl	4a78 <rt_hw_interrupt_disable>
    2ce8:	0023      	movs	r3, r4
    2cea:	0005      	movs	r5, r0
    2cec:	0020      	movs	r0, r4
    2cee:	6961      	ldr	r1, [r4, #20]
    2cf0:	69a2      	ldr	r2, [r4, #24]
    2cf2:	3314      	adds	r3, #20
    2cf4:	604a      	str	r2, [r1, #4]
    2cf6:	3044      	adds	r0, #68	; 0x44
    2cf8:	6011      	str	r1, [r2, #0]
    2cfa:	61a3      	str	r3, [r4, #24]
    2cfc:	6163      	str	r3, [r4, #20]
    2cfe:	f000 fac1 	bl	3284 <rt_timer_stop>
    2d02:	0028      	movs	r0, r5
    2d04:	f001 febc 	bl	4a80 <rt_hw_interrupt_enable>
    2d08:	0020      	movs	r0, r4
    2d0a:	f000 fc01 	bl	3510 <rt_schedule_insert_thread>
    2d0e:	f644 33a8 	movw	r3, #19368	; 0x4ba8
    2d12:	f2c2 0300 	movt	r3, #8192	; 0x2000
    2d16:	681b      	ldr	r3, [r3, #0]
    2d18:	b10b      	cbz	r3, 2d1e <rt_thread_startup+0x52>
    2d1a:	f000 fbc9 	bl	34b0 <rt_schedule>
    2d1e:	2000      	movs	r0, #0
    2d20:	bd70      	pop	{r4, r5, r6, pc}
    2d22:	46c0      	nop			; (mov r8, r8)

00002d24 <rt_thread_detach>:
    2d24:	2334      	movs	r3, #52	; 0x34
    2d26:	b570      	push	{r4, r5, r6, lr}
    2d28:	5cc2      	ldrb	r2, [r0, r3]
    2d2a:	3b25      	subs	r3, #37	; 0x25
    2d2c:	0004      	movs	r4, r0
    2d2e:	4013      	ands	r3, r2
    2d30:	2b04      	cmp	r3, #4
    2d32:	d025      	beq.n	2d80 <rt_thread_detach+0x5c>
    2d34:	bb53      	cbnz	r3, 2d8c <rt_thread_detach+0x68>
    2d36:	f001 fe9f 	bl	4a78 <rt_hw_interrupt_disable>
    2d3a:	6f23      	ldr	r3, [r4, #112]	; 0x70
    2d3c:	0005      	movs	r5, r0
    2d3e:	b10b      	cbz	r3, 2d44 <rt_thread_detach+0x20>
    2d40:	0020      	movs	r0, r4
    2d42:	4798      	blx	r3
    2d44:	0028      	movs	r0, r5
    2d46:	f001 fe9b 	bl	4a80 <rt_hw_interrupt_enable>
    2d4a:	0020      	movs	r0, r4
    2d4c:	3044      	adds	r0, #68	; 0x44
    2d4e:	f000 fa37 	bl	31c0 <rt_timer_detach>
    2d52:	2334      	movs	r3, #52	; 0x34
    2d54:	2204      	movs	r2, #4
    2d56:	0020      	movs	r0, r4
    2d58:	54e2      	strb	r2, [r4, r3]
    2d5a:	f7ff feb1 	bl	2ac0 <rt_object_is_systemobject>
    2d5e:	2801      	cmp	r0, #1
    2d60:	d010      	beq.n	2d84 <rt_thread_detach+0x60>
    2d62:	f001 fe89 	bl	4a78 <rt_hw_interrupt_disable>
    2d66:	f644 33b0 	movw	r3, #19376	; 0x4bb0
    2d6a:	0022      	movs	r2, r4
    2d6c:	f2c2 0300 	movt	r3, #8192	; 0x2000
    2d70:	6819      	ldr	r1, [r3, #0]
    2d72:	3214      	adds	r2, #20
    2d74:	604a      	str	r2, [r1, #4]
    2d76:	6161      	str	r1, [r4, #20]
    2d78:	61a3      	str	r3, [r4, #24]
    2d7a:	601a      	str	r2, [r3, #0]
    2d7c:	f001 fe80 	bl	4a80 <rt_hw_interrupt_enable>
    2d80:	2000      	movs	r0, #0
    2d82:	bd70      	pop	{r4, r5, r6, pc}
    2d84:	0020      	movs	r0, r4
    2d86:	f7ff fe89 	bl	2a9c <rt_object_detach>
    2d8a:	e7f9      	b.n	2d80 <rt_thread_detach+0x5c>
    2d8c:	f000 fbe4 	bl	3558 <rt_schedule_remove_thread>
    2d90:	e7d1      	b.n	2d36 <rt_thread_detach+0x12>
    2d92:	46c0      	nop			; (mov r8, r8)

00002d94 <rt_thread_yield>:
    2d94:	b510      	push	{r4, lr}
    2d96:	f001 fe6f 	bl	4a78 <rt_hw_interrupt_disable>
    2d9a:	f644 33a8 	movw	r3, #19368	; 0x4ba8
    2d9e:	2234      	movs	r2, #52	; 0x34
    2da0:	f2c2 0300 	movt	r3, #8192	; 0x2000
    2da4:	681b      	ldr	r3, [r3, #0]
    2da6:	5c99      	ldrb	r1, [r3, r2]
    2da8:	3a25      	subs	r2, #37	; 0x25
    2daa:	400a      	ands	r2, r1
    2dac:	2a01      	cmp	r2, #1
    2dae:	d103      	bne.n	2db8 <rt_thread_yield+0x24>
    2db0:	6959      	ldr	r1, [r3, #20]
    2db2:	699a      	ldr	r2, [r3, #24]
    2db4:	4291      	cmp	r1, r2
    2db6:	d103      	bne.n	2dc0 <rt_thread_yield+0x2c>
    2db8:	f001 fe62 	bl	4a80 <rt_hw_interrupt_enable>
    2dbc:	2000      	movs	r0, #0
    2dbe:	bd10      	pop	{r4, pc}
    2dc0:	604a      	str	r2, [r1, #4]
    2dc2:	6011      	str	r1, [r2, #0]
    2dc4:	f644 3164 	movw	r1, #19300	; 0x4b64
    2dc8:	001c      	movs	r4, r3
    2dca:	2235      	movs	r2, #53	; 0x35
    2dcc:	f2c2 0100 	movt	r1, #8192	; 0x2000
    2dd0:	468c      	mov	ip, r1
    2dd2:	3414      	adds	r4, #20
    2dd4:	619c      	str	r4, [r3, #24]
    2dd6:	615c      	str	r4, [r3, #20]
    2dd8:	5c9a      	ldrb	r2, [r3, r2]
    2dda:	00d2      	lsls	r2, r2, #3
    2ddc:	4462      	add	r2, ip
    2dde:	6851      	ldr	r1, [r2, #4]
    2de0:	600c      	str	r4, [r1, #0]
    2de2:	6199      	str	r1, [r3, #24]
    2de4:	6054      	str	r4, [r2, #4]
    2de6:	615a      	str	r2, [r3, #20]
    2de8:	f001 fe4a 	bl	4a80 <rt_hw_interrupt_enable>
    2dec:	f000 fb60 	bl	34b0 <rt_schedule>
    2df0:	e7e4      	b.n	2dbc <rt_thread_yield+0x28>
    2df2:	46c0      	nop			; (mov r8, r8)

00002df4 <rt_thread_sleep>:
    2df4:	b5f0      	push	{r4, r5, r6, r7, lr}
    2df6:	46c6      	mov	lr, r8
    2df8:	f240 080f 	movw	r8, #15
    2dfc:	b500      	push	{lr}
    2dfe:	b082      	sub	sp, #8
    2e00:	9001      	str	r0, [sp, #4]
    2e02:	f001 fe39 	bl	4a78 <rt_hw_interrupt_disable>
    2e06:	f644 33a8 	movw	r3, #19368	; 0x4ba8
    2e0a:	2634      	movs	r6, #52	; 0x34
    2e0c:	4642      	mov	r2, r8
    2e0e:	f2c2 0300 	movt	r3, #8192	; 0x2000
    2e12:	681c      	ldr	r4, [r3, #0]
    2e14:	0005      	movs	r5, r0
    2e16:	5da3      	ldrb	r3, [r4, r6]
    2e18:	4013      	ands	r3, r2
    2e1a:	2b01      	cmp	r3, #1
    2e1c:	d12a      	bne.n	2e74 <rt_thread_sleep+0x80>
    2e1e:	f001 fe2b 	bl	4a78 <rt_hw_interrupt_disable>
    2e22:	0007      	movs	r7, r0
    2e24:	0020      	movs	r0, r4
    2e26:	f000 fb97 	bl	3558 <rt_schedule_remove_thread>
    2e2a:	4642      	mov	r2, r8
    2e2c:	5da3      	ldrb	r3, [r4, r6]
    2e2e:	4393      	bics	r3, r2
    2e30:	2202      	movs	r2, #2
    2e32:	4313      	orrs	r3, r2
    2e34:	55a3      	strb	r3, [r4, r6]
    2e36:	0026      	movs	r6, r4
    2e38:	3644      	adds	r6, #68	; 0x44
    2e3a:	0030      	movs	r0, r6
    2e3c:	f000 fa22 	bl	3284 <rt_timer_stop>
    2e40:	0038      	movs	r0, r7
    2e42:	f001 fe1d 	bl	4a80 <rt_hw_interrupt_enable>
    2e46:	2100      	movs	r1, #0
    2e48:	aa01      	add	r2, sp, #4
    2e4a:	0030      	movs	r0, r6
    2e4c:	f000 fa34 	bl	32b8 <rt_timer_control>
    2e50:	0030      	movs	r0, r6
    2e52:	f000 f9cd 	bl	31f0 <rt_timer_start>
    2e56:	0028      	movs	r0, r5
    2e58:	f001 fe12 	bl	4a80 <rt_hw_interrupt_enable>
    2e5c:	f000 fb28 	bl	34b0 <rt_schedule>
    2e60:	6b23      	ldr	r3, [r4, #48]	; 0x30
    2e62:	3302      	adds	r3, #2
    2e64:	d101      	bne.n	2e6a <rt_thread_sleep+0x76>
    2e66:	2300      	movs	r3, #0
    2e68:	6323      	str	r3, [r4, #48]	; 0x30
    2e6a:	2000      	movs	r0, #0
    2e6c:	b002      	add	sp, #8
    2e6e:	bc80      	pop	{r7}
    2e70:	46b8      	mov	r8, r7
    2e72:	bdf0      	pop	{r4, r5, r6, r7, pc}
    2e74:	0026      	movs	r6, r4
    2e76:	3644      	adds	r6, #68	; 0x44
    2e78:	e7e5      	b.n	2e46 <rt_thread_sleep+0x52>
    2e7a:	46c0      	nop			; (mov r8, r8)

00002e7c <rt_thread_delay>:
    2e7c:	b5f0      	push	{r4, r5, r6, r7, lr}
    2e7e:	46c6      	mov	lr, r8
    2e80:	f240 080f 	movw	r8, #15
    2e84:	b500      	push	{lr}
    2e86:	b082      	sub	sp, #8
    2e88:	9001      	str	r0, [sp, #4]
    2e8a:	f001 fdf5 	bl	4a78 <rt_hw_interrupt_disable>
    2e8e:	f644 33a8 	movw	r3, #19368	; 0x4ba8
    2e92:	2634      	movs	r6, #52	; 0x34
    2e94:	4642      	mov	r2, r8
    2e96:	f2c2 0300 	movt	r3, #8192	; 0x2000
    2e9a:	681c      	ldr	r4, [r3, #0]
    2e9c:	0005      	movs	r5, r0
    2e9e:	5da3      	ldrb	r3, [r4, r6]
    2ea0:	4013      	ands	r3, r2
    2ea2:	2b01      	cmp	r3, #1
    2ea4:	d12a      	bne.n	2efc <rt_thread_delay+0x80>
    2ea6:	f001 fde7 	bl	4a78 <rt_hw_interrupt_disable>
    2eaa:	0007      	movs	r7, r0
    2eac:	0020      	movs	r0, r4
    2eae:	f000 fb53 	bl	3558 <rt_schedule_remove_thread>
    2eb2:	4642      	mov	r2, r8
    2eb4:	5da3      	ldrb	r3, [r4, r6]
    2eb6:	4393      	bics	r3, r2
    2eb8:	2202      	movs	r2, #2
    2eba:	4313      	orrs	r3, r2
    2ebc:	55a3      	strb	r3, [r4, r6]
    2ebe:	0026      	movs	r6, r4
    2ec0:	3644      	adds	r6, #68	; 0x44
    2ec2:	0030      	movs	r0, r6
    2ec4:	f000 f9de 	bl	3284 <rt_timer_stop>
    2ec8:	0038      	movs	r0, r7
    2eca:	f001 fdd9 	bl	4a80 <rt_hw_interrupt_enable>
    2ece:	2100      	movs	r1, #0
    2ed0:	aa01      	add	r2, sp, #4
    2ed2:	0030      	movs	r0, r6
    2ed4:	f000 f9f0 	bl	32b8 <rt_timer_control>
    2ed8:	0030      	movs	r0, r6
    2eda:	f000 f989 	bl	31f0 <rt_timer_start>
    2ede:	0028      	movs	r0, r5
    2ee0:	f001 fdce 	bl	4a80 <rt_hw_interrupt_enable>
    2ee4:	f000 fae4 	bl	34b0 <rt_schedule>
    2ee8:	6b23      	ldr	r3, [r4, #48]	; 0x30
    2eea:	3302      	adds	r3, #2
    2eec:	d101      	bne.n	2ef2 <rt_thread_delay+0x76>
    2eee:	2300      	movs	r3, #0
    2ef0:	6323      	str	r3, [r4, #48]	; 0x30
    2ef2:	2000      	movs	r0, #0
    2ef4:	b002      	add	sp, #8
    2ef6:	bc80      	pop	{r7}
    2ef8:	46b8      	mov	r8, r7
    2efa:	bdf0      	pop	{r4, r5, r6, r7, pc}
    2efc:	0026      	movs	r6, r4
    2efe:	3644      	adds	r6, #68	; 0x44
    2f00:	e7e5      	b.n	2ece <rt_thread_delay+0x52>
    2f02:	46c0      	nop			; (mov r8, r8)

00002f04 <rt_thread_delay_until>:
    2f04:	b5f8      	push	{r3, r4, r5, r6, r7, lr}
    2f06:	46ce      	mov	lr, r9
    2f08:	4647      	mov	r7, r8
    2f0a:	f644 33a8 	movw	r3, #19368	; 0x4ba8
    2f0e:	b580      	push	{r7, lr}
    2f10:	f2c2 0300 	movt	r3, #8192	; 0x2000
    2f14:	681e      	ldr	r6, [r3, #0]
    2f16:	0004      	movs	r4, r0
    2f18:	000d      	movs	r5, r1
    2f1a:	f001 fdad 	bl	4a78 <rt_hw_interrupt_disable>
    2f1e:	0007      	movs	r7, r0
    2f20:	f000 fcb4 	bl	388c <rt_tick_get>
    2f24:	6823      	ldr	r3, [r4, #0]
    2f26:	1ac0      	subs	r0, r0, r3
    2f28:	42a8      	cmp	r0, r5
    2f2a:	d233      	bcs.n	2f94 <rt_thread_delay_until+0x90>
    2f2c:	195d      	adds	r5, r3, r5
    2f2e:	f000 fcad 	bl	388c <rt_tick_get>
    2f32:	f240 090f 	movw	r9, #15
    2f36:	1a28      	subs	r0, r5, r0
    2f38:	2534      	movs	r5, #52	; 0x34
    2f3a:	464a      	mov	r2, r9
    2f3c:	6020      	str	r0, [r4, #0]
    2f3e:	5d73      	ldrb	r3, [r6, r5]
    2f40:	4013      	ands	r3, r2
    2f42:	2b01      	cmp	r3, #1
    2f44:	d131      	bne.n	2faa <rt_thread_delay_until+0xa6>
    2f46:	f001 fd97 	bl	4a78 <rt_hw_interrupt_disable>
    2f4a:	4680      	mov	r8, r0
    2f4c:	0030      	movs	r0, r6
    2f4e:	f000 fb03 	bl	3558 <rt_schedule_remove_thread>
    2f52:	464a      	mov	r2, r9
    2f54:	5d73      	ldrb	r3, [r6, r5]
    2f56:	4393      	bics	r3, r2
    2f58:	2202      	movs	r2, #2
    2f5a:	4313      	orrs	r3, r2
    2f5c:	5573      	strb	r3, [r6, r5]
    2f5e:	0035      	movs	r5, r6
    2f60:	3544      	adds	r5, #68	; 0x44
    2f62:	0028      	movs	r0, r5
    2f64:	f000 f98e 	bl	3284 <rt_timer_stop>
    2f68:	4640      	mov	r0, r8
    2f6a:	f001 fd89 	bl	4a80 <rt_hw_interrupt_enable>
    2f6e:	0022      	movs	r2, r4
    2f70:	2100      	movs	r1, #0
    2f72:	0028      	movs	r0, r5
    2f74:	f000 f9a0 	bl	32b8 <rt_timer_control>
    2f78:	0028      	movs	r0, r5
    2f7a:	f000 f939 	bl	31f0 <rt_timer_start>
    2f7e:	0038      	movs	r0, r7
    2f80:	f001 fd7e 	bl	4a80 <rt_hw_interrupt_enable>
    2f84:	f000 fa94 	bl	34b0 <rt_schedule>
    2f88:	6b33      	ldr	r3, [r6, #48]	; 0x30
    2f8a:	3302      	adds	r3, #2
    2f8c:	d105      	bne.n	2f9a <rt_thread_delay_until+0x96>
    2f8e:	2300      	movs	r3, #0
    2f90:	6333      	str	r3, [r6, #48]	; 0x30
    2f92:	e002      	b.n	2f9a <rt_thread_delay_until+0x96>
    2f94:	0038      	movs	r0, r7
    2f96:	f001 fd73 	bl	4a80 <rt_hw_interrupt_enable>
    2f9a:	f000 fc77 	bl	388c <rt_tick_get>
    2f9e:	6020      	str	r0, [r4, #0]
    2fa0:	2000      	movs	r0, #0
    2fa2:	bcc0      	pop	{r6, r7}
    2fa4:	46b9      	mov	r9, r7
    2fa6:	46b0      	mov	r8, r6
    2fa8:	bdf8      	pop	{r3, r4, r5, r6, r7, pc}
    2faa:	0035      	movs	r5, r6
    2fac:	3544      	adds	r5, #68	; 0x44
    2fae:	e7de      	b.n	2f6e <rt_thread_delay_until+0x6a>

00002fb0 <rt_thread_mdelay>:
    2fb0:	b5f0      	push	{r4, r5, r6, r7, lr}
    2fb2:	46c6      	mov	lr, r8
    2fb4:	b500      	push	{lr}
    2fb6:	b082      	sub	sp, #8
    2fb8:	f000 fc90 	bl	38dc <rt_tick_from_millisecond>
    2fbc:	f240 080f 	movw	r8, #15
    2fc0:	9001      	str	r0, [sp, #4]
    2fc2:	f001 fd59 	bl	4a78 <rt_hw_interrupt_disable>
    2fc6:	f644 33a8 	movw	r3, #19368	; 0x4ba8
    2fca:	2634      	movs	r6, #52	; 0x34
    2fcc:	4642      	mov	r2, r8
    2fce:	f2c2 0300 	movt	r3, #8192	; 0x2000
    2fd2:	681c      	ldr	r4, [r3, #0]
    2fd4:	0005      	movs	r5, r0
    2fd6:	5da3      	ldrb	r3, [r4, r6]
    2fd8:	4013      	ands	r3, r2
    2fda:	2b01      	cmp	r3, #1
    2fdc:	d12a      	bne.n	3034 <rt_thread_mdelay+0x84>
    2fde:	f001 fd4b 	bl	4a78 <rt_hw_interrupt_disable>
    2fe2:	0007      	movs	r7, r0
    2fe4:	0020      	movs	r0, r4
    2fe6:	f000 fab7 	bl	3558 <rt_schedule_remove_thread>
    2fea:	4642      	mov	r2, r8
    2fec:	5da3      	ldrb	r3, [r4, r6]
    2fee:	4393      	bics	r3, r2
    2ff0:	2202      	movs	r2, #2
    2ff2:	4313      	orrs	r3, r2
    2ff4:	55a3      	strb	r3, [r4, r6]
    2ff6:	0026      	movs	r6, r4
    2ff8:	3644      	adds	r6, #68	; 0x44
    2ffa:	0030      	movs	r0, r6
    2ffc:	f000 f942 	bl	3284 <rt_timer_stop>
    3000:	0038      	movs	r0, r7
    3002:	f001 fd3d 	bl	4a80 <rt_hw_interrupt_enable>
    3006:	2100      	movs	r1, #0
    3008:	aa01      	add	r2, sp, #4
    300a:	0030      	movs	r0, r6
    300c:	f000 f954 	bl	32b8 <rt_timer_control>
    3010:	0030      	movs	r0, r6
    3012:	f000 f8ed 	bl	31f0 <rt_timer_start>
    3016:	0028      	movs	r0, r5
    3018:	f001 fd32 	bl	4a80 <rt_hw_interrupt_enable>
    301c:	f000 fa48 	bl	34b0 <rt_schedule>
    3020:	6b23      	ldr	r3, [r4, #48]	; 0x30
    3022:	3302      	adds	r3, #2
    3024:	d101      	bne.n	302a <rt_thread_mdelay+0x7a>
    3026:	2300      	movs	r3, #0
    3028:	6323      	str	r3, [r4, #48]	; 0x30
    302a:	2000      	movs	r0, #0
    302c:	b002      	add	sp, #8
    302e:	bc80      	pop	{r7}
    3030:	46b8      	mov	r8, r7
    3032:	bdf0      	pop	{r4, r5, r6, r7, pc}
    3034:	0026      	movs	r6, r4
    3036:	3644      	adds	r6, #68	; 0x44
    3038:	e7e5      	b.n	3006 <rt_thread_mdelay+0x56>
    303a:	46c0      	nop			; (mov r8, r8)

0000303c <rt_thread_control>:
    303c:	b5f8      	push	{r3, r4, r5, r6, r7, lr}
    303e:	0004      	movs	r4, r0
    3040:	0015      	movs	r5, r2
    3042:	2901      	cmp	r1, #1
    3044:	d041      	beq.n	30ca <rt_thread_control+0x8e>
    3046:	2902      	cmp	r1, #2
    3048:	d02b      	beq.n	30a2 <rt_thread_control+0x66>
    304a:	b109      	cbz	r1, 3050 <rt_thread_control+0x14>
    304c:	2000      	movs	r0, #0
    304e:	bdf8      	pop	{r3, r4, r5, r6, r7, pc}
    3050:	2336      	movs	r3, #54	; 0x36
    3052:	5cc2      	ldrb	r2, [r0, r3]
    3054:	3b01      	subs	r3, #1
    3056:	54c2      	strb	r2, [r0, r3]
    3058:	3b34      	subs	r3, #52	; 0x34
    305a:	4093      	lsls	r3, r2
    305c:	2202      	movs	r2, #2
    305e:	6383      	str	r3, [r0, #56]	; 0x38
    3060:	2334      	movs	r3, #52	; 0x34
    3062:	54c2      	strb	r2, [r0, r3]
    3064:	f001 fd08 	bl	4a78 <rt_hw_interrupt_disable>
    3068:	0023      	movs	r3, r4
    306a:	0005      	movs	r5, r0
    306c:	0020      	movs	r0, r4
    306e:	6961      	ldr	r1, [r4, #20]
    3070:	69a2      	ldr	r2, [r4, #24]
    3072:	3314      	adds	r3, #20
    3074:	604a      	str	r2, [r1, #4]
    3076:	3044      	adds	r0, #68	; 0x44
    3078:	6011      	str	r1, [r2, #0]
    307a:	61a3      	str	r3, [r4, #24]
    307c:	6163      	str	r3, [r4, #20]
    307e:	f000 f901 	bl	3284 <rt_timer_stop>
    3082:	0028      	movs	r0, r5
    3084:	f001 fcfc 	bl	4a80 <rt_hw_interrupt_enable>
    3088:	0020      	movs	r0, r4
    308a:	f000 fa41 	bl	3510 <rt_schedule_insert_thread>
    308e:	f644 33a8 	movw	r3, #19368	; 0x4ba8
    3092:	f2c2 0300 	movt	r3, #8192	; 0x2000
    3096:	681b      	ldr	r3, [r3, #0]
    3098:	2b00      	cmp	r3, #0
    309a:	d0d7      	beq.n	304c <rt_thread_control+0x10>
    309c:	f000 fa08 	bl	34b0 <rt_schedule>
    30a0:	e7d4      	b.n	304c <rt_thread_control+0x10>
    30a2:	f001 fce9 	bl	4a78 <rt_hw_interrupt_disable>
    30a6:	2334      	movs	r3, #52	; 0x34
    30a8:	260f      	movs	r6, #15
    30aa:	5ce3      	ldrb	r3, [r4, r3]
    30ac:	0007      	movs	r7, r0
    30ae:	401e      	ands	r6, r3
    30b0:	2e01      	cmp	r6, #1
    30b2:	d012      	beq.n	30da <rt_thread_control+0x9e>
    30b4:	2335      	movs	r3, #53	; 0x35
    30b6:	782a      	ldrb	r2, [r5, #0]
    30b8:	54e2      	strb	r2, [r4, r3]
    30ba:	3b34      	subs	r3, #52	; 0x34
    30bc:	4093      	lsls	r3, r2
    30be:	63a3      	str	r3, [r4, #56]	; 0x38
    30c0:	0038      	movs	r0, r7
    30c2:	f001 fcdd 	bl	4a80 <rt_hw_interrupt_enable>
    30c6:	2000      	movs	r0, #0
    30c8:	e7c1      	b.n	304e <rt_thread_control+0x12>
    30ca:	f7ff fcf9 	bl	2ac0 <rt_object_is_systemobject>
    30ce:	2801      	cmp	r0, #1
    30d0:	d1bc      	bne.n	304c <rt_thread_control+0x10>
    30d2:	0020      	movs	r0, r4
    30d4:	f7ff fe26 	bl	2d24 <rt_thread_detach>
    30d8:	e7b9      	b.n	304e <rt_thread_control+0x12>
    30da:	0020      	movs	r0, r4
    30dc:	f000 fa3c 	bl	3558 <rt_schedule_remove_thread>
    30e0:	782b      	ldrb	r3, [r5, #0]
    30e2:	2235      	movs	r2, #53	; 0x35
    30e4:	409e      	lsls	r6, r3
    30e6:	54a3      	strb	r3, [r4, r2]
    30e8:	0020      	movs	r0, r4
    30ea:	63a6      	str	r6, [r4, #56]	; 0x38
    30ec:	f000 fa10 	bl	3510 <rt_schedule_insert_thread>
    30f0:	e7e6      	b.n	30c0 <rt_thread_control+0x84>
    30f2:	46c0      	nop			; (mov r8, r8)

000030f4 <rt_thread_suspend>:
    30f4:	b5f8      	push	{r3, r4, r5, r6, r7, lr}
    30f6:	2534      	movs	r5, #52	; 0x34
    30f8:	270f      	movs	r7, #15
    30fa:	5d43      	ldrb	r3, [r0, r5]
    30fc:	0004      	movs	r4, r0
    30fe:	403b      	ands	r3, r7
    3100:	2b01      	cmp	r3, #1
    3102:	d113      	bne.n	312c <rt_thread_suspend+0x38>
    3104:	f001 fcb8 	bl	4a78 <rt_hw_interrupt_disable>
    3108:	0006      	movs	r6, r0
    310a:	0020      	movs	r0, r4
    310c:	f000 fa24 	bl	3558 <rt_schedule_remove_thread>
    3110:	2202      	movs	r2, #2
    3112:	0020      	movs	r0, r4
    3114:	5d63      	ldrb	r3, [r4, r5]
    3116:	3044      	adds	r0, #68	; 0x44
    3118:	43bb      	bics	r3, r7
    311a:	4313      	orrs	r3, r2
    311c:	5563      	strb	r3, [r4, r5]
    311e:	f000 f8b1 	bl	3284 <rt_timer_stop>
    3122:	0030      	movs	r0, r6
    3124:	f001 fcac 	bl	4a80 <rt_hw_interrupt_enable>
    3128:	2000      	movs	r0, #0
    312a:	bdf8      	pop	{r3, r4, r5, r6, r7, pc}
    312c:	2001      	movs	r0, #1
    312e:	4240      	negs	r0, r0
    3130:	e7fb      	b.n	312a <rt_thread_suspend+0x36>
    3132:	46c0      	nop			; (mov r8, r8)

00003134 <rt_thread_resume>:
    3134:	2334      	movs	r3, #52	; 0x34
    3136:	b570      	push	{r4, r5, r6, lr}
    3138:	5cc2      	ldrb	r2, [r0, r3]
    313a:	3b25      	subs	r3, #37	; 0x25
    313c:	0004      	movs	r4, r0
    313e:	4013      	ands	r3, r2
    3140:	2b02      	cmp	r3, #2
    3142:	d116      	bne.n	3172 <rt_thread_resume+0x3e>
    3144:	f001 fc98 	bl	4a78 <rt_hw_interrupt_disable>
    3148:	0023      	movs	r3, r4
    314a:	0005      	movs	r5, r0
    314c:	0020      	movs	r0, r4
    314e:	6961      	ldr	r1, [r4, #20]
    3150:	69a2      	ldr	r2, [r4, #24]
    3152:	3314      	adds	r3, #20
    3154:	604a      	str	r2, [r1, #4]
    3156:	3044      	adds	r0, #68	; 0x44
    3158:	6011      	str	r1, [r2, #0]
    315a:	61a3      	str	r3, [r4, #24]
    315c:	6163      	str	r3, [r4, #20]
    315e:	f000 f891 	bl	3284 <rt_timer_stop>
    3162:	0028      	movs	r0, r5
    3164:	f001 fc8c 	bl	4a80 <rt_hw_interrupt_enable>
    3168:	0020      	movs	r0, r4
    316a:	f000 f9d1 	bl	3510 <rt_schedule_insert_thread>
    316e:	2000      	movs	r0, #0
    3170:	bd70      	pop	{r4, r5, r6, pc}
    3172:	2001      	movs	r0, #1
    3174:	4240      	negs	r0, r0
    3176:	e7fb      	b.n	3170 <rt_thread_resume+0x3c>

00003178 <rt_thread_find>:
    3178:	b510      	push	{r4, lr}
    317a:	2101      	movs	r1, #1
    317c:	f7ff fca8 	bl	2ad0 <rt_object_find>
    3180:	bd10      	pop	{r4, pc}
    3182:	46c0      	nop			; (mov r8, r8)

00003184 <rt_timer_init>:
    3184:	b5f0      	push	{r4, r5, r6, r7, lr}
    3186:	46c6      	mov	lr, r8
    3188:	b500      	push	{lr}
    318a:	001d      	movs	r5, r3
    318c:	ab06      	add	r3, sp, #24
    318e:	0016      	movs	r6, r2
    3190:	cb04      	ldmia	r3!, {r2}
    3192:	0004      	movs	r4, r0
    3194:	4690      	mov	r8, r2
    3196:	000a      	movs	r2, r1
    3198:	210a      	movs	r1, #10
    319a:	781f      	ldrb	r7, [r3, #0]
    319c:	f7ff fc2c 	bl	29f8 <rt_object_init>
    31a0:	2301      	movs	r3, #1
    31a2:	439f      	bics	r7, r3
    31a4:	2300      	movs	r3, #0
    31a6:	62a3      	str	r3, [r4, #40]	; 0x28
    31a8:	4643      	mov	r3, r8
    31aa:	6263      	str	r3, [r4, #36]	; 0x24
    31ac:	0023      	movs	r3, r4
    31ae:	3314      	adds	r3, #20
    31b0:	7267      	strb	r7, [r4, #9]
    31b2:	61e6      	str	r6, [r4, #28]
    31b4:	6225      	str	r5, [r4, #32]
    31b6:	61a3      	str	r3, [r4, #24]
    31b8:	6163      	str	r3, [r4, #20]
    31ba:	bc80      	pop	{r7}
    31bc:	46b8      	mov	r8, r7
    31be:	bdf0      	pop	{r4, r5, r6, r7, pc}

000031c0 <rt_timer_detach>:
    31c0:	b510      	push	{r4, lr}
    31c2:	0004      	movs	r4, r0
    31c4:	f001 fc58 	bl	4a78 <rt_hw_interrupt_disable>
    31c8:	0023      	movs	r3, r4
    31ca:	6961      	ldr	r1, [r4, #20]
    31cc:	69a2      	ldr	r2, [r4, #24]
    31ce:	3314      	adds	r3, #20
    31d0:	604a      	str	r2, [r1, #4]
    31d2:	6011      	str	r1, [r2, #0]
    31d4:	2201      	movs	r2, #1
    31d6:	61a3      	str	r3, [r4, #24]
    31d8:	6163      	str	r3, [r4, #20]
    31da:	7a63      	ldrb	r3, [r4, #9]
    31dc:	4393      	bics	r3, r2
    31de:	7263      	strb	r3, [r4, #9]
    31e0:	f001 fc4e 	bl	4a80 <rt_hw_interrupt_enable>
    31e4:	0020      	movs	r0, r4
    31e6:	f7ff fc59 	bl	2a9c <rt_object_detach>
    31ea:	2000      	movs	r0, #0
    31ec:	bd10      	pop	{r4, pc}
    31ee:	46c0      	nop			; (mov r8, r8)

000031f0 <rt_timer_start>:
    31f0:	b5f8      	push	{r3, r4, r5, r6, r7, lr}
    31f2:	46ce      	mov	lr, r9
    31f4:	4647      	mov	r7, r8
    31f6:	0004      	movs	r4, r0
    31f8:	b580      	push	{r7, lr}
    31fa:	f001 fc3d 	bl	4a78 <rt_hw_interrupt_disable>
    31fe:	6962      	ldr	r2, [r4, #20]
    3200:	69a3      	ldr	r3, [r4, #24]
    3202:	0025      	movs	r5, r4
    3204:	6053      	str	r3, [r2, #4]
    3206:	601a      	str	r2, [r3, #0]
    3208:	2201      	movs	r2, #1
    320a:	7a63      	ldrb	r3, [r4, #9]
    320c:	3514      	adds	r5, #20
    320e:	4393      	bics	r3, r2
    3210:	7263      	strb	r3, [r4, #9]
    3212:	f644 3854 	movw	r8, #19284	; 0x4b54
    3216:	61a5      	str	r5, [r4, #24]
    3218:	6165      	str	r5, [r4, #20]
    321a:	4681      	mov	r9, r0
    321c:	f000 fb36 	bl	388c <rt_tick_get>
    3220:	6a63      	ldr	r3, [r4, #36]	; 0x24
    3222:	f2c2 0800 	movt	r8, #8192	; 0x2000
    3226:	18c1      	adds	r1, r0, r3
    3228:	4643      	mov	r3, r8
    322a:	685f      	ldr	r7, [r3, #4]
    322c:	62a1      	str	r1, [r4, #40]	; 0x28
    322e:	4547      	cmp	r7, r8
    3230:	d024      	beq.n	327c <rt_timer_start+0x8c>
    3232:	f64f 76fe 	movw	r6, #65534	; 0xfffe
    3236:	f6c7 76ff 	movt	r6, #32767	; 0x7fff
    323a:	0018      	movs	r0, r3
    323c:	681b      	ldr	r3, [r3, #0]
    323e:	695a      	ldr	r2, [r3, #20]
    3240:	4291      	cmp	r1, r2
    3242:	d002      	beq.n	324a <rt_timer_start+0x5a>
    3244:	1a52      	subs	r2, r2, r1
    3246:	42b2      	cmp	r2, r6
    3248:	d903      	bls.n	3252 <rt_timer_start+0x62>
    324a:	42bb      	cmp	r3, r7
    324c:	d1f5      	bne.n	323a <rt_timer_start+0x4a>
    324e:	0018      	movs	r0, r3
    3250:	681b      	ldr	r3, [r3, #0]
    3252:	4642      	mov	r2, r8
    3254:	4641      	mov	r1, r8
    3256:	6892      	ldr	r2, [r2, #8]
    3258:	605d      	str	r5, [r3, #4]
    325a:	3201      	adds	r2, #1
    325c:	608a      	str	r2, [r1, #8]
    325e:	2201      	movs	r2, #1
    3260:	6163      	str	r3, [r4, #20]
    3262:	6005      	str	r5, [r0, #0]
    3264:	7a63      	ldrb	r3, [r4, #9]
    3266:	61a0      	str	r0, [r4, #24]
    3268:	4313      	orrs	r3, r2
    326a:	4648      	mov	r0, r9
    326c:	7263      	strb	r3, [r4, #9]
    326e:	f001 fc07 	bl	4a80 <rt_hw_interrupt_enable>
    3272:	2000      	movs	r0, #0
    3274:	bcc0      	pop	{r6, r7}
    3276:	46b9      	mov	r9, r7
    3278:	46b0      	mov	r8, r6
    327a:	bdf8      	pop	{r3, r4, r5, r6, r7, pc}
    327c:	4640      	mov	r0, r8
    327e:	681b      	ldr	r3, [r3, #0]
    3280:	e7e7      	b.n	3252 <rt_timer_start+0x62>
    3282:	46c0      	nop			; (mov r8, r8)

00003284 <rt_timer_stop>:
    3284:	b570      	push	{r4, r5, r6, lr}
    3286:	2501      	movs	r5, #1
    3288:	7a43      	ldrb	r3, [r0, #9]
    328a:	0004      	movs	r4, r0
    328c:	421d      	tst	r5, r3
    328e:	d010      	beq.n	32b2 <rt_timer_stop+0x2e>
    3290:	f001 fbf2 	bl	4a78 <rt_hw_interrupt_disable>
    3294:	0023      	movs	r3, r4
    3296:	6961      	ldr	r1, [r4, #20]
    3298:	69a2      	ldr	r2, [r4, #24]
    329a:	3314      	adds	r3, #20
    329c:	604a      	str	r2, [r1, #4]
    329e:	6011      	str	r1, [r2, #0]
    32a0:	61a3      	str	r3, [r4, #24]
    32a2:	6163      	str	r3, [r4, #20]
    32a4:	7a63      	ldrb	r3, [r4, #9]
    32a6:	43ab      	bics	r3, r5
    32a8:	7263      	strb	r3, [r4, #9]
    32aa:	f001 fbe9 	bl	4a80 <rt_hw_interrupt_enable>
    32ae:	2000      	movs	r0, #0
    32b0:	bd70      	pop	{r4, r5, r6, pc}
    32b2:	2001      	movs	r0, #1
    32b4:	4240      	negs	r0, r0
    32b6:	e7fb      	b.n	32b0 <rt_timer_stop+0x2c>

000032b8 <rt_timer_control>:
    32b8:	b570      	push	{r4, r5, r6, lr}
    32ba:	000c      	movs	r4, r1
    32bc:	0005      	movs	r5, r0
    32be:	0016      	movs	r6, r2
    32c0:	f001 fbda 	bl	4a78 <rt_hw_interrupt_disable>
    32c4:	2c04      	cmp	r4, #4
    32c6:	d805      	bhi.n	32d4 <rt_timer_control+0x1c>
    32c8:	4b10      	ldr	r3, [pc, #64]	; (330c <rt_timer_control+0x54>)
    32ca:	00a4      	lsls	r4, r4, #2
    32cc:	591b      	ldr	r3, [r3, r4]
    32ce:	469f      	mov	pc, r3
    32d0:	6a6b      	ldr	r3, [r5, #36]	; 0x24
    32d2:	6033      	str	r3, [r6, #0]
    32d4:	f001 fbd4 	bl	4a80 <rt_hw_interrupt_enable>
    32d8:	2000      	movs	r0, #0
    32da:	bd70      	pop	{r4, r5, r6, pc}
    32dc:	2202      	movs	r2, #2
    32de:	7a6b      	ldrb	r3, [r5, #9]
    32e0:	4313      	orrs	r3, r2
    32e2:	726b      	strb	r3, [r5, #9]
    32e4:	e7f6      	b.n	32d4 <rt_timer_control+0x1c>
    32e6:	2301      	movs	r3, #1
    32e8:	0019      	movs	r1, r3
    32ea:	7a6a      	ldrb	r2, [r5, #9]
    32ec:	4011      	ands	r1, r2
    32ee:	4213      	tst	r3, r2
    32f0:	d009      	beq.n	3306 <rt_timer_control+0x4e>
    32f2:	6033      	str	r3, [r6, #0]
    32f4:	e7ee      	b.n	32d4 <rt_timer_control+0x1c>
    32f6:	6833      	ldr	r3, [r6, #0]
    32f8:	626b      	str	r3, [r5, #36]	; 0x24
    32fa:	e7eb      	b.n	32d4 <rt_timer_control+0x1c>
    32fc:	2202      	movs	r2, #2
    32fe:	7a6b      	ldrb	r3, [r5, #9]
    3300:	4393      	bics	r3, r2
    3302:	726b      	strb	r3, [r5, #9]
    3304:	e7e6      	b.n	32d4 <rt_timer_control+0x1c>
    3306:	6031      	str	r1, [r6, #0]
    3308:	e7e4      	b.n	32d4 <rt_timer_control+0x1c>
    330a:	46c0      	nop			; (mov r8, r8)
    330c:	00006030 	andeq	r6, r0, r0, lsr r0

00003310 <rt_timer_check>:
    3310:	b5f0      	push	{r4, r5, r6, r7, lr}
    3312:	46de      	mov	lr, fp
    3314:	4657      	mov	r7, sl
    3316:	464e      	mov	r6, r9
    3318:	4645      	mov	r5, r8
    331a:	b5e0      	push	{r5, r6, r7, lr}
    331c:	b085      	sub	sp, #20
    331e:	ae02      	add	r6, sp, #8
    3320:	f644 3854 	movw	r8, #19284	; 0x4b54
    3324:	6076      	str	r6, [r6, #4]
    3326:	9602      	str	r6, [sp, #8]
    3328:	f000 fab0 	bl	388c <rt_tick_get>
    332c:	f2c2 0800 	movt	r8, #8192	; 0x2000
    3330:	0007      	movs	r7, r0
    3332:	f001 fba1 	bl	4a78 <rt_hw_interrupt_disable>
    3336:	4643      	mov	r3, r8
    3338:	681c      	ldr	r4, [r3, #0]
    333a:	9001      	str	r0, [sp, #4]
    333c:	4544      	cmp	r4, r8
    333e:	d04d      	beq.n	33dc <rt_timer_check+0xcc>
    3340:	0025      	movs	r5, r4
    3342:	696b      	ldr	r3, [r5, #20]
    3344:	3d14      	subs	r5, #20
    3346:	1aff      	subs	r7, r7, r3
    3348:	f64f 73fe 	movw	r3, #65534	; 0xfffe
    334c:	f6c7 73ff 	movt	r3, #32767	; 0x7fff
    3350:	429f      	cmp	r7, r3
    3352:	d843      	bhi.n	33dc <rt_timer_check+0xcc>
    3354:	f240 0902 	movw	r9, #2
    3358:	f240 0b01 	movw	fp, #1
    335c:	f240 0a03 	movw	sl, #3
    3360:	e00d      	b.n	337e <rt_timer_check+0x6e>
    3362:	4643      	mov	r3, r8
    3364:	681c      	ldr	r4, [r3, #0]
    3366:	4544      	cmp	r4, r8
    3368:	d038      	beq.n	33dc <rt_timer_check+0xcc>
    336a:	0025      	movs	r5, r4
    336c:	696b      	ldr	r3, [r5, #20]
    336e:	3d14      	subs	r5, #20
    3370:	1aff      	subs	r7, r7, r3
    3372:	f64f 73fe 	movw	r3, #65534	; 0xfffe
    3376:	f6c7 73ff 	movt	r3, #32767	; 0x7fff
    337a:	429f      	cmp	r7, r3
    337c:	d82e      	bhi.n	33dc <rt_timer_check+0xcc>
    337e:	696a      	ldr	r2, [r5, #20]
    3380:	69ab      	ldr	r3, [r5, #24]
    3382:	6053      	str	r3, [r2, #4]
    3384:	601a      	str	r2, [r3, #0]
    3386:	464a      	mov	r2, r9
    3388:	7a6b      	ldrb	r3, [r5, #9]
    338a:	616c      	str	r4, [r5, #20]
    338c:	421a      	tst	r2, r3
    338e:	d102      	bne.n	3396 <rt_timer_check+0x86>
    3390:	465a      	mov	r2, fp
    3392:	4393      	bics	r3, r2
    3394:	726b      	strb	r3, [r5, #9]
    3396:	6833      	ldr	r3, [r6, #0]
    3398:	6a28      	ldr	r0, [r5, #32]
    339a:	605c      	str	r4, [r3, #4]
    339c:	6023      	str	r3, [r4, #0]
    339e:	6066      	str	r6, [r4, #4]
    33a0:	69eb      	ldr	r3, [r5, #28]
    33a2:	6034      	str	r4, [r6, #0]
    33a4:	4798      	blx	r3
    33a6:	f000 fa71 	bl	388c <rt_tick_get>
    33aa:	6833      	ldr	r3, [r6, #0]
    33ac:	0007      	movs	r7, r0
    33ae:	42b3      	cmp	r3, r6
    33b0:	d0d7      	beq.n	3362 <rt_timer_check+0x52>
    33b2:	6822      	ldr	r2, [r4, #0]
    33b4:	6863      	ldr	r3, [r4, #4]
    33b6:	6053      	str	r3, [r2, #4]
    33b8:	601a      	str	r2, [r3, #0]
    33ba:	4652      	mov	r2, sl
    33bc:	6064      	str	r4, [r4, #4]
    33be:	6024      	str	r4, [r4, #0]
    33c0:	7a6b      	ldrb	r3, [r5, #9]
    33c2:	401a      	ands	r2, r3
    33c4:	2a03      	cmp	r2, #3
    33c6:	d1cc      	bne.n	3362 <rt_timer_check+0x52>
    33c8:	465a      	mov	r2, fp
    33ca:	4393      	bics	r3, r2
    33cc:	726b      	strb	r3, [r5, #9]
    33ce:	0028      	movs	r0, r5
    33d0:	f7ff ff0e 	bl	31f0 <rt_timer_start>
    33d4:	4643      	mov	r3, r8
    33d6:	681c      	ldr	r4, [r3, #0]
    33d8:	4544      	cmp	r4, r8
    33da:	d1c6      	bne.n	336a <rt_timer_check+0x5a>
    33dc:	9801      	ldr	r0, [sp, #4]
    33de:	f001 fb4f 	bl	4a80 <rt_hw_interrupt_enable>
    33e2:	b005      	add	sp, #20
    33e4:	bcf0      	pop	{r4, r5, r6, r7}
    33e6:	46bb      	mov	fp, r7
    33e8:	46b2      	mov	sl, r6
    33ea:	46a9      	mov	r9, r5
    33ec:	46a0      	mov	r8, r4
    33ee:	bdf0      	pop	{r4, r5, r6, r7, pc}

000033f0 <rt_timer_next_timeout_tick>:
    33f0:	b510      	push	{r4, lr}
    33f2:	f001 fb41 	bl	4a78 <rt_hw_interrupt_disable>
    33f6:	f644 3354 	movw	r3, #19284	; 0x4b54
    33fa:	f2c2 0300 	movt	r3, #8192	; 0x2000
    33fe:	681a      	ldr	r2, [r3, #0]
    3400:	429a      	cmp	r2, r3
    3402:	d004      	beq.n	340e <rt_timer_next_timeout_tick+0x1e>
    3404:	6954      	ldr	r4, [r2, #20]
    3406:	f001 fb3b 	bl	4a80 <rt_hw_interrupt_enable>
    340a:	0020      	movs	r0, r4
    340c:	bd10      	pop	{r4, pc}
    340e:	2401      	movs	r4, #1
    3410:	4264      	negs	r4, r4
    3412:	e7f8      	b.n	3406 <rt_timer_next_timeout_tick+0x16>

00003414 <rt_system_timer_init>:
    3414:	f644 3354 	movw	r3, #19284	; 0x4b54
    3418:	f2c2 0300 	movt	r3, #8192	; 0x2000
    341c:	605b      	str	r3, [r3, #4]
    341e:	601b      	str	r3, [r3, #0]
    3420:	4770      	bx	lr
    3422:	46c0      	nop			; (mov r8, r8)

00003424 <rt_system_timer_thread_init>:
    3424:	4770      	bx	lr
    3426:	46c0      	nop			; (mov r8, r8)

00003428 <rt_system_scheduler_init>:
    3428:	f644 3360 	movw	r3, #19296	; 0x4b60
    342c:	f2c2 0300 	movt	r3, #8192	; 0x2000
    3430:	1d19      	adds	r1, r3, #4
    3432:	6099      	str	r1, [r3, #8]
    3434:	6059      	str	r1, [r3, #4]
    3436:	0019      	movs	r1, r3
    3438:	310c      	adds	r1, #12
    343a:	6119      	str	r1, [r3, #16]
    343c:	60d9      	str	r1, [r3, #12]
    343e:	0019      	movs	r1, r3
    3440:	3114      	adds	r1, #20
    3442:	6199      	str	r1, [r3, #24]
    3444:	6159      	str	r1, [r3, #20]
    3446:	0019      	movs	r1, r3
    3448:	311c      	adds	r1, #28
    344a:	6219      	str	r1, [r3, #32]
    344c:	61d9      	str	r1, [r3, #28]
    344e:	0019      	movs	r1, r3
    3450:	3124      	adds	r1, #36	; 0x24
    3452:	6299      	str	r1, [r3, #40]	; 0x28
    3454:	6259      	str	r1, [r3, #36]	; 0x24
    3456:	0019      	movs	r1, r3
    3458:	312c      	adds	r1, #44	; 0x2c
    345a:	6319      	str	r1, [r3, #48]	; 0x30
    345c:	62d9      	str	r1, [r3, #44]	; 0x2c
    345e:	0019      	movs	r1, r3
    3460:	3134      	adds	r1, #52	; 0x34
    3462:	2200      	movs	r2, #0
    3464:	6399      	str	r1, [r3, #56]	; 0x38
    3466:	6359      	str	r1, [r3, #52]	; 0x34
    3468:	0019      	movs	r1, r3
    346a:	801a      	strh	r2, [r3, #0]
    346c:	313c      	adds	r1, #60	; 0x3c
    346e:	649a      	str	r2, [r3, #72]	; 0x48
    3470:	64da      	str	r2, [r3, #76]	; 0x4c
    3472:	001a      	movs	r2, r3
    3474:	2007      	movs	r0, #7
    3476:	6419      	str	r1, [r3, #64]	; 0x40
    3478:	63d9      	str	r1, [r3, #60]	; 0x3c
    347a:	2144      	movs	r1, #68	; 0x44
    347c:	3250      	adds	r2, #80	; 0x50
    347e:	5458      	strb	r0, [r3, r1]
    3480:	655a      	str	r2, [r3, #84]	; 0x54
    3482:	651a      	str	r2, [r3, #80]	; 0x50
    3484:	4770      	bx	lr
    3486:	46c0      	nop			; (mov r8, r8)

00003488 <rt_system_scheduler_start>:
    3488:	b510      	push	{r4, lr}
    348a:	f644 3460 	movw	r4, #19296	; 0x4b60
    348e:	f2c2 0400 	movt	r4, #8192	; 0x2000
    3492:	6ce0      	ldr	r0, [r4, #76]	; 0x4c
    3494:	f001 f970 	bl	4778 <__rt_ffs>
    3498:	46a4      	mov	ip, r4
    349a:	3801      	subs	r0, #1
    349c:	00c0      	lsls	r0, r0, #3
    349e:	4460      	add	r0, ip
    34a0:	6840      	ldr	r0, [r0, #4]
    34a2:	0003      	movs	r3, r0
    34a4:	3008      	adds	r0, #8
    34a6:	3b14      	subs	r3, #20
    34a8:	64a3      	str	r3, [r4, #72]	; 0x48
    34aa:	f001 fb24 	bl	4af6 <rt_hw_context_switch_to>
    34ae:	bd10      	pop	{r4, pc}

000034b0 <rt_schedule>:
    34b0:	b570      	push	{r4, r5, r6, lr}
    34b2:	f644 3460 	movw	r4, #19296	; 0x4b60
    34b6:	f001 fadf 	bl	4a78 <rt_hw_interrupt_disable>
    34ba:	f2c2 0400 	movt	r4, #8192	; 0x2000
    34be:	2200      	movs	r2, #0
    34c0:	5ea3      	ldrsh	r3, [r4, r2]
    34c2:	0005      	movs	r5, r0
    34c4:	b9d3      	cbnz	r3, 34fc <rt_schedule+0x4c>
    34c6:	6ce0      	ldr	r0, [r4, #76]	; 0x4c
    34c8:	f001 f956 	bl	4778 <__rt_ffs>
    34cc:	46a4      	mov	ip, r4
    34ce:	3801      	subs	r0, #1
    34d0:	00c3      	lsls	r3, r0, #3
    34d2:	4463      	add	r3, ip
    34d4:	6859      	ldr	r1, [r3, #4]
    34d6:	6ca3      	ldr	r3, [r4, #72]	; 0x48
    34d8:	000a      	movs	r2, r1
    34da:	3a14      	subs	r2, #20
    34dc:	4293      	cmp	r3, r2
    34de:	d00d      	beq.n	34fc <rt_schedule+0x4c>
    34e0:	64a2      	str	r2, [r4, #72]	; 0x48
    34e2:	f644 3250 	movw	r2, #19280	; 0x4b50
    34e6:	2644      	movs	r6, #68	; 0x44
    34e8:	f2c2 0200 	movt	r2, #8192	; 0x2000
    34ec:	7812      	ldrb	r2, [r2, #0]
    34ee:	331c      	adds	r3, #28
    34f0:	55a0      	strb	r0, [r4, r6]
    34f2:	3108      	adds	r1, #8
    34f4:	0018      	movs	r0, r3
    34f6:	b12a      	cbz	r2, 3504 <rt_schedule+0x54>
    34f8:	f001 fac5 	bl	4a86 <rt_hw_context_switch>
    34fc:	0028      	movs	r0, r5
    34fe:	f001 fabf 	bl	4a80 <rt_hw_interrupt_enable>
    3502:	bd70      	pop	{r4, r5, r6, pc}
    3504:	f001 fabf 	bl	4a86 <rt_hw_context_switch>
    3508:	0028      	movs	r0, r5
    350a:	f001 fab9 	bl	4a80 <rt_hw_interrupt_enable>
    350e:	e7f8      	b.n	3502 <rt_schedule+0x52>

00003510 <rt_schedule_insert_thread>:
    3510:	b570      	push	{r4, r5, r6, lr}
    3512:	0004      	movs	r4, r0
    3514:	f001 fab0 	bl	4a78 <rt_hw_interrupt_disable>
    3518:	2234      	movs	r2, #52	; 0x34
    351a:	210f      	movs	r1, #15
    351c:	5ca3      	ldrb	r3, [r4, r2]
    351e:	0025      	movs	r5, r4
    3520:	438b      	bics	r3, r1
    3522:	2101      	movs	r1, #1
    3524:	430b      	orrs	r3, r1
    3526:	54a3      	strb	r3, [r4, r2]
    3528:	2335      	movs	r3, #53	; 0x35
    352a:	5ce2      	ldrb	r2, [r4, r3]
    352c:	f644 3360 	movw	r3, #19296	; 0x4b60
    3530:	00d2      	lsls	r2, r2, #3
    3532:	f2c2 0300 	movt	r3, #8192	; 0x2000
    3536:	18d1      	adds	r1, r2, r3
    3538:	688e      	ldr	r6, [r1, #8]
    353a:	3514      	adds	r5, #20
    353c:	6035      	str	r5, [r6, #0]
    353e:	61a6      	str	r6, [r4, #24]
    3540:	608d      	str	r5, [r1, #8]
    3542:	1d19      	adds	r1, r3, #4
    3544:	188a      	adds	r2, r1, r2
    3546:	6162      	str	r2, [r4, #20]
    3548:	6cd9      	ldr	r1, [r3, #76]	; 0x4c
    354a:	6ba2      	ldr	r2, [r4, #56]	; 0x38
    354c:	430a      	orrs	r2, r1
    354e:	64da      	str	r2, [r3, #76]	; 0x4c
    3550:	f001 fa96 	bl	4a80 <rt_hw_interrupt_enable>
    3554:	bd70      	pop	{r4, r5, r6, pc}
    3556:	46c0      	nop			; (mov r8, r8)

00003558 <rt_schedule_remove_thread>:
    3558:	b570      	push	{r4, r5, r6, lr}
    355a:	0004      	movs	r4, r0
    355c:	f001 fa8c 	bl	4a78 <rt_hw_interrupt_disable>
    3560:	0023      	movs	r3, r4
    3562:	6961      	ldr	r1, [r4, #20]
    3564:	69a2      	ldr	r2, [r4, #24]
    3566:	3314      	adds	r3, #20
    3568:	604a      	str	r2, [r1, #4]
    356a:	6011      	str	r1, [r2, #0]
    356c:	f644 3260 	movw	r2, #19296	; 0x4b60
    3570:	61a3      	str	r3, [r4, #24]
    3572:	6163      	str	r3, [r4, #20]
    3574:	2335      	movs	r3, #53	; 0x35
    3576:	f2c2 0200 	movt	r2, #8192	; 0x2000
    357a:	4694      	mov	ip, r2
    357c:	5ce3      	ldrb	r3, [r4, r3]
    357e:	1d11      	adds	r1, r2, #4
    3580:	00db      	lsls	r3, r3, #3
    3582:	18c9      	adds	r1, r1, r3
    3584:	4463      	add	r3, ip
    3586:	685b      	ldr	r3, [r3, #4]
    3588:	428b      	cmp	r3, r1
    358a:	d002      	beq.n	3592 <rt_schedule_remove_thread+0x3a>
    358c:	f001 fa78 	bl	4a80 <rt_hw_interrupt_enable>
    3590:	bd70      	pop	{r4, r5, r6, pc}
    3592:	6cd1      	ldr	r1, [r2, #76]	; 0x4c
    3594:	6ba3      	ldr	r3, [r4, #56]	; 0x38
    3596:	4399      	bics	r1, r3
    3598:	64d1      	str	r1, [r2, #76]	; 0x4c
    359a:	e7f7      	b.n	358c <rt_schedule_remove_thread+0x34>

0000359c <rt_enter_critical>:
    359c:	b510      	push	{r4, lr}
    359e:	f001 fa6b 	bl	4a78 <rt_hw_interrupt_disable>
    35a2:	f644 3360 	movw	r3, #19296	; 0x4b60
    35a6:	f2c2 0300 	movt	r3, #8192	; 0x2000
    35aa:	881a      	ldrh	r2, [r3, #0]
    35ac:	3201      	adds	r2, #1
    35ae:	801a      	strh	r2, [r3, #0]
    35b0:	f001 fa66 	bl	4a80 <rt_hw_interrupt_enable>
    35b4:	bd10      	pop	{r4, pc}
    35b6:	46c0      	nop			; (mov r8, r8)

000035b8 <rt_exit_critical>:
    35b8:	b510      	push	{r4, lr}
    35ba:	f644 3460 	movw	r4, #19296	; 0x4b60
    35be:	f2c2 0400 	movt	r4, #8192	; 0x2000
    35c2:	f001 fa59 	bl	4a78 <rt_hw_interrupt_disable>
    35c6:	8823      	ldrh	r3, [r4, #0]
    35c8:	3b01      	subs	r3, #1
    35ca:	b21b      	sxth	r3, r3
    35cc:	8023      	strh	r3, [r4, #0]
    35ce:	2b00      	cmp	r3, #0
    35d0:	dd02      	ble.n	35d8 <rt_exit_critical+0x20>
    35d2:	f001 fa55 	bl	4a80 <rt_hw_interrupt_enable>
    35d6:	bd10      	pop	{r4, pc}
    35d8:	2300      	movs	r3, #0
    35da:	8023      	strh	r3, [r4, #0]
    35dc:	f001 fa50 	bl	4a80 <rt_hw_interrupt_enable>
    35e0:	6ca3      	ldr	r3, [r4, #72]	; 0x48
    35e2:	2b00      	cmp	r3, #0
    35e4:	d0f7      	beq.n	35d6 <rt_exit_critical+0x1e>
    35e6:	f7ff ff63 	bl	34b0 <rt_schedule>
    35ea:	e7f4      	b.n	35d6 <rt_exit_critical+0x1e>

000035ec <rt_critical_level>:
    35ec:	f644 3360 	movw	r3, #19296	; 0x4b60
    35f0:	f2c2 0300 	movt	r3, #8192	; 0x2000
    35f4:	8818      	ldrh	r0, [r3, #0]
    35f6:	4770      	bx	lr

000035f8 <rt_sem_init>:
    35f8:	b570      	push	{r4, r5, r6, lr}
    35fa:	0004      	movs	r4, r0
    35fc:	0016      	movs	r6, r2
    35fe:	000a      	movs	r2, r1
    3600:	2102      	movs	r1, #2
    3602:	001d      	movs	r5, r3
    3604:	f7ff f9f8 	bl	29f8 <rt_object_init>
    3608:	0023      	movs	r3, r4
    360a:	3314      	adds	r3, #20
    360c:	2000      	movs	r0, #0
    360e:	83a6      	strh	r6, [r4, #28]
    3610:	7265      	strb	r5, [r4, #9]
    3612:	61a3      	str	r3, [r4, #24]
    3614:	6163      	str	r3, [r4, #20]
    3616:	bd70      	pop	{r4, r5, r6, pc}

00003618 <rt_sem_detach>:
    3618:	b5f8      	push	{r3, r4, r5, r6, r7, lr}
    361a:	0006      	movs	r6, r0
    361c:	6943      	ldr	r3, [r0, #20]
    361e:	3614      	adds	r6, #20
    3620:	0005      	movs	r5, r0
    3622:	429e      	cmp	r6, r3
    3624:	d00f      	beq.n	3646 <rt_sem_detach+0x2e>
    3626:	2701      	movs	r7, #1
    3628:	427f      	negs	r7, r7
    362a:	f001 fa25 	bl	4a78 <rt_hw_interrupt_disable>
    362e:	0004      	movs	r4, r0
    3630:	6968      	ldr	r0, [r5, #20]
    3632:	3814      	subs	r0, #20
    3634:	6307      	str	r7, [r0, #48]	; 0x30
    3636:	f7ff fd7d 	bl	3134 <rt_thread_resume>
    363a:	0020      	movs	r0, r4
    363c:	f001 fa20 	bl	4a80 <rt_hw_interrupt_enable>
    3640:	696b      	ldr	r3, [r5, #20]
    3642:	429e      	cmp	r6, r3
    3644:	d1f1      	bne.n	362a <rt_sem_detach+0x12>
    3646:	0028      	movs	r0, r5
    3648:	f7ff fa28 	bl	2a9c <rt_object_detach>
    364c:	2000      	movs	r0, #0
    364e:	bdf8      	pop	{r3, r4, r5, r6, r7, pc}

00003650 <rt_sem_take>:
    3650:	b5f0      	push	{r4, r5, r6, r7, lr}
    3652:	46c6      	mov	lr, r8
    3654:	b500      	push	{lr}
    3656:	0004      	movs	r4, r0
    3658:	b082      	sub	sp, #8
    365a:	9101      	str	r1, [sp, #4]
    365c:	f001 fa0c 	bl	4a78 <rt_hw_interrupt_disable>
    3660:	8ba7      	ldrh	r7, [r4, #28]
    3662:	0006      	movs	r6, r0
    3664:	2f00      	cmp	r7, #0
    3666:	d14a      	bne.n	36fe <rt_sem_take+0xae>
    3668:	9b01      	ldr	r3, [sp, #4]
    366a:	2b00      	cmp	r3, #0
    366c:	d04d      	beq.n	370a <rt_sem_take+0xba>
    366e:	f7ff fb27 	bl	2cc0 <rt_thread_self>
    3672:	6307      	str	r7, [r0, #48]	; 0x30
    3674:	7a63      	ldrb	r3, [r4, #9]
    3676:	0005      	movs	r5, r0
    3678:	4698      	mov	r8, r3
    367a:	0027      	movs	r7, r4
    367c:	f7ff fd3a 	bl	30f4 <rt_thread_suspend>
    3680:	4643      	mov	r3, r8
    3682:	3714      	adds	r7, #20
    3684:	2b00      	cmp	r3, #0
    3686:	d02f      	beq.n	36e8 <rt_sem_take+0x98>
    3688:	2b01      	cmp	r3, #1
    368a:	d115      	bne.n	36b8 <rt_sem_take+0x68>
    368c:	6963      	ldr	r3, [r4, #20]
    368e:	429f      	cmp	r7, r3
    3690:	d02a      	beq.n	36e8 <rt_sem_take+0x98>
    3692:	2235      	movs	r2, #53	; 0x35
    3694:	2135      	movs	r1, #53	; 0x35
    3696:	5ca8      	ldrb	r0, [r5, r2]
    3698:	e002      	b.n	36a0 <rt_sem_take+0x50>
    369a:	681b      	ldr	r3, [r3, #0]
    369c:	429f      	cmp	r7, r3
    369e:	d023      	beq.n	36e8 <rt_sem_take+0x98>
    36a0:	001a      	movs	r2, r3
    36a2:	3a14      	subs	r2, #20
    36a4:	5c52      	ldrb	r2, [r2, r1]
    36a6:	4282      	cmp	r2, r0
    36a8:	d9f7      	bls.n	369a <rt_sem_take+0x4a>
    36aa:	002a      	movs	r2, r5
    36ac:	6859      	ldr	r1, [r3, #4]
    36ae:	3214      	adds	r2, #20
    36b0:	600a      	str	r2, [r1, #0]
    36b2:	61a9      	str	r1, [r5, #24]
    36b4:	605a      	str	r2, [r3, #4]
    36b6:	616b      	str	r3, [r5, #20]
    36b8:	9b01      	ldr	r3, [sp, #4]
    36ba:	2b00      	cmp	r3, #0
    36bc:	dc09      	bgt.n	36d2 <rt_sem_take+0x82>
    36be:	0030      	movs	r0, r6
    36c0:	f001 f9de 	bl	4a80 <rt_hw_interrupt_enable>
    36c4:	f7ff fef4 	bl	34b0 <rt_schedule>
    36c8:	6b28      	ldr	r0, [r5, #48]	; 0x30
    36ca:	b002      	add	sp, #8
    36cc:	bc80      	pop	{r7}
    36ce:	46b8      	mov	r8, r7
    36d0:	bdf0      	pop	{r4, r5, r6, r7, pc}
    36d2:	002c      	movs	r4, r5
    36d4:	3444      	adds	r4, #68	; 0x44
    36d6:	2100      	movs	r1, #0
    36d8:	0020      	movs	r0, r4
    36da:	aa01      	add	r2, sp, #4
    36dc:	f7ff fdec 	bl	32b8 <rt_timer_control>
    36e0:	0020      	movs	r0, r4
    36e2:	f7ff fd85 	bl	31f0 <rt_timer_start>
    36e6:	e7ea      	b.n	36be <rt_sem_take+0x6e>
    36e8:	002b      	movs	r3, r5
    36ea:	69a2      	ldr	r2, [r4, #24]
    36ec:	3314      	adds	r3, #20
    36ee:	6013      	str	r3, [r2, #0]
    36f0:	61aa      	str	r2, [r5, #24]
    36f2:	61a3      	str	r3, [r4, #24]
    36f4:	9b01      	ldr	r3, [sp, #4]
    36f6:	616f      	str	r7, [r5, #20]
    36f8:	2b00      	cmp	r3, #0
    36fa:	dde0      	ble.n	36be <rt_sem_take+0x6e>
    36fc:	e7e9      	b.n	36d2 <rt_sem_take+0x82>
    36fe:	3f01      	subs	r7, #1
    3700:	83a7      	strh	r7, [r4, #28]
    3702:	f001 f9bd 	bl	4a80 <rt_hw_interrupt_enable>
    3706:	2000      	movs	r0, #0
    3708:	e7df      	b.n	36ca <rt_sem_take+0x7a>
    370a:	f001 f9b9 	bl	4a80 <rt_hw_interrupt_enable>
    370e:	2002      	movs	r0, #2
    3710:	4240      	negs	r0, r0
    3712:	e7da      	b.n	36ca <rt_sem_take+0x7a>

00003714 <rt_sem_trytake>:
    3714:	b5f0      	push	{r4, r5, r6, r7, lr}
    3716:	46c6      	mov	lr, r8
    3718:	2300      	movs	r3, #0
    371a:	b500      	push	{lr}
    371c:	0004      	movs	r4, r0
    371e:	b082      	sub	sp, #8
    3720:	9301      	str	r3, [sp, #4]
    3722:	f001 f9a9 	bl	4a78 <rt_hw_interrupt_disable>
    3726:	8ba7      	ldrh	r7, [r4, #28]
    3728:	0006      	movs	r6, r0
    372a:	2f00      	cmp	r7, #0
    372c:	d14a      	bne.n	37c4 <rt_sem_trytake+0xb0>
    372e:	9b01      	ldr	r3, [sp, #4]
    3730:	2b00      	cmp	r3, #0
    3732:	d04d      	beq.n	37d0 <rt_sem_trytake+0xbc>
    3734:	f7ff fac4 	bl	2cc0 <rt_thread_self>
    3738:	6307      	str	r7, [r0, #48]	; 0x30
    373a:	7a63      	ldrb	r3, [r4, #9]
    373c:	0005      	movs	r5, r0
    373e:	4698      	mov	r8, r3
    3740:	0027      	movs	r7, r4
    3742:	f7ff fcd7 	bl	30f4 <rt_thread_suspend>
    3746:	4643      	mov	r3, r8
    3748:	3714      	adds	r7, #20
    374a:	2b00      	cmp	r3, #0
    374c:	d02f      	beq.n	37ae <rt_sem_trytake+0x9a>
    374e:	2b01      	cmp	r3, #1
    3750:	d115      	bne.n	377e <rt_sem_trytake+0x6a>
    3752:	6963      	ldr	r3, [r4, #20]
    3754:	429f      	cmp	r7, r3
    3756:	d02a      	beq.n	37ae <rt_sem_trytake+0x9a>
    3758:	2235      	movs	r2, #53	; 0x35
    375a:	2135      	movs	r1, #53	; 0x35
    375c:	5ca8      	ldrb	r0, [r5, r2]
    375e:	e002      	b.n	3766 <rt_sem_trytake+0x52>
    3760:	681b      	ldr	r3, [r3, #0]
    3762:	429f      	cmp	r7, r3
    3764:	d023      	beq.n	37ae <rt_sem_trytake+0x9a>
    3766:	001a      	movs	r2, r3
    3768:	3a14      	subs	r2, #20
    376a:	5c52      	ldrb	r2, [r2, r1]
    376c:	4282      	cmp	r2, r0
    376e:	d9f7      	bls.n	3760 <rt_sem_trytake+0x4c>
    3770:	002a      	movs	r2, r5
    3772:	6859      	ldr	r1, [r3, #4]
    3774:	3214      	adds	r2, #20
    3776:	600a      	str	r2, [r1, #0]
    3778:	61a9      	str	r1, [r5, #24]
    377a:	605a      	str	r2, [r3, #4]
    377c:	616b      	str	r3, [r5, #20]
    377e:	9b01      	ldr	r3, [sp, #4]
    3780:	2b00      	cmp	r3, #0
    3782:	dc09      	bgt.n	3798 <rt_sem_trytake+0x84>
    3784:	0030      	movs	r0, r6
    3786:	f001 f97b 	bl	4a80 <rt_hw_interrupt_enable>
    378a:	f7ff fe91 	bl	34b0 <rt_schedule>
    378e:	6b28      	ldr	r0, [r5, #48]	; 0x30
    3790:	b002      	add	sp, #8
    3792:	bc80      	pop	{r7}
    3794:	46b8      	mov	r8, r7
    3796:	bdf0      	pop	{r4, r5, r6, r7, pc}
    3798:	002c      	movs	r4, r5
    379a:	3444      	adds	r4, #68	; 0x44
    379c:	2100      	movs	r1, #0
    379e:	0020      	movs	r0, r4
    37a0:	aa01      	add	r2, sp, #4
    37a2:	f7ff fd89 	bl	32b8 <rt_timer_control>
    37a6:	0020      	movs	r0, r4
    37a8:	f7ff fd22 	bl	31f0 <rt_timer_start>
    37ac:	e7ea      	b.n	3784 <rt_sem_trytake+0x70>
    37ae:	002b      	movs	r3, r5
    37b0:	69a2      	ldr	r2, [r4, #24]
    37b2:	3314      	adds	r3, #20
    37b4:	6013      	str	r3, [r2, #0]
    37b6:	61aa      	str	r2, [r5, #24]
    37b8:	61a3      	str	r3, [r4, #24]
    37ba:	9b01      	ldr	r3, [sp, #4]
    37bc:	616f      	str	r7, [r5, #20]
    37be:	2b00      	cmp	r3, #0
    37c0:	dde0      	ble.n	3784 <rt_sem_trytake+0x70>
    37c2:	e7e9      	b.n	3798 <rt_sem_trytake+0x84>
    37c4:	3f01      	subs	r7, #1
    37c6:	83a7      	strh	r7, [r4, #28]
    37c8:	f001 f95a 	bl	4a80 <rt_hw_interrupt_enable>
    37cc:	2000      	movs	r0, #0
    37ce:	e7df      	b.n	3790 <rt_sem_trytake+0x7c>
    37d0:	f001 f956 	bl	4a80 <rt_hw_interrupt_enable>
    37d4:	2002      	movs	r0, #2
    37d6:	4240      	negs	r0, r0
    37d8:	e7da      	b.n	3790 <rt_sem_trytake+0x7c>
    37da:	46c0      	nop			; (mov r8, r8)

000037dc <rt_sem_release>:
    37dc:	b570      	push	{r4, r5, r6, lr}
    37de:	0004      	movs	r4, r0
    37e0:	f001 f94a 	bl	4a78 <rt_hw_interrupt_disable>
    37e4:	0023      	movs	r3, r4
    37e6:	0005      	movs	r5, r0
    37e8:	6960      	ldr	r0, [r4, #20]
    37ea:	3314      	adds	r3, #20
    37ec:	4298      	cmp	r0, r3
    37ee:	d009      	beq.n	3804 <rt_sem_release+0x28>
    37f0:	3814      	subs	r0, #20
    37f2:	f7ff fc9f 	bl	3134 <rt_thread_resume>
    37f6:	0028      	movs	r0, r5
    37f8:	f001 f942 	bl	4a80 <rt_hw_interrupt_enable>
    37fc:	f7ff fe58 	bl	34b0 <rt_schedule>
    3800:	2000      	movs	r0, #0
    3802:	bd70      	pop	{r4, r5, r6, pc}
    3804:	f64f 72ff 	movw	r2, #65535	; 0xffff
    3808:	8ba3      	ldrh	r3, [r4, #28]
    380a:	4293      	cmp	r3, r2
    380c:	d006      	beq.n	381c <rt_sem_release+0x40>
    380e:	3301      	adds	r3, #1
    3810:	0028      	movs	r0, r5
    3812:	83a3      	strh	r3, [r4, #28]
    3814:	f001 f934 	bl	4a80 <rt_hw_interrupt_enable>
    3818:	2000      	movs	r0, #0
    381a:	e7f2      	b.n	3802 <rt_sem_release+0x26>
    381c:	0028      	movs	r0, r5
    381e:	f001 f92f 	bl	4a80 <rt_hw_interrupt_enable>
    3822:	2003      	movs	r0, #3
    3824:	4240      	negs	r0, r0
    3826:	e7ec      	b.n	3802 <rt_sem_release+0x26>

00003828 <rt_sem_control>:
    3828:	b5f8      	push	{r3, r4, r5, r6, r7, lr}
    382a:	4647      	mov	r7, r8
    382c:	46ce      	mov	lr, r9
    382e:	0005      	movs	r5, r0
    3830:	4690      	mov	r8, r2
    3832:	b580      	push	{r7, lr}
    3834:	2901      	cmp	r1, #1
    3836:	d123      	bne.n	3880 <rt_sem_control+0x58>
    3838:	002e      	movs	r6, r5
    383a:	f001 f91d 	bl	4a78 <rt_hw_interrupt_disable>
    383e:	696b      	ldr	r3, [r5, #20]
    3840:	3614      	adds	r6, #20
    3842:	4681      	mov	r9, r0
    3844:	429e      	cmp	r6, r3
    3846:	d00f      	beq.n	3868 <rt_sem_control+0x40>
    3848:	2701      	movs	r7, #1
    384a:	427f      	negs	r7, r7
    384c:	f001 f914 	bl	4a78 <rt_hw_interrupt_disable>
    3850:	0004      	movs	r4, r0
    3852:	6968      	ldr	r0, [r5, #20]
    3854:	3814      	subs	r0, #20
    3856:	6307      	str	r7, [r0, #48]	; 0x30
    3858:	f7ff fc6c 	bl	3134 <rt_thread_resume>
    385c:	0020      	movs	r0, r4
    385e:	f001 f90f 	bl	4a80 <rt_hw_interrupt_enable>
    3862:	696b      	ldr	r3, [r5, #20]
    3864:	429e      	cmp	r6, r3
    3866:	d1f1      	bne.n	384c <rt_sem_control+0x24>
    3868:	4643      	mov	r3, r8
    386a:	4648      	mov	r0, r9
    386c:	83ab      	strh	r3, [r5, #28]
    386e:	f001 f907 	bl	4a80 <rt_hw_interrupt_enable>
    3872:	f7ff fe1d 	bl	34b0 <rt_schedule>
    3876:	2000      	movs	r0, #0
    3878:	bcc0      	pop	{r6, r7}
    387a:	46b9      	mov	r9, r7
    387c:	46b0      	mov	r8, r6
    387e:	bdf8      	pop	{r3, r4, r5, r6, r7, pc}
    3880:	2001      	movs	r0, #1
    3882:	4240      	negs	r0, r0
    3884:	e7f8      	b.n	3878 <rt_sem_control+0x50>
    3886:	46c0      	nop			; (mov r8, r8)

00003888 <rt_system_tick_init>:
    3888:	4770      	bx	lr
    388a:	46c0      	nop			; (mov r8, r8)

0000388c <rt_tick_get>:
    388c:	f644 33b8 	movw	r3, #19384	; 0x4bb8
    3890:	f2c2 0300 	movt	r3, #8192	; 0x2000
    3894:	6818      	ldr	r0, [r3, #0]
    3896:	4770      	bx	lr

00003898 <rt_tick_set>:
    3898:	b510      	push	{r4, lr}
    389a:	0004      	movs	r4, r0
    389c:	f001 f8ec 	bl	4a78 <rt_hw_interrupt_disable>
    38a0:	f644 33b8 	movw	r3, #19384	; 0x4bb8
    38a4:	f2c2 0300 	movt	r3, #8192	; 0x2000
    38a8:	601c      	str	r4, [r3, #0]
    38aa:	f001 f8e9 	bl	4a80 <rt_hw_interrupt_enable>
    38ae:	bd10      	pop	{r4, pc}

000038b0 <rt_tick_increase>:
    38b0:	f644 33b8 	movw	r3, #19384	; 0x4bb8
    38b4:	f2c2 0300 	movt	r3, #8192	; 0x2000
    38b8:	681a      	ldr	r2, [r3, #0]
    38ba:	b510      	push	{r4, lr}
    38bc:	3201      	adds	r2, #1
    38be:	601a      	str	r2, [r3, #0]
    38c0:	f7ff f9fe 	bl	2cc0 <rt_thread_self>
    38c4:	6c03      	ldr	r3, [r0, #64]	; 0x40
    38c6:	3b01      	subs	r3, #1
    38c8:	6403      	str	r3, [r0, #64]	; 0x40
    38ca:	b113      	cbz	r3, 38d2 <rt_tick_increase+0x22>
    38cc:	f7ff fd20 	bl	3310 <rt_timer_check>
    38d0:	bd10      	pop	{r4, pc}
    38d2:	6bc3      	ldr	r3, [r0, #60]	; 0x3c
    38d4:	6403      	str	r3, [r0, #64]	; 0x40
    38d6:	f7ff fa5d 	bl	2d94 <rt_thread_yield>
    38da:	e7f7      	b.n	38cc <rt_tick_increase+0x1c>

000038dc <rt_tick_from_millisecond>:
    38dc:	4643      	mov	r3, r8
    38de:	b408      	push	{r3}
    38e0:	2800      	cmp	r0, #0
    38e2:	db17      	blt.n	3914 <rt_tick_from_millisecond+0x38>
    38e4:	f240 3ce8 	movw	ip, #1000	; 0x3e8
    38e8:	fb90 f2fc 	sdiv	r2, r0, ip
    38ec:	f240 38e7 	movw	r8, #999	; 0x3e7
    38f0:	0153      	lsls	r3, r2, #5
    38f2:	1a9b      	subs	r3, r3, r2
    38f4:	0099      	lsls	r1, r3, #2
    38f6:	1889      	adds	r1, r1, r2
    38f8:	00c9      	lsls	r1, r1, #3
    38fa:	1a42      	subs	r2, r0, r1
    38fc:	0153      	lsls	r3, r2, #5
    38fe:	1a9b      	subs	r3, r3, r2
    3900:	0098      	lsls	r0, r3, #2
    3902:	1880      	adds	r0, r0, r2
    3904:	00c0      	lsls	r0, r0, #3
    3906:	4440      	add	r0, r8
    3908:	fb90 f0fc 	sdiv	r0, r0, ip
    390c:	1840      	adds	r0, r0, r1
    390e:	bc08      	pop	{r3}
    3910:	4698      	mov	r8, r3
    3912:	4770      	bx	lr
    3914:	2001      	movs	r0, #1
    3916:	4240      	negs	r0, r0
    3918:	e7f9      	b.n	390e <rt_tick_from_millisecond+0x32>
    391a:	46c0      	nop			; (mov r8, r8)

0000391c <rt_thread_idle_entry>:
    391c:	e7fe      	b.n	391c <rt_thread_idle_entry>
    391e:	46c0      	nop			; (mov r8, r8)

00003920 <rt_thread_idle_excute>:
    3920:	4770      	bx	lr
    3922:	46c0      	nop			; (mov r8, r8)

00003924 <rt_thread_idle_init>:
    3924:	2320      	movs	r3, #32
    3926:	b510      	push	{r4, lr}
    3928:	b084      	sub	sp, #16
    392a:	9303      	str	r3, [sp, #12]
    392c:	3b19      	subs	r3, #25
    392e:	9302      	str	r3, [sp, #8]
    3930:	3379      	adds	r3, #121	; 0x79
    3932:	9301      	str	r3, [sp, #4]
    3934:	f644 34bc 	movw	r4, #19388	; 0x4bbc
    3938:	f644 4334 	movw	r3, #19508	; 0x4c34
    393c:	f643 121d 	movw	r2, #14621	; 0x391d
    3940:	f246 0144 	movw	r1, #24644	; 0x6044
    3944:	f2c2 0400 	movt	r4, #8192	; 0x2000
    3948:	f2c2 0300 	movt	r3, #8192	; 0x2000
    394c:	f2c0 0200 	movt	r2, #0
    3950:	f2c0 0100 	movt	r1, #0
    3954:	9300      	str	r3, [sp, #0]
    3956:	0020      	movs	r0, r4
    3958:	2300      	movs	r3, #0
    395a:	f7ff f96b 	bl	2c34 <rt_thread_init>
    395e:	0020      	movs	r0, r4
    3960:	f7ff f9b4 	bl	2ccc <rt_thread_startup>
    3964:	b004      	add	sp, #16
    3966:	bd10      	pop	{r4, pc}

00003968 <rt_thread_idle_gethandler>:
    3968:	f644 30bc 	movw	r0, #19388	; 0x4bbc
    396c:	f2c2 0000 	movt	r0, #8192	; 0x2000
    3970:	4770      	bx	lr
    3972:	46c0      	nop			; (mov r8, r8)

00003974 <print_number>:
    3974:	b5f0      	push	{r4, r5, r6, r7, lr}
    3976:	464e      	mov	r6, r9
    3978:	46de      	mov	lr, fp
    397a:	4657      	mov	r7, sl
    397c:	4645      	mov	r5, r8
    397e:	b5e0      	push	{r5, r6, r7, lr}
    3980:	b089      	sub	sp, #36	; 0x24
    3982:	9e14      	ldr	r6, [sp, #80]	; 0x50
    3984:	0674      	lsls	r4, r6, #25
    3986:	d500      	bpl.n	398a <print_number+0x16>
    3988:	e0cd      	b.n	3b26 <print_number+0x1b2>
    398a:	2510      	movs	r5, #16
    398c:	f246 1460 	movw	r4, #24928	; 0x6160
    3990:	002f      	movs	r7, r5
    3992:	f2c0 0400 	movt	r4, #0
    3996:	4037      	ands	r7, r6
    3998:	3414      	adds	r4, #20
    399a:	9701      	str	r7, [sp, #4]
    399c:	4235      	tst	r5, r6
    399e:	d100      	bne.n	39a2 <print_number+0x2e>
    39a0:	e0cc      	b.n	3b3c <print_number+0x1c8>
    39a2:	46bb      	mov	fp, r7
    39a4:	f240 0c20 	movw	ip, #32
    39a8:	3d0f      	subs	r5, #15
    39aa:	43ae      	bics	r6, r5
    39ac:	07b7      	lsls	r7, r6, #30
    39ae:	d400      	bmi.n	39b2 <print_number+0x3e>
    39b0:	e0cf      	b.n	3b52 <print_number+0x1de>
    39b2:	2a00      	cmp	r2, #0
    39b4:	da00      	bge.n	39b8 <print_number+0x44>
    39b6:	e132      	b.n	3c1e <print_number+0x2aa>
    39b8:	f240 082b 	movw	r8, #43	; 0x2b
    39bc:	0775      	lsls	r5, r6, #29
    39be:	d400      	bmi.n	39c2 <print_number+0x4e>
    39c0:	e1e2      	b.n	3d88 <print_number+0x414>
    39c2:	2a00      	cmp	r2, #0
    39c4:	d000      	beq.n	39c8 <print_number+0x54>
    39c6:	e0c9      	b.n	3b5c <print_number+0x1e8>
    39c8:	2330      	movs	r3, #48	; 0x30
    39ca:	ae04      	add	r6, sp, #16
    39cc:	7033      	strb	r3, [r6, #0]
    39ce:	3b2f      	subs	r3, #47	; 0x2f
    39d0:	9c13      	ldr	r4, [sp, #76]	; 0x4c
    39d2:	001f      	movs	r7, r3
    39d4:	42a3      	cmp	r3, r4
    39d6:	da00      	bge.n	39da <print_number+0x66>
    39d8:	0027      	movs	r7, r4
    39da:	465d      	mov	r5, fp
    39dc:	9c12      	ldr	r4, [sp, #72]	; 0x48
    39de:	1be4      	subs	r4, r4, r7
    39e0:	bb15      	cbnz	r5, 3a28 <print_number+0xb4>
    39e2:	4645      	mov	r5, r8
    39e4:	2d00      	cmp	r5, #0
    39e6:	d000      	beq.n	39ea <print_number+0x76>
    39e8:	e0f3      	b.n	3bd2 <print_number+0x25e>
    39ea:	1e65      	subs	r5, r4, #1
    39ec:	46aa      	mov	sl, r5
    39ee:	2c00      	cmp	r4, #0
    39f0:	dc00      	bgt.n	39f4 <print_number+0x80>
    39f2:	e1e9      	b.n	3dc8 <print_number+0x454>
    39f4:	1c45      	adds	r5, r0, #1
    39f6:	4455      	add	r5, sl
    39f8:	469b      	mov	fp, r3
    39fa:	0004      	movs	r4, r0
    39fc:	f240 0920 	movw	r9, #32
    3a00:	002b      	movs	r3, r5
    3a02:	42a1      	cmp	r1, r4
    3a04:	d901      	bls.n	3a0a <print_number+0x96>
    3a06:	464d      	mov	r5, r9
    3a08:	7025      	strb	r5, [r4, #0]
    3a0a:	3401      	adds	r4, #1
    3a0c:	1b1d      	subs	r5, r3, r4
    3a0e:	2d00      	cmp	r5, #0
    3a10:	dcf7      	bgt.n	3a02 <print_number+0x8e>
    3a12:	4654      	mov	r4, sl
    3a14:	43e4      	mvns	r4, r4
    3a16:	4655      	mov	r5, sl
    3a18:	17e4      	asrs	r4, r4, #31
    3a1a:	402c      	ands	r4, r5
    3a1c:	1c65      	adds	r5, r4, #1
    3a1e:	1940      	adds	r0, r0, r5
    3a20:	4655      	mov	r5, sl
    3a22:	465b      	mov	r3, fp
    3a24:	3d01      	subs	r5, #1
    3a26:	1b2c      	subs	r4, r5, r4
    3a28:	4645      	mov	r5, r8
    3a2a:	2d00      	cmp	r5, #0
    3a2c:	d000      	beq.n	3a30 <print_number+0xbc>
    3a2e:	e0d4      	b.n	3bda <print_number+0x266>
    3a30:	9d01      	ldr	r5, [sp, #4]
    3a32:	b96d      	cbnz	r5, 3a50 <print_number+0xdc>
    3a34:	1e65      	subs	r5, r4, #1
    3a36:	2c00      	cmp	r4, #0
    3a38:	dc00      	bgt.n	3a3c <print_number+0xc8>
    3a3a:	e1aa      	b.n	3d92 <print_number+0x41e>
    3a3c:	4665      	mov	r5, ip
    3a3e:	1904      	adds	r4, r0, r4
    3a40:	4281      	cmp	r1, r0
    3a42:	d900      	bls.n	3a46 <print_number+0xd2>
    3a44:	7005      	strb	r5, [r0, #0]
    3a46:	3001      	adds	r0, #1
    3a48:	42a0      	cmp	r0, r4
    3a4a:	d1f9      	bne.n	3a40 <print_number+0xcc>
    3a4c:	2401      	movs	r4, #1
    3a4e:	4264      	negs	r4, r4
    3a50:	1afd      	subs	r5, r7, r3
    3a52:	f240 0c30 	movw	ip, #48	; 0x30
    3a56:	1945      	adds	r5, r0, r5
    3a58:	42bb      	cmp	r3, r7
    3a5a:	db00      	blt.n	3a5e <print_number+0xea>
    3a5c:	e19d      	b.n	3d9a <print_number+0x426>
    3a5e:	4281      	cmp	r1, r0
    3a60:	d901      	bls.n	3a66 <print_number+0xf2>
    3a62:	4663      	mov	r3, ip
    3a64:	7003      	strb	r3, [r0, #0]
    3a66:	3001      	adds	r0, #1
    3a68:	42a8      	cmp	r0, r5
    3a6a:	d1f8      	bne.n	3a5e <print_number+0xea>
    3a6c:	9b13      	ldr	r3, [sp, #76]	; 0x4c
    3a6e:	2b00      	cmp	r3, #0
    3a70:	d047      	beq.n	3b02 <print_number+0x18e>
    3a72:	42a9      	cmp	r1, r5
    3a74:	d900      	bls.n	3a78 <print_number+0x104>
    3a76:	e0b7      	b.n	3be8 <print_number+0x274>
    3a78:	1c68      	adds	r0, r5, #1
    3a7a:	1e53      	subs	r3, r2, #1
    3a7c:	b3fa      	cbz	r2, 3afe <print_number+0x18a>
    3a7e:	4288      	cmp	r0, r1
    3a80:	d200      	bcs.n	3a84 <print_number+0x110>
    3a82:	e0b4      	b.n	3bee <print_number+0x27a>
    3a84:	1caf      	adds	r7, r5, #2
    3a86:	1e90      	subs	r0, r2, #2
    3a88:	2b00      	cmp	r3, #0
    3a8a:	dd38      	ble.n	3afe <print_number+0x18a>
    3a8c:	428f      	cmp	r7, r1
    3a8e:	d200      	bcs.n	3a92 <print_number+0x11e>
    3a90:	e0b0      	b.n	3bf4 <print_number+0x280>
    3a92:	1cef      	adds	r7, r5, #3
    3a94:	1ed3      	subs	r3, r2, #3
    3a96:	2800      	cmp	r0, #0
    3a98:	dd31      	ble.n	3afe <print_number+0x18a>
    3a9a:	42b9      	cmp	r1, r7
    3a9c:	d900      	bls.n	3aa0 <print_number+0x12c>
    3a9e:	e0ac      	b.n	3bfa <print_number+0x286>
    3aa0:	1d2f      	adds	r7, r5, #4
    3aa2:	1f10      	subs	r0, r2, #4
    3aa4:	2b00      	cmp	r3, #0
    3aa6:	dd2a      	ble.n	3afe <print_number+0x18a>
    3aa8:	42b9      	cmp	r1, r7
    3aaa:	d900      	bls.n	3aae <print_number+0x13a>
    3aac:	e0a8      	b.n	3c00 <print_number+0x28c>
    3aae:	1d6f      	adds	r7, r5, #5
    3ab0:	1f53      	subs	r3, r2, #5
    3ab2:	2800      	cmp	r0, #0
    3ab4:	dd23      	ble.n	3afe <print_number+0x18a>
    3ab6:	42b9      	cmp	r1, r7
    3ab8:	d900      	bls.n	3abc <print_number+0x148>
    3aba:	e0a4      	b.n	3c06 <print_number+0x292>
    3abc:	1daf      	adds	r7, r5, #6
    3abe:	1f90      	subs	r0, r2, #6
    3ac0:	2b00      	cmp	r3, #0
    3ac2:	dd1c      	ble.n	3afe <print_number+0x18a>
    3ac4:	42b9      	cmp	r1, r7
    3ac6:	d900      	bls.n	3aca <print_number+0x156>
