
Out/rt_thread_msg.elf:     file format elf32-littlearm


Disassembly of section .text:

00000000 <__Vectors>:
       0:	200054e0 	andcs	r5, r0, r0, ror #9
       4:	00001581 	andeq	r1, r0, r1, lsl #11
       8:	0000157d 	andeq	r1, r0, sp, ror r5
       c:	00004b2b 	andeq	r4, r0, fp, lsr #22
      10:	0000157d 	andeq	r1, r0, sp, ror r5
      14:	0000157d 	andeq	r1, r0, sp, ror r5
      18:	0000157d 	andeq	r1, r0, sp, ror r5
      1c:	0000157d 	andeq	r1, r0, sp, ror r5
	...
      2c:	0000157d 	andeq	r1, r0, sp, ror r5
      30:	0000157d 	andeq	r1, r0, sp, ror r5
      34:	00000000 	andeq	r0, r0, r0
      38:	00004aa3 	andeq	r4, r0, r3, lsr #21
      3c:	00001431 	andeq	r1, r0, r1, lsr r4

00000040 <g_vector_table>:
      40:	000014cd 	andeq	r1, r0, sp, asr #9
      44:	000014e9 	andeq	r1, r0, r9, ror #9
	...
      5c:	00001211 	andeq	r1, r0, r1, lsl r2
	...

000000c0 <__Vectors_End>:
      c0:	ffffffff 			; <UNDEFINED> instruction: 0xffffffff
      c4:	ffffffff 			; <UNDEFINED> instruction: 0xffffffff
      c8:	ffffffff 			; <UNDEFINED> instruction: 0xffffffff
      cc:	ffffffff 			; <UNDEFINED> instruction: 0xffffffff
      d0:	ffffffff 			; <UNDEFINED> instruction: 0xffffffff
      d4:	ffffffff 			; <UNDEFINED> instruction: 0xffffffff
      d8:	ffffffff 			; <UNDEFINED> instruction: 0xffffffff
      dc:	ffffffff 			; <UNDEFINED> instruction: 0xffffffff
      e0:	ffffffff 			; <UNDEFINED> instruction: 0xffffffff
      e4:	ffffffff 			; <UNDEFINED> instruction: 0xffffffff
      e8:	ffffffff 			; <UNDEFINED> instruction: 0xffffffff
      ec:	ffffffff 			; <UNDEFINED> instruction: 0xffffffff
      f0:	ffffffff 			; <UNDEFINED> instruction: 0xffffffff
      f4:	ffffffff 			; <UNDEFINED> instruction: 0xffffffff
      f8:	ffffffff 			; <UNDEFINED> instruction: 0xffffffff
      fc:	ffffffff 			; <UNDEFINED> instruction: 0xffffffff
     100:	ffffffff 			; <UNDEFINED> instruction: 0xffffffff
     104:	ffffffff 			; <UNDEFINED> instruction: 0xffffffff
     108:	ffffffff 			; <UNDEFINED> instruction: 0xffffffff
     10c:	ffffffff 			; <UNDEFINED> instruction: 0xffffffff
     110:	ffffffff 			; <UNDEFINED> instruction: 0xffffffff
     114:	ffffffff 			; <UNDEFINED> instruction: 0xffffffff
     118:	ffffffff 			; <UNDEFINED> instruction: 0xffffffff
     11c:	ffffffff 			; <UNDEFINED> instruction: 0xffffffff
     120:	ffffffff 			; <UNDEFINED> instruction: 0xffffffff
     124:	ffffffff 			; <UNDEFINED> instruction: 0xffffffff
     128:	ffffffff 			; <UNDEFINED> instruction: 0xffffffff
     12c:	ffffffff 			; <UNDEFINED> instruction: 0xffffffff
     130:	ffffffff 			; <UNDEFINED> instruction: 0xffffffff
     134:	ffffffff 			; <UNDEFINED> instruction: 0xffffffff
     138:	ffffffff 			; <UNDEFINED> instruction: 0xffffffff
     13c:	ffffffff 			; <UNDEFINED> instruction: 0xffffffff
     140:	ffffffff 			; <UNDEFINED> instruction: 0xffffffff
     144:	ffffffff 			; <UNDEFINED> instruction: 0xffffffff
     148:	ffffffff 			; <UNDEFINED> instruction: 0xffffffff
     14c:	ffffffff 			; <UNDEFINED> instruction: 0xffffffff
     150:	ffffffff 			; <UNDEFINED> instruction: 0xffffffff
     154:	ffffffff 			; <UNDEFINED> instruction: 0xffffffff
     158:	ffffffff 			; <UNDEFINED> instruction: 0xffffffff
     15c:	ffffffff 			; <UNDEFINED> instruction: 0xffffffff
     160:	ffffffff 			; <UNDEFINED> instruction: 0xffffffff
     164:	ffffffff 			; <UNDEFINED> instruction: 0xffffffff
     168:	ffffffff 			; <UNDEFINED> instruction: 0xffffffff
     16c:	ffffffff 			; <UNDEFINED> instruction: 0xffffffff
     170:	ffffffff 			; <UNDEFINED> instruction: 0xffffffff
     174:	ffffffff 			; <UNDEFINED> instruction: 0xffffffff
     178:	ffffffff 			; <UNDEFINED> instruction: 0xffffffff
     17c:	ffffffff 			; <UNDEFINED> instruction: 0xffffffff
     180:	ffffffff 			; <UNDEFINED> instruction: 0xffffffff
     184:	ffffffff 			; <UNDEFINED> instruction: 0xffffffff
     188:	ffffffff 			; <UNDEFINED> instruction: 0xffffffff
     18c:	ffffffff 			; <UNDEFINED> instruction: 0xffffffff
     190:	ffffffff 			; <UNDEFINED> instruction: 0xffffffff
     194:	ffffffff 			; <UNDEFINED> instruction: 0xffffffff
     198:	ffffffff 			; <UNDEFINED> instruction: 0xffffffff
     19c:	ffffffff 			; <UNDEFINED> instruction: 0xffffffff
     1a0:	ffffffff 			; <UNDEFINED> instruction: 0xffffffff
     1a4:	ffffffff 			; <UNDEFINED> instruction: 0xffffffff
     1a8:	ffffffff 			; <UNDEFINED> instruction: 0xffffffff
     1ac:	ffffffff 			; <UNDEFINED> instruction: 0xffffffff
     1b0:	ffffffff 			; <UNDEFINED> instruction: 0xffffffff
     1b4:	ffffffff 			; <UNDEFINED> instruction: 0xffffffff
     1b8:	ffffffff 			; <UNDEFINED> instruction: 0xffffffff
     1bc:	ffffffff 			; <UNDEFINED> instruction: 0xffffffff
     1c0:	ffffffff 			; <UNDEFINED> instruction: 0xffffffff
     1c4:	ffffffff 			; <UNDEFINED> instruction: 0xffffffff
     1c8:	ffffffff 			; <UNDEFINED> instruction: 0xffffffff
     1cc:	ffffffff 			; <UNDEFINED> instruction: 0xffffffff
     1d0:	ffffffff 			; <UNDEFINED> instruction: 0xffffffff
     1d4:	ffffffff 			; <UNDEFINED> instruction: 0xffffffff
     1d8:	ffffffff 			; <UNDEFINED> instruction: 0xffffffff
     1dc:	ffffffff 			; <UNDEFINED> instruction: 0xffffffff
     1e0:	ffffffff 			; <UNDEFINED> instruction: 0xffffffff
     1e4:	ffffffff 			; <UNDEFINED> instruction: 0xffffffff
     1e8:	ffffffff 			; <UNDEFINED> instruction: 0xffffffff
     1ec:	ffffffff 			; <UNDEFINED> instruction: 0xffffffff
     1f0:	ffffffff 			; <UNDEFINED> instruction: 0xffffffff
     1f4:	ffffffff 			; <UNDEFINED> instruction: 0xffffffff
     1f8:	ffffffff 			; <UNDEFINED> instruction: 0xffffffff
     1fc:	ffffffff 			; <UNDEFINED> instruction: 0xffffffff
     200:	ffffffff 			; <UNDEFINED> instruction: 0xffffffff
     204:	ffffffff 			; <UNDEFINED> instruction: 0xffffffff
     208:	ffffffff 			; <UNDEFINED> instruction: 0xffffffff
     20c:	ffffffff 			; <UNDEFINED> instruction: 0xffffffff
     210:	ffffffff 			; <UNDEFINED> instruction: 0xffffffff
     214:	ffffffff 			; <UNDEFINED> instruction: 0xffffffff
     218:	ffffffff 			; <UNDEFINED> instruction: 0xffffffff
     21c:	ffffffff 			; <UNDEFINED> instruction: 0xffffffff
     220:	ffffffff 			; <UNDEFINED> instruction: 0xffffffff
     224:	ffffffff 			; <UNDEFINED> instruction: 0xffffffff
     228:	ffffffff 			; <UNDEFINED> instruction: 0xffffffff
     22c:	ffffffff 			; <UNDEFINED> instruction: 0xffffffff
     230:	ffffffff 			; <UNDEFINED> instruction: 0xffffffff
     234:	ffffffff 			; <UNDEFINED> instruction: 0xffffffff
     238:	ffffffff 			; <UNDEFINED> instruction: 0xffffffff
     23c:	ffffffff 			; <UNDEFINED> instruction: 0xffffffff
     240:	ffffffff 			; <UNDEFINED> instruction: 0xffffffff
     244:	ffffffff 			; <UNDEFINED> instruction: 0xffffffff
     248:	ffffffff 			; <UNDEFINED> instruction: 0xffffffff
     24c:	ffffffff 			; <UNDEFINED> instruction: 0xffffffff
     250:	ffffffff 			; <UNDEFINED> instruction: 0xffffffff
     254:	ffffffff 			; <UNDEFINED> instruction: 0xffffffff
     258:	ffffffff 			; <UNDEFINED> instruction: 0xffffffff
     25c:	ffffffff 			; <UNDEFINED> instruction: 0xffffffff
     260:	ffffffff 			; <UNDEFINED> instruction: 0xffffffff
     264:	ffffffff 			; <UNDEFINED> instruction: 0xffffffff
     268:	ffffffff 			; <UNDEFINED> instruction: 0xffffffff
     26c:	ffffffff 			; <UNDEFINED> instruction: 0xffffffff
     270:	ffffffff 			; <UNDEFINED> instruction: 0xffffffff
     274:	ffffffff 			; <UNDEFINED> instruction: 0xffffffff
     278:	ffffffff 			; <UNDEFINED> instruction: 0xffffffff
     27c:	ffffffff 			; <UNDEFINED> instruction: 0xffffffff
     280:	ffffffff 			; <UNDEFINED> instruction: 0xffffffff
     284:	ffffffff 			; <UNDEFINED> instruction: 0xffffffff
     288:	ffffffff 			; <UNDEFINED> instruction: 0xffffffff
     28c:	ffffffff 			; <UNDEFINED> instruction: 0xffffffff
     290:	ffffffff 			; <UNDEFINED> instruction: 0xffffffff
     294:	ffffffff 			; <UNDEFINED> instruction: 0xffffffff
     298:	ffffffff 			; <UNDEFINED> instruction: 0xffffffff
     29c:	ffffffff 			; <UNDEFINED> instruction: 0xffffffff
     2a0:	ffffffff 			; <UNDEFINED> instruction: 0xffffffff
     2a4:	ffffffff 			; <UNDEFINED> instruction: 0xffffffff
     2a8:	ffffffff 			; <UNDEFINED> instruction: 0xffffffff
     2ac:	ffffffff 			; <UNDEFINED> instruction: 0xffffffff
     2b0:	ffffffff 			; <UNDEFINED> instruction: 0xffffffff
     2b4:	ffffffff 			; <UNDEFINED> instruction: 0xffffffff
     2b8:	ffffffff 			; <UNDEFINED> instruction: 0xffffffff
     2bc:	ffffffff 			; <UNDEFINED> instruction: 0xffffffff
     2c0:	ffffffff 			; <UNDEFINED> instruction: 0xffffffff
     2c4:	ffffffff 			; <UNDEFINED> instruction: 0xffffffff
     2c8:	ffffffff 			; <UNDEFINED> instruction: 0xffffffff
     2cc:	ffffffff 			; <UNDEFINED> instruction: 0xffffffff
     2d0:	ffffffff 			; <UNDEFINED> instruction: 0xffffffff
     2d4:	ffffffff 			; <UNDEFINED> instruction: 0xffffffff
     2d8:	ffffffff 			; <UNDEFINED> instruction: 0xffffffff
     2dc:	ffffffff 			; <UNDEFINED> instruction: 0xffffffff
     2e0:	ffffffff 			; <UNDEFINED> instruction: 0xffffffff
     2e4:	ffffffff 			; <UNDEFINED> instruction: 0xffffffff
     2e8:	ffffffff 			; <UNDEFINED> instruction: 0xffffffff
     2ec:	ffffffff 			; <UNDEFINED> instruction: 0xffffffff
     2f0:	ffffffff 			; <UNDEFINED> instruction: 0xffffffff
     2f4:	ffffffff 			; <UNDEFINED> instruction: 0xffffffff
     2f8:	ffffffff 			; <UNDEFINED> instruction: 0xffffffff
     2fc:	ffffffff 			; <UNDEFINED> instruction: 0xffffffff
     300:	ffffffff 			; <UNDEFINED> instruction: 0xffffffff
     304:	ffffffff 			; <UNDEFINED> instruction: 0xffffffff
     308:	ffffffff 			; <UNDEFINED> instruction: 0xffffffff
     30c:	ffffffff 			; <UNDEFINED> instruction: 0xffffffff
     310:	ffffffff 			; <UNDEFINED> instruction: 0xffffffff
     314:	ffffffff 			; <UNDEFINED> instruction: 0xffffffff
     318:	ffffffff 			; <UNDEFINED> instruction: 0xffffffff
     31c:	ffffffff 			; <UNDEFINED> instruction: 0xffffffff
     320:	ffffffff 			; <UNDEFINED> instruction: 0xffffffff
     324:	ffffffff 			; <UNDEFINED> instruction: 0xffffffff
     328:	ffffffff 			; <UNDEFINED> instruction: 0xffffffff
     32c:	ffffffff 			; <UNDEFINED> instruction: 0xffffffff
     330:	ffffffff 			; <UNDEFINED> instruction: 0xffffffff
     334:	ffffffff 			; <UNDEFINED> instruction: 0xffffffff
     338:	ffffffff 			; <UNDEFINED> instruction: 0xffffffff
     33c:	ffffffff 			; <UNDEFINED> instruction: 0xffffffff
     340:	ffffffff 			; <UNDEFINED> instruction: 0xffffffff
     344:	ffffffff 			; <UNDEFINED> instruction: 0xffffffff
     348:	ffffffff 			; <UNDEFINED> instruction: 0xffffffff
     34c:	ffffffff 			; <UNDEFINED> instruction: 0xffffffff
     350:	ffffffff 			; <UNDEFINED> instruction: 0xffffffff
     354:	ffffffff 			; <UNDEFINED> instruction: 0xffffffff
     358:	ffffffff 			; <UNDEFINED> instruction: 0xffffffff
     35c:	ffffffff 			; <UNDEFINED> instruction: 0xffffffff
     360:	ffffffff 			; <UNDEFINED> instruction: 0xffffffff
     364:	ffffffff 			; <UNDEFINED> instruction: 0xffffffff
     368:	ffffffff 			; <UNDEFINED> instruction: 0xffffffff
     36c:	ffffffff 			; <UNDEFINED> instruction: 0xffffffff
     370:	ffffffff 			; <UNDEFINED> instruction: 0xffffffff
     374:	ffffffff 			; <UNDEFINED> instruction: 0xffffffff
     378:	ffffffff 			; <UNDEFINED> instruction: 0xffffffff
     37c:	ffffffff 			; <UNDEFINED> instruction: 0xffffffff
     380:	ffffffff 			; <UNDEFINED> instruction: 0xffffffff
     384:	ffffffff 			; <UNDEFINED> instruction: 0xffffffff
     388:	ffffffff 			; <UNDEFINED> instruction: 0xffffffff
     38c:	ffffffff 			; <UNDEFINED> instruction: 0xffffffff
     390:	ffffffff 			; <UNDEFINED> instruction: 0xffffffff
     394:	ffffffff 			; <UNDEFINED> instruction: 0xffffffff
     398:	ffffffff 			; <UNDEFINED> instruction: 0xffffffff
     39c:	ffffffff 			; <UNDEFINED> instruction: 0xffffffff
     3a0:	ffffffff 			; <UNDEFINED> instruction: 0xffffffff
     3a4:	ffffffff 			; <UNDEFINED> instruction: 0xffffffff
     3a8:	ffffffff 			; <UNDEFINED> instruction: 0xffffffff
     3ac:	ffffffff 			; <UNDEFINED> instruction: 0xffffffff
     3b0:	ffffffff 			; <UNDEFINED> instruction: 0xffffffff
     3b4:	ffffffff 			; <UNDEFINED> instruction: 0xffffffff
     3b8:	ffffffff 			; <UNDEFINED> instruction: 0xffffffff
     3bc:	ffffffff 			; <UNDEFINED> instruction: 0xffffffff
     3c0:	ffffffff 			; <UNDEFINED> instruction: 0xffffffff
     3c4:	ffffffff 			; <UNDEFINED> instruction: 0xffffffff
     3c8:	ffffffff 			; <UNDEFINED> instruction: 0xffffffff
     3cc:	ffffffff 			; <UNDEFINED> instruction: 0xffffffff
     3d0:	ffffffff 			; <UNDEFINED> instruction: 0xffffffff
     3d4:	ffffffff 			; <UNDEFINED> instruction: 0xffffffff
     3d8:	ffffffff 			; <UNDEFINED> instruction: 0xffffffff
     3dc:	ffffffff 			; <UNDEFINED> instruction: 0xffffffff
     3e0:	ffffffff 			; <UNDEFINED> instruction: 0xffffffff
     3e4:	ffffffff 			; <UNDEFINED> instruction: 0xffffffff
     3e8:	ffffffff 			; <UNDEFINED> instruction: 0xffffffff
     3ec:	ffffffff 			; <UNDEFINED> instruction: 0xffffffff
     3f0:	ffffffff 			; <UNDEFINED> instruction: 0xffffffff
     3f4:	ffffffff 			; <UNDEFINED> instruction: 0xffffffff
     3f8:	ffffffff 			; <UNDEFINED> instruction: 0xffffffff
     3fc:	ffffffff 			; <UNDEFINED> instruction: 0xffffffff

00000400 <g_rom_registers>:
     400:	ffffffff 			; <UNDEFINED> instruction: 0xffffffff
     404:	ffffcfdf 			; <UNDEFINED> instruction: 0xffffcfdf
     408:	000ffffc 	strdeq	pc, [pc], -ip
     40c:	000fffff 	strdeq	pc, [pc], -pc	; <UNPREDICTABLE>
     410:	000ffffc 	strdeq	pc, [pc], -ip
     414:	000fffff 	strdeq	pc, [pc], -pc	; <UNPREDICTABLE>
     418:	000ffffc 	strdeq	pc, [pc], -ip
     41c:	000fffff 	strdeq	pc, [pc], -pc	; <UNPREDICTABLE>
     420:	200ffffc 	strdcs	pc, [pc], -ip
     424:	200fffff 	strdcs	pc, [pc], -pc	; <UNPREDICTABLE>
     428:	407ffffc 	ldrshtmi	pc, [pc], #-252	; <UNPREDICTABLE>
     42c:	407fffff 	ldrshtmi	pc, [pc], #-255	; <UNPREDICTABLE>
     430:	400dfffc 	strdmi	pc, [sp], -ip
     434:	400dffff 	strdmi	pc, [sp], -pc	; <UNPREDICTABLE>
     438:	ffffffff 			; <UNDEFINED> instruction: 0xffffffff
     43c:	ffffffff 			; <UNDEFINED> instruction: 0xffffffff
     440:	ffffffff 			; <UNDEFINED> instruction: 0xffffffff
     444:	ffffffff 			; <UNDEFINED> instruction: 0xffffffff
     448:	ffffffff 			; <UNDEFINED> instruction: 0xffffffff
     44c:	ffffffff 			; <UNDEFINED> instruction: 0xffffffff
     450:	ffffffff 			; <UNDEFINED> instruction: 0xffffffff
     454:	ffffffff 			; <UNDEFINED> instruction: 0xffffffff
     458:	ffffffff 			; <UNDEFINED> instruction: 0xffffffff
     45c:	ffffffff 			; <UNDEFINED> instruction: 0xffffffff
     460:	ffffffff 			; <UNDEFINED> instruction: 0xffffffff
     464:	ffffffff 			; <UNDEFINED> instruction: 0xffffffff
     468:	ffffffff 			; <UNDEFINED> instruction: 0xffffffff
     46c:	ffffffff 			; <UNDEFINED> instruction: 0xffffffff
     470:	ffffffff 			; <UNDEFINED> instruction: 0xffffffff
     474:	ffffffff 			; <UNDEFINED> instruction: 0xffffffff
     478:	ffffffff 			; <UNDEFINED> instruction: 0xffffffff
     47c:	ffffffff 			; <UNDEFINED> instruction: 0xffffffff
     480:	ffffffff 			; <UNDEFINED> instruction: 0xffffffff
     484:	ffffffff 			; <UNDEFINED> instruction: 0xffffffff
     488:	ffffffff 			; <UNDEFINED> instruction: 0xffffffff
     48c:	ffffffff 			; <UNDEFINED> instruction: 0xffffffff
     490:	ffffffff 			; <UNDEFINED> instruction: 0xffffffff
     494:	ffffffff 			; <UNDEFINED> instruction: 0xffffffff
     498:	ffffffff 			; <UNDEFINED> instruction: 0xffffffff
     49c:	ffffffff 			; <UNDEFINED> instruction: 0xffffffff
     4a0:	ffffffff 			; <UNDEFINED> instruction: 0xffffffff
     4a4:	ffffffff 			; <UNDEFINED> instruction: 0xffffffff
     4a8:	ffffffff 			; <UNDEFINED> instruction: 0xffffffff
     4ac:	ffffffff 			; <UNDEFINED> instruction: 0xffffffff
     4b0:	ffffffff 			; <UNDEFINED> instruction: 0xffffffff
     4b4:	ffffffff 			; <UNDEFINED> instruction: 0xffffffff
     4b8:	ffffffff 			; <UNDEFINED> instruction: 0xffffffff
     4bc:	ffffffff 			; <UNDEFINED> instruction: 0xffffffff
     4c0:	ffffffff 			; <UNDEFINED> instruction: 0xffffffff
     4c4:	ffffffff 			; <UNDEFINED> instruction: 0xffffffff
     4c8:	ffffffff 			; <UNDEFINED> instruction: 0xffffffff
     4cc:	ffffffff 			; <UNDEFINED> instruction: 0xffffffff
     4d0:	ffffffff 			; <UNDEFINED> instruction: 0xffffffff
     4d4:	ffffffff 			; <UNDEFINED> instruction: 0xffffffff
     4d8:	ffffffff 			; <UNDEFINED> instruction: 0xffffffff
     4dc:	ffffffff 			; <UNDEFINED> instruction: 0xffffffff
     4e0:	ffffffff 			; <UNDEFINED> instruction: 0xffffffff
     4e4:	ffffffff 			; <UNDEFINED> instruction: 0xffffffff
     4e8:	ffffffff 			; <UNDEFINED> instruction: 0xffffffff
     4ec:	ffffffff 			; <UNDEFINED> instruction: 0xffffffff
     4f0:	ffffffff 			; <UNDEFINED> instruction: 0xffffffff
     4f4:	ffffffff 			; <UNDEFINED> instruction: 0xffffffff
     4f8:	ffffffff 			; <UNDEFINED> instruction: 0xffffffff
     4fc:	ffffffff 			; <UNDEFINED> instruction: 0xffffffff

00000500 <__do_global_dtors_aux>:
     500:	b510      	push	{r4, lr}
     502:	f244 4488 	movw	r4, #17544	; 0x4488
     506:	f2c2 0400 	movt	r4, #8192	; 0x2000
     50a:	7823      	ldrb	r3, [r4, #0]
     50c:	b963      	cbnz	r3, 528 <__do_global_dtors_aux+0x28>
     50e:	f240 0300 	movw	r3, #0
     512:	f2c0 0300 	movt	r3, #0
     516:	b12b      	cbz	r3, 524 <__do_global_dtors_aux+0x24>
     518:	f246 4008 	movw	r0, #25608	; 0x6408
     51c:	f2c0 0000 	movt	r0, #0
     520:	e000      	b.n	524 <__do_global_dtors_aux+0x24>
     522:	bf00      	nop
     524:	2301      	movs	r3, #1
     526:	7023      	strb	r3, [r4, #0]
     528:	bd10      	pop	{r4, pc}
     52a:	46c0      	nop			; (mov r8, r8)

0000052c <frame_dummy>:
     52c:	f240 0300 	movw	r3, #0
     530:	f2c0 0300 	movt	r3, #0
     534:	b510      	push	{r4, lr}
     536:	b14b      	cbz	r3, 54c <frame_dummy+0x20>
     538:	f244 418c 	movw	r1, #17548	; 0x448c
     53c:	f246 4008 	movw	r0, #25608	; 0x6408
     540:	f2c2 0100 	movt	r1, #8192	; 0x2000
     544:	f2c0 0000 	movt	r0, #0
     548:	e000      	b.n	54c <frame_dummy+0x20>
     54a:	bf00      	nop
     54c:	bd10      	pop	{r4, pc}
     54e:	46c0      	nop			; (mov r8, r8)

00000550 <_stack_init>:
     550:	2240      	movs	r2, #64	; 0x40
     552:	0292      	lsls	r2, r2, #10
     554:	1a9a      	subs	r2, r3, r2
     556:	4692      	mov	sl, r2
     558:	4770      	bx	lr
     55a:	46c0      	nop			; (mov r8, r8)

0000055c <_mainCRTStartup>:
     55c:	4b17      	ldr	r3, [pc, #92]	; (5bc <_mainCRTStartup+0x60>)
     55e:	2b00      	cmp	r3, #0
     560:	d100      	bne.n	564 <_mainCRTStartup+0x8>
     562:	4b13      	ldr	r3, [pc, #76]	; (5b0 <_mainCRTStartup+0x54>)
     564:	469d      	mov	sp, r3
     566:	f7ff fff3 	bl	550 <_stack_init>
     56a:	2100      	movs	r1, #0
     56c:	468b      	mov	fp, r1
     56e:	460f      	mov	r7, r1
     570:	4813      	ldr	r0, [pc, #76]	; (5c0 <_mainCRTStartup+0x64>)
     572:	4a14      	ldr	r2, [pc, #80]	; (5c4 <_mainCRTStartup+0x68>)
     574:	1a12      	subs	r2, r2, r0
     576:	f004 fb77 	bl	4c68 <memset>
     57a:	4b0e      	ldr	r3, [pc, #56]	; (5b4 <_mainCRTStartup+0x58>)
     57c:	2b00      	cmp	r3, #0
     57e:	d000      	beq.n	582 <_mainCRTStartup+0x26>
     580:	4798      	blx	r3
     582:	4b0d      	ldr	r3, [pc, #52]	; (5b8 <_mainCRTStartup+0x5c>)
     584:	2b00      	cmp	r3, #0
     586:	d000      	beq.n	58a <_mainCRTStartup+0x2e>
     588:	4798      	blx	r3
     58a:	2000      	movs	r0, #0
     58c:	2100      	movs	r1, #0
     58e:	0004      	movs	r4, r0
     590:	000d      	movs	r5, r1
     592:	480d      	ldr	r0, [pc, #52]	; (5c8 <_mainCRTStartup+0x6c>)
     594:	2800      	cmp	r0, #0
     596:	d002      	beq.n	59e <_mainCRTStartup+0x42>
     598:	480c      	ldr	r0, [pc, #48]	; (5cc <_mainCRTStartup+0x70>)
     59a:	f004 fc9f 	bl	4edc <atexit>
     59e:	f004 faed 	bl	4b7c <__libc_init_array>
     5a2:	0020      	movs	r0, r4
     5a4:	0029      	movs	r1, r5
     5a6:	f000 fe99 	bl	12dc <main>
     5aa:	f004 fad7 	bl	4b5c <exit>
     5ae:	46c0      	nop			; (mov r8, r8)
     5b0:	00080000 	andeq	r0, r8, r0
	...
     5bc:	200054e0 	andcs	r5, r0, r0, ror #9
     5c0:	20004488 	andcs	r4, r0, r8, lsl #9
     5c4:	20004ee0 	andcs	r4, r0, r0, ror #29
     5c8:	00004edd 	ldrdeq	r4, [r0], -sp
     5cc:	00004eed 	andeq	r4, r0, sp, ror #29

000005d0 <Write_Byte.constprop.0>:
     5d0:	2340      	movs	r3, #64	; 0x40
     5d2:	2140      	movs	r1, #64	; 0x40
     5d4:	b510      	push	{r4, lr}
     5d6:	f2c4 0304 	movt	r3, #16388	; 0x4004
     5da:	895a      	ldrh	r2, [r3, #10]
     5dc:	430a      	orrs	r2, r1
     5de:	815a      	strh	r2, [r3, #10]
     5e0:	891a      	ldrh	r2, [r3, #8]
     5e2:	393e      	subs	r1, #62	; 0x3e
     5e4:	430a      	orrs	r2, r1
     5e6:	811a      	strh	r2, [r3, #8]
     5e8:	2360      	movs	r3, #96	; 0x60
     5ea:	f2c4 0304 	movt	r3, #16388	; 0x4004
     5ee:	891a      	ldrh	r2, [r3, #8]
     5f0:	3901      	subs	r1, #1
     5f2:	430a      	orrs	r2, r1
     5f4:	811a      	strh	r2, [r3, #8]
     5f6:	b242      	sxtb	r2, r0
     5f8:	2a00      	cmp	r2, #0
     5fa:	da00      	bge.n	5fe <Write_Byte.constprop.0+0x2e>
     5fc:	e0a4      	b.n	748 <Write_Byte.constprop.0+0x178>
     5fe:	891a      	ldrh	r2, [r3, #8]
     600:	3103      	adds	r1, #3
     602:	430a      	orrs	r2, r1
     604:	811a      	strh	r2, [r3, #8]
     606:	46c0      	nop			; (mov r8, r8)
     608:	2360      	movs	r3, #96	; 0x60
     60a:	2401      	movs	r4, #1
     60c:	f2c4 0304 	movt	r3, #16388	; 0x4004
     610:	8959      	ldrh	r1, [r3, #10]
     612:	4321      	orrs	r1, r4
     614:	b289      	uxth	r1, r1
     616:	8159      	strh	r1, [r3, #10]
     618:	891a      	ldrh	r2, [r3, #8]
     61a:	4322      	orrs	r2, r4
     61c:	b292      	uxth	r2, r2
     61e:	811a      	strh	r2, [r3, #8]
     620:	0642      	lsls	r2, r0, #25
     622:	d500      	bpl.n	626 <Write_Byte.constprop.0+0x56>
     624:	e0b3      	b.n	78e <Write_Byte.constprop.0+0x1be>
     626:	2104      	movs	r1, #4
     628:	891a      	ldrh	r2, [r3, #8]
     62a:	430a      	orrs	r2, r1
     62c:	811a      	strh	r2, [r3, #8]
     62e:	46c0      	nop			; (mov r8, r8)
     630:	2360      	movs	r3, #96	; 0x60
     632:	2401      	movs	r4, #1
     634:	f2c4 0304 	movt	r3, #16388	; 0x4004
     638:	8959      	ldrh	r1, [r3, #10]
     63a:	4321      	orrs	r1, r4
     63c:	b289      	uxth	r1, r1
     63e:	8159      	strh	r1, [r3, #10]
     640:	891a      	ldrh	r2, [r3, #8]
     642:	4322      	orrs	r2, r4
     644:	b292      	uxth	r2, r2
     646:	811a      	strh	r2, [r3, #8]
     648:	0682      	lsls	r2, r0, #26
     64a:	d500      	bpl.n	64e <Write_Byte.constprop.0+0x7e>
     64c:	e09a      	b.n	784 <Write_Byte.constprop.0+0x1b4>
     64e:	2104      	movs	r1, #4
     650:	891a      	ldrh	r2, [r3, #8]
     652:	430a      	orrs	r2, r1
     654:	811a      	strh	r2, [r3, #8]
     656:	46c0      	nop			; (mov r8, r8)
     658:	2360      	movs	r3, #96	; 0x60
     65a:	2401      	movs	r4, #1
     65c:	f2c4 0304 	movt	r3, #16388	; 0x4004
     660:	8959      	ldrh	r1, [r3, #10]
     662:	4321      	orrs	r1, r4
     664:	b289      	uxth	r1, r1
     666:	8159      	strh	r1, [r3, #10]
     668:	891a      	ldrh	r2, [r3, #8]
     66a:	4322      	orrs	r2, r4
     66c:	b292      	uxth	r2, r2
     66e:	811a      	strh	r2, [r3, #8]
     670:	06c2      	lsls	r2, r0, #27
     672:	d500      	bpl.n	676 <Write_Byte.constprop.0+0xa6>
     674:	e081      	b.n	77a <Write_Byte.constprop.0+0x1aa>
     676:	2104      	movs	r1, #4
     678:	891a      	ldrh	r2, [r3, #8]
     67a:	430a      	orrs	r2, r1
     67c:	811a      	strh	r2, [r3, #8]
     67e:	46c0      	nop			; (mov r8, r8)
     680:	2360      	movs	r3, #96	; 0x60
     682:	2401      	movs	r4, #1
     684:	f2c4 0304 	movt	r3, #16388	; 0x4004
     688:	8959      	ldrh	r1, [r3, #10]
     68a:	4321      	orrs	r1, r4
     68c:	b289      	uxth	r1, r1
     68e:	8159      	strh	r1, [r3, #10]
     690:	891a      	ldrh	r2, [r3, #8]
     692:	4322      	orrs	r2, r4
     694:	b292      	uxth	r2, r2
     696:	811a      	strh	r2, [r3, #8]
     698:	0702      	lsls	r2, r0, #28
     69a:	d500      	bpl.n	69e <Write_Byte.constprop.0+0xce>
     69c:	e068      	b.n	770 <Write_Byte.constprop.0+0x1a0>
     69e:	2104      	movs	r1, #4
     6a0:	891a      	ldrh	r2, [r3, #8]
     6a2:	430a      	orrs	r2, r1
     6a4:	811a      	strh	r2, [r3, #8]
     6a6:	46c0      	nop			; (mov r8, r8)
     6a8:	2360      	movs	r3, #96	; 0x60
     6aa:	2401      	movs	r4, #1
     6ac:	f2c4 0304 	movt	r3, #16388	; 0x4004
     6b0:	8959      	ldrh	r1, [r3, #10]
     6b2:	4321      	orrs	r1, r4
     6b4:	b289      	uxth	r1, r1
     6b6:	8159      	strh	r1, [r3, #10]
     6b8:	891a      	ldrh	r2, [r3, #8]
     6ba:	4322      	orrs	r2, r4
     6bc:	b292      	uxth	r2, r2
     6be:	811a      	strh	r2, [r3, #8]
     6c0:	0742      	lsls	r2, r0, #29
     6c2:	d450      	bmi.n	766 <Write_Byte.constprop.0+0x196>
     6c4:	2104      	movs	r1, #4
     6c6:	891a      	ldrh	r2, [r3, #8]
     6c8:	430a      	orrs	r2, r1
     6ca:	811a      	strh	r2, [r3, #8]
     6cc:	46c0      	nop			; (mov r8, r8)
     6ce:	2360      	movs	r3, #96	; 0x60
     6d0:	2401      	movs	r4, #1
     6d2:	f2c4 0304 	movt	r3, #16388	; 0x4004
     6d6:	8959      	ldrh	r1, [r3, #10]
     6d8:	4321      	orrs	r1, r4
     6da:	b289      	uxth	r1, r1
     6dc:	8159      	strh	r1, [r3, #10]
     6de:	891a      	ldrh	r2, [r3, #8]
     6e0:	4322      	orrs	r2, r4
     6e2:	b292      	uxth	r2, r2
     6e4:	811a      	strh	r2, [r3, #8]
     6e6:	0782      	lsls	r2, r0, #30
     6e8:	d438      	bmi.n	75c <Write_Byte.constprop.0+0x18c>
     6ea:	2104      	movs	r1, #4
     6ec:	891a      	ldrh	r2, [r3, #8]
     6ee:	430a      	orrs	r2, r1
     6f0:	811a      	strh	r2, [r3, #8]
     6f2:	46c0      	nop			; (mov r8, r8)
     6f4:	2360      	movs	r3, #96	; 0x60
     6f6:	2401      	movs	r4, #1
     6f8:	f2c4 0304 	movt	r3, #16388	; 0x4004
     6fc:	8959      	ldrh	r1, [r3, #10]
     6fe:	4321      	orrs	r1, r4
     700:	b289      	uxth	r1, r1
     702:	8159      	strh	r1, [r3, #10]
     704:	891a      	ldrh	r2, [r3, #8]
     706:	4322      	orrs	r2, r4
     708:	b292      	uxth	r2, r2
     70a:	811a      	strh	r2, [r3, #8]
     70c:	07c2      	lsls	r2, r0, #31
     70e:	d420      	bmi.n	752 <Write_Byte.constprop.0+0x182>
     710:	2104      	movs	r1, #4
     712:	891a      	ldrh	r2, [r3, #8]
     714:	430a      	orrs	r2, r1
     716:	811a      	strh	r2, [r3, #8]
     718:	46c0      	nop			; (mov r8, r8)
     71a:	2360      	movs	r3, #96	; 0x60
     71c:	2101      	movs	r1, #1
     71e:	f2c4 0304 	movt	r3, #16388	; 0x4004
     722:	895a      	ldrh	r2, [r3, #10]
     724:	2002      	movs	r0, #2
     726:	430a      	orrs	r2, r1
     728:	815a      	strh	r2, [r3, #10]
     72a:	2240      	movs	r2, #64	; 0x40
     72c:	f2c4 0204 	movt	r2, #16388	; 0x4004
     730:	8951      	ldrh	r1, [r2, #10]
     732:	4301      	orrs	r1, r0
     734:	8151      	strh	r1, [r2, #10]
     736:	8951      	ldrh	r1, [r2, #10]
     738:	303e      	adds	r0, #62	; 0x3e
     73a:	4301      	orrs	r1, r0
     73c:	8151      	strh	r1, [r2, #10]
     73e:	2104      	movs	r1, #4
     740:	895a      	ldrh	r2, [r3, #10]
     742:	430a      	orrs	r2, r1
     744:	815a      	strh	r2, [r3, #10]
     746:	bd10      	pop	{r4, pc}
     748:	2104      	movs	r1, #4
     74a:	895a      	ldrh	r2, [r3, #10]
     74c:	430a      	orrs	r2, r1
     74e:	815a      	strh	r2, [r3, #10]
     750:	e759      	b.n	606 <Write_Byte.constprop.0+0x36>
     752:	2104      	movs	r1, #4
     754:	895a      	ldrh	r2, [r3, #10]
     756:	430a      	orrs	r2, r1
     758:	815a      	strh	r2, [r3, #10]
     75a:	e7dd      	b.n	718 <Write_Byte.constprop.0+0x148>
     75c:	2104      	movs	r1, #4
     75e:	895a      	ldrh	r2, [r3, #10]
     760:	430a      	orrs	r2, r1
     762:	815a      	strh	r2, [r3, #10]
     764:	e7c5      	b.n	6f2 <Write_Byte.constprop.0+0x122>
     766:	2104      	movs	r1, #4
     768:	895a      	ldrh	r2, [r3, #10]
     76a:	430a      	orrs	r2, r1
     76c:	815a      	strh	r2, [r3, #10]
     76e:	e7ad      	b.n	6cc <Write_Byte.constprop.0+0xfc>
     770:	2104      	movs	r1, #4
     772:	895a      	ldrh	r2, [r3, #10]
     774:	430a      	orrs	r2, r1
     776:	815a      	strh	r2, [r3, #10]
     778:	e795      	b.n	6a6 <Write_Byte.constprop.0+0xd6>
     77a:	2104      	movs	r1, #4
     77c:	895a      	ldrh	r2, [r3, #10]
     77e:	430a      	orrs	r2, r1
     780:	815a      	strh	r2, [r3, #10]
     782:	e77c      	b.n	67e <Write_Byte.constprop.0+0xae>
     784:	2104      	movs	r1, #4
     786:	895a      	ldrh	r2, [r3, #10]
     788:	430a      	orrs	r2, r1
     78a:	815a      	strh	r2, [r3, #10]
     78c:	e763      	b.n	656 <Write_Byte.constprop.0+0x86>
     78e:	2104      	movs	r1, #4
     790:	895a      	ldrh	r2, [r3, #10]
     792:	430a      	orrs	r2, r1
     794:	815a      	strh	r2, [r3, #10]
     796:	e74a      	b.n	62e <Write_Byte.constprop.0+0x5e>

00000798 <Write_Byte.constprop.1>:
     798:	2340      	movs	r3, #64	; 0x40
     79a:	2140      	movs	r1, #64	; 0x40
     79c:	b510      	push	{r4, lr}
     79e:	f2c4 0304 	movt	r3, #16388	; 0x4004
     7a2:	891a      	ldrh	r2, [r3, #8]
     7a4:	430a      	orrs	r2, r1
     7a6:	811a      	strh	r2, [r3, #8]
     7a8:	891a      	ldrh	r2, [r3, #8]
     7aa:	393e      	subs	r1, #62	; 0x3e
     7ac:	430a      	orrs	r2, r1
     7ae:	811a      	strh	r2, [r3, #8]
     7b0:	2360      	movs	r3, #96	; 0x60
     7b2:	f2c4 0304 	movt	r3, #16388	; 0x4004
     7b6:	891a      	ldrh	r2, [r3, #8]
     7b8:	3901      	subs	r1, #1
     7ba:	430a      	orrs	r2, r1
     7bc:	811a      	strh	r2, [r3, #8]
     7be:	b242      	sxtb	r2, r0
     7c0:	2a00      	cmp	r2, #0
     7c2:	da00      	bge.n	7c6 <Write_Byte.constprop.1+0x2e>
     7c4:	e0a4      	b.n	910 <Write_Byte.constprop.1+0x178>
     7c6:	891a      	ldrh	r2, [r3, #8]
     7c8:	3103      	adds	r1, #3
     7ca:	430a      	orrs	r2, r1
     7cc:	811a      	strh	r2, [r3, #8]
     7ce:	46c0      	nop			; (mov r8, r8)
     7d0:	2360      	movs	r3, #96	; 0x60
     7d2:	2401      	movs	r4, #1
     7d4:	f2c4 0304 	movt	r3, #16388	; 0x4004
     7d8:	8959      	ldrh	r1, [r3, #10]
     7da:	4321      	orrs	r1, r4
     7dc:	b289      	uxth	r1, r1
     7de:	8159      	strh	r1, [r3, #10]
     7e0:	891a      	ldrh	r2, [r3, #8]
     7e2:	4322      	orrs	r2, r4
     7e4:	b292      	uxth	r2, r2
     7e6:	811a      	strh	r2, [r3, #8]
     7e8:	0642      	lsls	r2, r0, #25
     7ea:	d500      	bpl.n	7ee <Write_Byte.constprop.1+0x56>
     7ec:	e0b3      	b.n	956 <Write_Byte.constprop.1+0x1be>
     7ee:	2104      	movs	r1, #4
     7f0:	891a      	ldrh	r2, [r3, #8]
     7f2:	430a      	orrs	r2, r1
     7f4:	811a      	strh	r2, [r3, #8]
     7f6:	46c0      	nop			; (mov r8, r8)
     7f8:	2360      	movs	r3, #96	; 0x60
     7fa:	2401      	movs	r4, #1
     7fc:	f2c4 0304 	movt	r3, #16388	; 0x4004
     800:	8959      	ldrh	r1, [r3, #10]
     802:	4321      	orrs	r1, r4
     804:	b289      	uxth	r1, r1
     806:	8159      	strh	r1, [r3, #10]
     808:	891a      	ldrh	r2, [r3, #8]
     80a:	4322      	orrs	r2, r4
     80c:	b292      	uxth	r2, r2
     80e:	811a      	strh	r2, [r3, #8]
     810:	0682      	lsls	r2, r0, #26
     812:	d500      	bpl.n	816 <Write_Byte.constprop.1+0x7e>
     814:	e09a      	b.n	94c <Write_Byte.constprop.1+0x1b4>
     816:	2104      	movs	r1, #4
     818:	891a      	ldrh	r2, [r3, #8]
     81a:	430a      	orrs	r2, r1
     81c:	811a      	strh	r2, [r3, #8]
     81e:	46c0      	nop			; (mov r8, r8)
     820:	2360      	movs	r3, #96	; 0x60
     822:	2401      	movs	r4, #1
     824:	f2c4 0304 	movt	r3, #16388	; 0x4004
     828:	8959      	ldrh	r1, [r3, #10]
     82a:	4321      	orrs	r1, r4
     82c:	b289      	uxth	r1, r1
     82e:	8159      	strh	r1, [r3, #10]
     830:	891a      	ldrh	r2, [r3, #8]
     832:	4322      	orrs	r2, r4
     834:	b292      	uxth	r2, r2
     836:	811a      	strh	r2, [r3, #8]
     838:	06c2      	lsls	r2, r0, #27
     83a:	d500      	bpl.n	83e <Write_Byte.constprop.1+0xa6>
     83c:	e081      	b.n	942 <Write_Byte.constprop.1+0x1aa>
     83e:	2104      	movs	r1, #4
     840:	891a      	ldrh	r2, [r3, #8]
     842:	430a      	orrs	r2, r1
     844:	811a      	strh	r2, [r3, #8]
     846:	46c0      	nop			; (mov r8, r8)
     848:	2360      	movs	r3, #96	; 0x60
     84a:	2401      	movs	r4, #1
     84c:	f2c4 0304 	movt	r3, #16388	; 0x4004
     850:	8959      	ldrh	r1, [r3, #10]
     852:	4321      	orrs	r1, r4
     854:	b289      	uxth	r1, r1
     856:	8159      	strh	r1, [r3, #10]
     858:	891a      	ldrh	r2, [r3, #8]
     85a:	4322      	orrs	r2, r4
     85c:	b292      	uxth	r2, r2
     85e:	811a      	strh	r2, [r3, #8]
     860:	0702      	lsls	r2, r0, #28
     862:	d500      	bpl.n	866 <Write_Byte.constprop.1+0xce>
     864:	e068      	b.n	938 <Write_Byte.constprop.1+0x1a0>
     866:	2104      	movs	r1, #4
     868:	891a      	ldrh	r2, [r3, #8]
     86a:	430a      	orrs	r2, r1
     86c:	811a      	strh	r2, [r3, #8]
     86e:	46c0      	nop			; (mov r8, r8)
     870:	2360      	movs	r3, #96	; 0x60
     872:	2401      	movs	r4, #1
     874:	f2c4 0304 	movt	r3, #16388	; 0x4004
     878:	8959      	ldrh	r1, [r3, #10]
     87a:	4321      	orrs	r1, r4
     87c:	b289      	uxth	r1, r1
     87e:	8159      	strh	r1, [r3, #10]
     880:	891a      	ldrh	r2, [r3, #8]
     882:	4322      	orrs	r2, r4
     884:	b292      	uxth	r2, r2
     886:	811a      	strh	r2, [r3, #8]
     888:	0742      	lsls	r2, r0, #29
     88a:	d450      	bmi.n	92e <Write_Byte.constprop.1+0x196>
     88c:	2104      	movs	r1, #4
     88e:	891a      	ldrh	r2, [r3, #8]
     890:	430a      	orrs	r2, r1
     892:	811a      	strh	r2, [r3, #8]
     894:	46c0      	nop			; (mov r8, r8)
     896:	2360      	movs	r3, #96	; 0x60
     898:	2401      	movs	r4, #1
     89a:	f2c4 0304 	movt	r3, #16388	; 0x4004
     89e:	8959      	ldrh	r1, [r3, #10]
     8a0:	4321      	orrs	r1, r4
     8a2:	b289      	uxth	r1, r1
     8a4:	8159      	strh	r1, [r3, #10]
     8a6:	891a      	ldrh	r2, [r3, #8]
     8a8:	4322      	orrs	r2, r4
     8aa:	b292      	uxth	r2, r2
     8ac:	811a      	strh	r2, [r3, #8]
     8ae:	0782      	lsls	r2, r0, #30
     8b0:	d438      	bmi.n	924 <Write_Byte.constprop.1+0x18c>
     8b2:	2104      	movs	r1, #4
     8b4:	891a      	ldrh	r2, [r3, #8]
     8b6:	430a      	orrs	r2, r1
     8b8:	811a      	strh	r2, [r3, #8]
     8ba:	46c0      	nop			; (mov r8, r8)
     8bc:	2360      	movs	r3, #96	; 0x60
     8be:	2401      	movs	r4, #1
     8c0:	f2c4 0304 	movt	r3, #16388	; 0x4004
     8c4:	8959      	ldrh	r1, [r3, #10]
     8c6:	4321      	orrs	r1, r4
     8c8:	b289      	uxth	r1, r1
     8ca:	8159      	strh	r1, [r3, #10]
     8cc:	891a      	ldrh	r2, [r3, #8]
     8ce:	4322      	orrs	r2, r4
     8d0:	b292      	uxth	r2, r2
     8d2:	811a      	strh	r2, [r3, #8]
     8d4:	07c2      	lsls	r2, r0, #31
     8d6:	d420      	bmi.n	91a <Write_Byte.constprop.1+0x182>
     8d8:	2104      	movs	r1, #4
     8da:	891a      	ldrh	r2, [r3, #8]
     8dc:	430a      	orrs	r2, r1
     8de:	811a      	strh	r2, [r3, #8]
     8e0:	46c0      	nop			; (mov r8, r8)
     8e2:	2360      	movs	r3, #96	; 0x60
     8e4:	2101      	movs	r1, #1
     8e6:	f2c4 0304 	movt	r3, #16388	; 0x4004
     8ea:	895a      	ldrh	r2, [r3, #10]
     8ec:	2002      	movs	r0, #2
     8ee:	430a      	orrs	r2, r1
     8f0:	815a      	strh	r2, [r3, #10]
     8f2:	2240      	movs	r2, #64	; 0x40
     8f4:	f2c4 0204 	movt	r2, #16388	; 0x4004
     8f8:	8951      	ldrh	r1, [r2, #10]
     8fa:	4301      	orrs	r1, r0
     8fc:	8151      	strh	r1, [r2, #10]
     8fe:	8951      	ldrh	r1, [r2, #10]
     900:	303e      	adds	r0, #62	; 0x3e
     902:	4301      	orrs	r1, r0
     904:	8151      	strh	r1, [r2, #10]
     906:	2104      	movs	r1, #4
     908:	895a      	ldrh	r2, [r3, #10]
     90a:	430a      	orrs	r2, r1
     90c:	815a      	strh	r2, [r3, #10]
     90e:	bd10      	pop	{r4, pc}
     910:	2104      	movs	r1, #4
     912:	895a      	ldrh	r2, [r3, #10]
     914:	430a      	orrs	r2, r1
     916:	815a      	strh	r2, [r3, #10]
     918:	e759      	b.n	7ce <Write_Byte.constprop.1+0x36>
     91a:	2104      	movs	r1, #4
     91c:	895a      	ldrh	r2, [r3, #10]
     91e:	430a      	orrs	r2, r1
     920:	815a      	strh	r2, [r3, #10]
     922:	e7dd      	b.n	8e0 <Write_Byte.constprop.1+0x148>
     924:	2104      	movs	r1, #4
     926:	895a      	ldrh	r2, [r3, #10]
     928:	430a      	orrs	r2, r1
     92a:	815a      	strh	r2, [r3, #10]
     92c:	e7c5      	b.n	8ba <Write_Byte.constprop.1+0x122>
     92e:	2104      	movs	r1, #4
     930:	895a      	ldrh	r2, [r3, #10]
     932:	430a      	orrs	r2, r1
     934:	815a      	strh	r2, [r3, #10]
     936:	e7ad      	b.n	894 <Write_Byte.constprop.1+0xfc>
     938:	2104      	movs	r1, #4
     93a:	895a      	ldrh	r2, [r3, #10]
     93c:	430a      	orrs	r2, r1
     93e:	815a      	strh	r2, [r3, #10]
     940:	e795      	b.n	86e <Write_Byte.constprop.1+0xd6>
     942:	2104      	movs	r1, #4
     944:	895a      	ldrh	r2, [r3, #10]
     946:	430a      	orrs	r2, r1
     948:	815a      	strh	r2, [r3, #10]
     94a:	e77c      	b.n	846 <Write_Byte.constprop.1+0xae>
     94c:	2104      	movs	r1, #4
     94e:	895a      	ldrh	r2, [r3, #10]
     950:	430a      	orrs	r2, r1
     952:	815a      	strh	r2, [r3, #10]
     954:	e763      	b.n	81e <Write_Byte.constprop.1+0x86>
     956:	2104      	movs	r1, #4
     958:	895a      	ldrh	r2, [r3, #10]
     95a:	430a      	orrs	r2, r1
     95c:	815a      	strh	r2, [r3, #10]
     95e:	e74a      	b.n	7f6 <Write_Byte.constprop.1+0x5e>

00000960 <Write_Byte>:
     960:	2340      	movs	r3, #64	; 0x40
     962:	b510      	push	{r4, lr}
     964:	f2c4 0304 	movt	r3, #16388	; 0x4004
     968:	2900      	cmp	r1, #0
     96a:	d100      	bne.n	96e <Write_Byte+0xe>
     96c:	e0ba      	b.n	ae4 <Write_Byte+0x184>
     96e:	2140      	movs	r1, #64	; 0x40
     970:	895a      	ldrh	r2, [r3, #10]
     972:	430a      	orrs	r2, r1
     974:	815a      	strh	r2, [r3, #10]
     976:	2340      	movs	r3, #64	; 0x40
     978:	2102      	movs	r1, #2
     97a:	f2c4 0304 	movt	r3, #16388	; 0x4004
     97e:	891a      	ldrh	r2, [r3, #8]
     980:	430a      	orrs	r2, r1
     982:	811a      	strh	r2, [r3, #8]
     984:	2360      	movs	r3, #96	; 0x60
     986:	f2c4 0304 	movt	r3, #16388	; 0x4004
     98a:	891a      	ldrh	r2, [r3, #8]
     98c:	3901      	subs	r1, #1
     98e:	430a      	orrs	r2, r1
     990:	811a      	strh	r2, [r3, #8]
     992:	b242      	sxtb	r2, r0
     994:	2a00      	cmp	r2, #0
     996:	da00      	bge.n	99a <Write_Byte+0x3a>
     998:	e0a9      	b.n	aee <Write_Byte+0x18e>
     99a:	891a      	ldrh	r2, [r3, #8]
     99c:	3103      	adds	r1, #3
     99e:	430a      	orrs	r2, r1
     9a0:	811a      	strh	r2, [r3, #8]
     9a2:	46c0      	nop			; (mov r8, r8)
     9a4:	2360      	movs	r3, #96	; 0x60
     9a6:	2401      	movs	r4, #1
     9a8:	f2c4 0304 	movt	r3, #16388	; 0x4004
     9ac:	8959      	ldrh	r1, [r3, #10]
     9ae:	4321      	orrs	r1, r4
     9b0:	b289      	uxth	r1, r1
     9b2:	8159      	strh	r1, [r3, #10]
     9b4:	891a      	ldrh	r2, [r3, #8]
     9b6:	4322      	orrs	r2, r4
     9b8:	b292      	uxth	r2, r2
     9ba:	811a      	strh	r2, [r3, #8]
     9bc:	0642      	lsls	r2, r0, #25
     9be:	d500      	bpl.n	9c2 <Write_Byte+0x62>
     9c0:	e0b8      	b.n	b34 <Write_Byte+0x1d4>
     9c2:	2104      	movs	r1, #4
     9c4:	891a      	ldrh	r2, [r3, #8]
     9c6:	430a      	orrs	r2, r1
     9c8:	811a      	strh	r2, [r3, #8]
     9ca:	46c0      	nop			; (mov r8, r8)
     9cc:	2360      	movs	r3, #96	; 0x60
     9ce:	2401      	movs	r4, #1
     9d0:	f2c4 0304 	movt	r3, #16388	; 0x4004
     9d4:	8959      	ldrh	r1, [r3, #10]
     9d6:	4321      	orrs	r1, r4
     9d8:	b289      	uxth	r1, r1
     9da:	8159      	strh	r1, [r3, #10]
     9dc:	891a      	ldrh	r2, [r3, #8]
     9de:	4322      	orrs	r2, r4
     9e0:	b292      	uxth	r2, r2
     9e2:	811a      	strh	r2, [r3, #8]
     9e4:	0682      	lsls	r2, r0, #26
     9e6:	d500      	bpl.n	9ea <Write_Byte+0x8a>
     9e8:	e09f      	b.n	b2a <Write_Byte+0x1ca>
     9ea:	2104      	movs	r1, #4
     9ec:	891a      	ldrh	r2, [r3, #8]
     9ee:	430a      	orrs	r2, r1
     9f0:	811a      	strh	r2, [r3, #8]
     9f2:	46c0      	nop			; (mov r8, r8)
     9f4:	2360      	movs	r3, #96	; 0x60
     9f6:	2401      	movs	r4, #1
     9f8:	f2c4 0304 	movt	r3, #16388	; 0x4004
     9fc:	8959      	ldrh	r1, [r3, #10]
     9fe:	4321      	orrs	r1, r4
     a00:	b289      	uxth	r1, r1
     a02:	8159      	strh	r1, [r3, #10]
     a04:	891a      	ldrh	r2, [r3, #8]
     a06:	4322      	orrs	r2, r4
     a08:	b292      	uxth	r2, r2
     a0a:	811a      	strh	r2, [r3, #8]
     a0c:	06c2      	lsls	r2, r0, #27
     a0e:	d500      	bpl.n	a12 <Write_Byte+0xb2>
     a10:	e086      	b.n	b20 <Write_Byte+0x1c0>
     a12:	2104      	movs	r1, #4
     a14:	891a      	ldrh	r2, [r3, #8]
     a16:	430a      	orrs	r2, r1
     a18:	811a      	strh	r2, [r3, #8]
     a1a:	46c0      	nop			; (mov r8, r8)
     a1c:	2360      	movs	r3, #96	; 0x60
     a1e:	2401      	movs	r4, #1
     a20:	f2c4 0304 	movt	r3, #16388	; 0x4004
     a24:	8959      	ldrh	r1, [r3, #10]
     a26:	4321      	orrs	r1, r4
     a28:	b289      	uxth	r1, r1
     a2a:	8159      	strh	r1, [r3, #10]
     a2c:	891a      	ldrh	r2, [r3, #8]
     a2e:	4322      	orrs	r2, r4
     a30:	b292      	uxth	r2, r2
     a32:	811a      	strh	r2, [r3, #8]
     a34:	0702      	lsls	r2, r0, #28
     a36:	d500      	bpl.n	a3a <Write_Byte+0xda>
     a38:	e06d      	b.n	b16 <Write_Byte+0x1b6>
     a3a:	2104      	movs	r1, #4
     a3c:	891a      	ldrh	r2, [r3, #8]
     a3e:	430a      	orrs	r2, r1
     a40:	811a      	strh	r2, [r3, #8]
     a42:	46c0      	nop			; (mov r8, r8)
     a44:	2360      	movs	r3, #96	; 0x60
     a46:	2401      	movs	r4, #1
     a48:	f2c4 0304 	movt	r3, #16388	; 0x4004
     a4c:	8959      	ldrh	r1, [r3, #10]
     a4e:	4321      	orrs	r1, r4
     a50:	b289      	uxth	r1, r1
     a52:	8159      	strh	r1, [r3, #10]
     a54:	891a      	ldrh	r2, [r3, #8]
     a56:	4322      	orrs	r2, r4
     a58:	b292      	uxth	r2, r2
     a5a:	811a      	strh	r2, [r3, #8]
     a5c:	0742      	lsls	r2, r0, #29
     a5e:	d455      	bmi.n	b0c <Write_Byte+0x1ac>
     a60:	2104      	movs	r1, #4
     a62:	891a      	ldrh	r2, [r3, #8]
     a64:	430a      	orrs	r2, r1
     a66:	811a      	strh	r2, [r3, #8]
     a68:	46c0      	nop			; (mov r8, r8)
     a6a:	2360      	movs	r3, #96	; 0x60
     a6c:	2401      	movs	r4, #1
     a6e:	f2c4 0304 	movt	r3, #16388	; 0x4004
     a72:	8959      	ldrh	r1, [r3, #10]
     a74:	4321      	orrs	r1, r4
     a76:	b289      	uxth	r1, r1
     a78:	8159      	strh	r1, [r3, #10]
     a7a:	891a      	ldrh	r2, [r3, #8]
     a7c:	4322      	orrs	r2, r4
     a7e:	b292      	uxth	r2, r2
     a80:	811a      	strh	r2, [r3, #8]
     a82:	0782      	lsls	r2, r0, #30
     a84:	d43d      	bmi.n	b02 <Write_Byte+0x1a2>
     a86:	2104      	movs	r1, #4
     a88:	891a      	ldrh	r2, [r3, #8]
     a8a:	430a      	orrs	r2, r1
     a8c:	811a      	strh	r2, [r3, #8]
     a8e:	46c0      	nop			; (mov r8, r8)
     a90:	2360      	movs	r3, #96	; 0x60
     a92:	2401      	movs	r4, #1
     a94:	f2c4 0304 	movt	r3, #16388	; 0x4004
     a98:	8959      	ldrh	r1, [r3, #10]
     a9a:	4321      	orrs	r1, r4
     a9c:	b289      	uxth	r1, r1
     a9e:	8159      	strh	r1, [r3, #10]
     aa0:	891a      	ldrh	r2, [r3, #8]
     aa2:	4322      	orrs	r2, r4
     aa4:	b292      	uxth	r2, r2
     aa6:	811a      	strh	r2, [r3, #8]
     aa8:	07c2      	lsls	r2, r0, #31
     aaa:	d425      	bmi.n	af8 <Write_Byte+0x198>
     aac:	2104      	movs	r1, #4
     aae:	891a      	ldrh	r2, [r3, #8]
     ab0:	430a      	orrs	r2, r1
     ab2:	811a      	strh	r2, [r3, #8]
     ab4:	46c0      	nop			; (mov r8, r8)
     ab6:	2360      	movs	r3, #96	; 0x60
     ab8:	2101      	movs	r1, #1
     aba:	f2c4 0304 	movt	r3, #16388	; 0x4004
     abe:	895a      	ldrh	r2, [r3, #10]
     ac0:	2002      	movs	r0, #2
     ac2:	430a      	orrs	r2, r1
     ac4:	815a      	strh	r2, [r3, #10]
     ac6:	2240      	movs	r2, #64	; 0x40
     ac8:	f2c4 0204 	movt	r2, #16388	; 0x4004
     acc:	8951      	ldrh	r1, [r2, #10]
     ace:	4301      	orrs	r1, r0
     ad0:	8151      	strh	r1, [r2, #10]
     ad2:	8951      	ldrh	r1, [r2, #10]
     ad4:	303e      	adds	r0, #62	; 0x3e
     ad6:	4301      	orrs	r1, r0
     ad8:	8151      	strh	r1, [r2, #10]
     ada:	2104      	movs	r1, #4
     adc:	895a      	ldrh	r2, [r3, #10]
     ade:	430a      	orrs	r2, r1
     ae0:	815a      	strh	r2, [r3, #10]
     ae2:	bd10      	pop	{r4, pc}
     ae4:	2140      	movs	r1, #64	; 0x40
     ae6:	891a      	ldrh	r2, [r3, #8]
     ae8:	430a      	orrs	r2, r1
     aea:	811a      	strh	r2, [r3, #8]
     aec:	e743      	b.n	976 <Write_Byte+0x16>
     aee:	2104      	movs	r1, #4
     af0:	895a      	ldrh	r2, [r3, #10]
     af2:	430a      	orrs	r2, r1
     af4:	815a      	strh	r2, [r3, #10]
     af6:	e754      	b.n	9a2 <Write_Byte+0x42>
     af8:	2104      	movs	r1, #4
     afa:	895a      	ldrh	r2, [r3, #10]
     afc:	430a      	orrs	r2, r1
     afe:	815a      	strh	r2, [r3, #10]
     b00:	e7d8      	b.n	ab4 <Write_Byte+0x154>
     b02:	2104      	movs	r1, #4
     b04:	895a      	ldrh	r2, [r3, #10]
     b06:	430a      	orrs	r2, r1
     b08:	815a      	strh	r2, [r3, #10]
     b0a:	e7c0      	b.n	a8e <Write_Byte+0x12e>
     b0c:	2104      	movs	r1, #4
     b0e:	895a      	ldrh	r2, [r3, #10]
     b10:	430a      	orrs	r2, r1
     b12:	815a      	strh	r2, [r3, #10]
     b14:	e7a8      	b.n	a68 <Write_Byte+0x108>
     b16:	2104      	movs	r1, #4
     b18:	895a      	ldrh	r2, [r3, #10]
     b1a:	430a      	orrs	r2, r1
     b1c:	815a      	strh	r2, [r3, #10]
     b1e:	e790      	b.n	a42 <Write_Byte+0xe2>
     b20:	2104      	movs	r1, #4
     b22:	895a      	ldrh	r2, [r3, #10]
     b24:	430a      	orrs	r2, r1
     b26:	815a      	strh	r2, [r3, #10]
     b28:	e777      	b.n	a1a <Write_Byte+0xba>
     b2a:	2104      	movs	r1, #4
     b2c:	895a      	ldrh	r2, [r3, #10]
     b2e:	430a      	orrs	r2, r1
     b30:	815a      	strh	r2, [r3, #10]
     b32:	e75e      	b.n	9f2 <Write_Byte+0x92>
     b34:	2104      	movs	r1, #4
     b36:	895a      	ldrh	r2, [r3, #10]
     b38:	430a      	orrs	r2, r1
     b3a:	815a      	strh	r2, [r3, #10]
     b3c:	e745      	b.n	9ca <Write_Byte+0x6a>
     b3e:	46c0      	nop			; (mov r8, r8)

00000b40 <OLED_Switch>:
     b40:	23ae      	movs	r3, #174	; 0xae
     b42:	b510      	push	{r4, lr}
     b44:	4318      	orrs	r0, r3
     b46:	f7ff fe27 	bl	798 <Write_Byte.constprop.1>
     b4a:	bd10      	pop	{r4, pc}

00000b4c <Set_ShowAddr>:
     b4c:	2307      	movs	r3, #7
     b4e:	1a1b      	subs	r3, r3, r0
     b50:	2050      	movs	r0, #80	; 0x50
     b52:	4240      	negs	r0, r0
     b54:	4318      	orrs	r0, r3
     b56:	b510      	push	{r4, lr}
     b58:	b2c0      	uxtb	r0, r0
     b5a:	000c      	movs	r4, r1
     b5c:	f7ff fe1c 	bl	798 <Write_Byte.constprop.1>
     b60:	210f      	movs	r1, #15
     b62:	1ca0      	adds	r0, r4, #2
     b64:	b2c4      	uxtb	r4, r0
     b66:	4008      	ands	r0, r1
     b68:	f7ff fe16 	bl	798 <Write_Byte.constprop.1>
     b6c:	0920      	lsrs	r0, r4, #4
     b6e:	2410      	movs	r4, #16
     b70:	4320      	orrs	r0, r4
     b72:	f7ff fe11 	bl	798 <Write_Byte.constprop.1>
     b76:	bd10      	pop	{r4, pc}

00000b78 <OLED_Init>:
     b78:	b510      	push	{r4, lr}
     b7a:	20ae      	movs	r0, #174	; 0xae
     b7c:	f7ff fe0c 	bl	798 <Write_Byte.constprop.1>
     b80:	20d5      	movs	r0, #213	; 0xd5
     b82:	f7ff fe09 	bl	798 <Write_Byte.constprop.1>
     b86:	2080      	movs	r0, #128	; 0x80
     b88:	f7ff fe06 	bl	798 <Write_Byte.constprop.1>
     b8c:	20a8      	movs	r0, #168	; 0xa8
     b8e:	f7ff fe03 	bl	798 <Write_Byte.constprop.1>
     b92:	203f      	movs	r0, #63	; 0x3f
     b94:	f7ff fe00 	bl	798 <Write_Byte.constprop.1>
     b98:	20d3      	movs	r0, #211	; 0xd3
     b9a:	f7ff fdfd 	bl	798 <Write_Byte.constprop.1>
     b9e:	2000      	movs	r0, #0
     ba0:	f7ff fdfa 	bl	798 <Write_Byte.constprop.1>
     ba4:	2040      	movs	r0, #64	; 0x40
     ba6:	f7ff fdf7 	bl	798 <Write_Byte.constprop.1>
     baa:	208d      	movs	r0, #141	; 0x8d
     bac:	f7ff fdf4 	bl	798 <Write_Byte.constprop.1>
     bb0:	2010      	movs	r0, #16
     bb2:	f7ff fdf1 	bl	798 <Write_Byte.constprop.1>
     bb6:	20a1      	movs	r0, #161	; 0xa1
     bb8:	f7ff fdee 	bl	798 <Write_Byte.constprop.1>
     bbc:	20c0      	movs	r0, #192	; 0xc0
     bbe:	f7ff fdeb 	bl	798 <Write_Byte.constprop.1>
     bc2:	2021      	movs	r0, #33	; 0x21
     bc4:	f7ff fde8 	bl	798 <Write_Byte.constprop.1>
     bc8:	2002      	movs	r0, #2
     bca:	f7ff fde5 	bl	798 <Write_Byte.constprop.1>
     bce:	20da      	movs	r0, #218	; 0xda
     bd0:	f7ff fde2 	bl	798 <Write_Byte.constprop.1>
     bd4:	2012      	movs	r0, #18
     bd6:	f7ff fddf 	bl	798 <Write_Byte.constprop.1>
     bda:	2081      	movs	r0, #129	; 0x81
     bdc:	f7ff fddc 	bl	798 <Write_Byte.constprop.1>
     be0:	209f      	movs	r0, #159	; 0x9f
     be2:	f7ff fdd9 	bl	798 <Write_Byte.constprop.1>
     be6:	20d9      	movs	r0, #217	; 0xd9
     be8:	f7ff fdd6 	bl	798 <Write_Byte.constprop.1>
     bec:	2022      	movs	r0, #34	; 0x22
     bee:	f7ff fdd3 	bl	798 <Write_Byte.constprop.1>
     bf2:	20db      	movs	r0, #219	; 0xdb
     bf4:	f7ff fdd0 	bl	798 <Write_Byte.constprop.1>
     bf8:	2040      	movs	r0, #64	; 0x40
     bfa:	f7ff fdcd 	bl	798 <Write_Byte.constprop.1>
     bfe:	20a4      	movs	r0, #164	; 0xa4
     c00:	f7ff fdca 	bl	798 <Write_Byte.constprop.1>
     c04:	20a6      	movs	r0, #166	; 0xa6
     c06:	f7ff fdc7 	bl	798 <Write_Byte.constprop.1>
     c0a:	bd10      	pop	{r4, pc}

00000c0c <Cls>:
     c0c:	b570      	push	{r4, r5, r6, lr}
     c0e:	2650      	movs	r6, #80	; 0x50
     c10:	2507      	movs	r5, #7
     c12:	4276      	negs	r6, r6
     c14:	0030      	movs	r0, r6
     c16:	4328      	orrs	r0, r5
     c18:	b2c0      	uxtb	r0, r0
     c1a:	f7ff fdbd 	bl	798 <Write_Byte.constprop.1>
     c1e:	2002      	movs	r0, #2
     c20:	f7ff fdba 	bl	798 <Write_Byte.constprop.1>
     c24:	2010      	movs	r0, #16
     c26:	f7ff fdb7 	bl	798 <Write_Byte.constprop.1>
     c2a:	2480      	movs	r4, #128	; 0x80
     c2c:	2000      	movs	r0, #0
     c2e:	3c01      	subs	r4, #1
     c30:	f7ff fcce 	bl	5d0 <Write_Byte.constprop.0>
     c34:	2c00      	cmp	r4, #0
     c36:	d1f9      	bne.n	c2c <Cls+0x20>
     c38:	3d01      	subs	r5, #1
     c3a:	d2eb      	bcs.n	c14 <Cls+0x8>
     c3c:	bd70      	pop	{r4, r5, r6, pc}
     c3e:	46c0      	nop			; (mov r8, r8)

00000c40 <ShowBrand>:
     c40:	b5f8      	push	{r3, r4, r5, r6, r7, lr}
     c42:	2350      	movs	r3, #80	; 0x50
     c44:	4647      	mov	r7, r8
     c46:	46ce      	mov	lr, r9
     c48:	f245 6538 	movw	r5, #22072	; 0x5638
     c4c:	425b      	negs	r3, r3
     c4e:	b580      	push	{r7, lr}
     c50:	2600      	movs	r6, #0
     c52:	2707      	movs	r7, #7
     c54:	4699      	mov	r9, r3
     c56:	f240 4800 	movw	r8, #1024	; 0x400
     c5a:	f2c0 0500 	movt	r5, #0
     c5e:	3580      	adds	r5, #128	; 0x80
     c60:	4648      	mov	r0, r9
     c62:	4338      	orrs	r0, r7
     c64:	b2c0      	uxtb	r0, r0
     c66:	f7ff fd97 	bl	798 <Write_Byte.constprop.1>
     c6a:	2002      	movs	r0, #2
     c6c:	f7ff fd94 	bl	798 <Write_Byte.constprop.1>
     c70:	002c      	movs	r4, r5
     c72:	2010      	movs	r0, #16
     c74:	f7ff fd90 	bl	798 <Write_Byte.constprop.1>
     c78:	3c80      	subs	r4, #128	; 0x80
     c7a:	7820      	ldrb	r0, [r4, #0]
     c7c:	3401      	adds	r4, #1
     c7e:	f7ff fca7 	bl	5d0 <Write_Byte.constprop.0>
     c82:	42a5      	cmp	r5, r4
     c84:	d1f9      	bne.n	c7a <ShowBrand+0x3a>
     c86:	3680      	adds	r6, #128	; 0x80
     c88:	3f01      	subs	r7, #1
     c8a:	3580      	adds	r5, #128	; 0x80
     c8c:	4546      	cmp	r6, r8
     c8e:	d1e7      	bne.n	c60 <ShowBrand+0x20>
     c90:	bcc0      	pop	{r6, r7}
     c92:	46b9      	mov	r9, r7
     c94:	46b0      	mov	r8, r6
     c96:	bdf8      	pop	{r3, r4, r5, r6, r7, pc}

00000c98 <ShowPower>:
     c98:	b5f8      	push	{r3, r4, r5, r6, r7, lr}
     c9a:	0004      	movs	r4, r0
     c9c:	2307      	movs	r3, #7
     c9e:	2050      	movs	r0, #80	; 0x50
     ca0:	1a9b      	subs	r3, r3, r2
     ca2:	4240      	negs	r0, r0
     ca4:	4318      	orrs	r0, r3
     ca6:	000d      	movs	r5, r1
     ca8:	b2c0      	uxtb	r0, r0
     caa:	0017      	movs	r7, r2
     cac:	f7ff fd74 	bl	798 <Write_Byte.constprop.1>
     cb0:	210f      	movs	r1, #15
     cb2:	3502      	adds	r5, #2
     cb4:	b2ee      	uxtb	r6, r5
     cb6:	400d      	ands	r5, r1
     cb8:	0028      	movs	r0, r5
     cba:	f7ff fd6d 	bl	798 <Write_Byte.constprop.1>
     cbe:	2310      	movs	r3, #16
     cc0:	0936      	lsrs	r6, r6, #4
     cc2:	431e      	orrs	r6, r3
     cc4:	0030      	movs	r0, r6
     cc6:	f7ff fd67 	bl	798 <Write_Byte.constprop.1>
     cca:	200f      	movs	r0, #15
     ccc:	f7ff fc80 	bl	5d0 <Write_Byte.constprop.0>
     cd0:	2c00      	cmp	r4, #0
     cd2:	d000      	beq.n	cd6 <ShowPower+0x3e>
     cd4:	e06e      	b.n	db4 <ShowPower+0x11c>
     cd6:	2008      	movs	r0, #8
     cd8:	f7ff fc7a 	bl	5d0 <Write_Byte.constprop.0>
     cdc:	2008      	movs	r0, #8
     cde:	f7ff fc77 	bl	5d0 <Write_Byte.constprop.0>
     ce2:	2008      	movs	r0, #8
     ce4:	f7ff fc74 	bl	5d0 <Write_Byte.constprop.0>
     ce8:	2008      	movs	r0, #8
     cea:	f7ff fc71 	bl	5d0 <Write_Byte.constprop.0>
     cee:	2008      	movs	r0, #8
     cf0:	f7ff fc6e 	bl	5d0 <Write_Byte.constprop.0>
     cf4:	2008      	movs	r0, #8
     cf6:	f7ff fc6b 	bl	5d0 <Write_Byte.constprop.0>
     cfa:	2008      	movs	r0, #8
     cfc:	f7ff fc68 	bl	5d0 <Write_Byte.constprop.0>
     d00:	2008      	movs	r0, #8
     d02:	f7ff fc65 	bl	5d0 <Write_Byte.constprop.0>
     d06:	2008      	movs	r0, #8
     d08:	f7ff fc62 	bl	5d0 <Write_Byte.constprop.0>
     d0c:	2008      	movs	r0, #8
     d0e:	f7ff fc5f 	bl	5d0 <Write_Byte.constprop.0>
     d12:	2008      	movs	r0, #8
     d14:	f7ff fc5c 	bl	5d0 <Write_Byte.constprop.0>
     d18:	2008      	movs	r0, #8
     d1a:	f7ff fc59 	bl	5d0 <Write_Byte.constprop.0>
     d1e:	200f      	movs	r0, #15
     d20:	f7ff fc56 	bl	5d0 <Write_Byte.constprop.0>
     d24:	2003      	movs	r0, #3
     d26:	f7ff fc53 	bl	5d0 <Write_Byte.constprop.0>
     d2a:	2003      	movs	r0, #3
     d2c:	f7ff fc50 	bl	5d0 <Write_Byte.constprop.0>
     d30:	2006      	movs	r0, #6
     d32:	1bc7      	subs	r7, r0, r7
     d34:	2050      	movs	r0, #80	; 0x50
     d36:	4240      	negs	r0, r0
     d38:	4338      	orrs	r0, r7
     d3a:	b2c0      	uxtb	r0, r0
     d3c:	f7ff fd2c 	bl	798 <Write_Byte.constprop.1>
     d40:	0028      	movs	r0, r5
     d42:	f7ff fd29 	bl	798 <Write_Byte.constprop.1>
     d46:	0030      	movs	r0, r6
     d48:	f7ff fd26 	bl	798 <Write_Byte.constprop.1>
     d4c:	20f0      	movs	r0, #240	; 0xf0
     d4e:	f7ff fc3f 	bl	5d0 <Write_Byte.constprop.0>
     d52:	2c00      	cmp	r4, #0
     d54:	d000      	beq.n	d58 <ShowPower+0xc0>
     d56:	e0ec      	b.n	f32 <ShowPower+0x29a>
     d58:	2010      	movs	r0, #16
     d5a:	f7ff fc39 	bl	5d0 <Write_Byte.constprop.0>
     d5e:	2010      	movs	r0, #16
     d60:	f7ff fc36 	bl	5d0 <Write_Byte.constprop.0>
     d64:	2010      	movs	r0, #16
     d66:	f7ff fc33 	bl	5d0 <Write_Byte.constprop.0>
     d6a:	2010      	movs	r0, #16
     d6c:	f7ff fc30 	bl	5d0 <Write_Byte.constprop.0>
     d70:	2010      	movs	r0, #16
     d72:	f7ff fc2d 	bl	5d0 <Write_Byte.constprop.0>
     d76:	2010      	movs	r0, #16
     d78:	f7ff fc2a 	bl	5d0 <Write_Byte.constprop.0>
     d7c:	2010      	movs	r0, #16
     d7e:	f7ff fc27 	bl	5d0 <Write_Byte.constprop.0>
     d82:	2010      	movs	r0, #16
     d84:	f7ff fc24 	bl	5d0 <Write_Byte.constprop.0>
     d88:	2010      	movs	r0, #16
     d8a:	f7ff fc21 	bl	5d0 <Write_Byte.constprop.0>
     d8e:	2010      	movs	r0, #16
     d90:	f7ff fc1e 	bl	5d0 <Write_Byte.constprop.0>
     d94:	2010      	movs	r0, #16
     d96:	f7ff fc1b 	bl	5d0 <Write_Byte.constprop.0>
     d9a:	2010      	movs	r0, #16
     d9c:	f7ff fc18 	bl	5d0 <Write_Byte.constprop.0>
     da0:	20f0      	movs	r0, #240	; 0xf0
     da2:	f7ff fc15 	bl	5d0 <Write_Byte.constprop.0>
     da6:	20c0      	movs	r0, #192	; 0xc0
     da8:	f7ff fc12 	bl	5d0 <Write_Byte.constprop.0>
     dac:	20c0      	movs	r0, #192	; 0xc0
     dae:	f7ff fc0f 	bl	5d0 <Write_Byte.constprop.0>
     db2:	bdf8      	pop	{r3, r4, r5, r6, r7, pc}
     db4:	200f      	movs	r0, #15
     db6:	f7ff fc0b 	bl	5d0 <Write_Byte.constprop.0>
     dba:	2c01      	cmp	r4, #1
     dbc:	d100      	bne.n	dc0 <ShowPower+0x128>
     dbe:	e78d      	b.n	cdc <ShowPower+0x44>
     dc0:	200f      	movs	r0, #15
     dc2:	f7ff fc05 	bl	5d0 <Write_Byte.constprop.0>
     dc6:	2c02      	cmp	r4, #2
     dc8:	d100      	bne.n	dcc <ShowPower+0x134>
     dca:	e78a      	b.n	ce2 <ShowPower+0x4a>
     dcc:	200f      	movs	r0, #15
     dce:	f7ff fbff 	bl	5d0 <Write_Byte.constprop.0>
     dd2:	2c03      	cmp	r4, #3
     dd4:	d100      	bne.n	dd8 <ShowPower+0x140>
     dd6:	e787      	b.n	ce8 <ShowPower+0x50>
     dd8:	200f      	movs	r0, #15
     dda:	f7ff fbf9 	bl	5d0 <Write_Byte.constprop.0>
     dde:	2c04      	cmp	r4, #4
     de0:	d100      	bne.n	de4 <ShowPower+0x14c>
     de2:	e784      	b.n	cee <ShowPower+0x56>
     de4:	200f      	movs	r0, #15
     de6:	f7ff fbf3 	bl	5d0 <Write_Byte.constprop.0>
     dea:	2c05      	cmp	r4, #5
     dec:	d100      	bne.n	df0 <ShowPower+0x158>
     dee:	e781      	b.n	cf4 <ShowPower+0x5c>
     df0:	200f      	movs	r0, #15
     df2:	f7ff fbed 	bl	5d0 <Write_Byte.constprop.0>
     df6:	2c06      	cmp	r4, #6
     df8:	d100      	bne.n	dfc <ShowPower+0x164>
     dfa:	e77e      	b.n	cfa <ShowPower+0x62>
     dfc:	200f      	movs	r0, #15
     dfe:	f7ff fbe7 	bl	5d0 <Write_Byte.constprop.0>
     e02:	2c07      	cmp	r4, #7
     e04:	d100      	bne.n	e08 <ShowPower+0x170>
     e06:	e77b      	b.n	d00 <ShowPower+0x68>
     e08:	200f      	movs	r0, #15
     e0a:	f7ff fbe1 	bl	5d0 <Write_Byte.constprop.0>
     e0e:	2c08      	cmp	r4, #8
     e10:	d100      	bne.n	e14 <ShowPower+0x17c>
     e12:	e778      	b.n	d06 <ShowPower+0x6e>
     e14:	200f      	movs	r0, #15
     e16:	f7ff fbdb 	bl	5d0 <Write_Byte.constprop.0>
     e1a:	2c09      	cmp	r4, #9
     e1c:	d067      	beq.n	eee <ShowPower+0x256>
     e1e:	200f      	movs	r0, #15
     e20:	f7ff fbd6 	bl	5d0 <Write_Byte.constprop.0>
     e24:	2c0a      	cmp	r4, #10
     e26:	d065      	beq.n	ef4 <ShowPower+0x25c>
     e28:	200f      	movs	r0, #15
     e2a:	f7ff fbd1 	bl	5d0 <Write_Byte.constprop.0>
     e2e:	2c0b      	cmp	r4, #11
     e30:	d100      	bne.n	e34 <ShowPower+0x19c>
     e32:	e08b      	b.n	f4c <ShowPower+0x2b4>
     e34:	200f      	movs	r0, #15
     e36:	f7ff fbcb 	bl	5d0 <Write_Byte.constprop.0>
     e3a:	200f      	movs	r0, #15
     e3c:	f7ff fbc8 	bl	5d0 <Write_Byte.constprop.0>
     e40:	2003      	movs	r0, #3
     e42:	f7ff fbc5 	bl	5d0 <Write_Byte.constprop.0>
     e46:	2003      	movs	r0, #3
     e48:	f7ff fbc2 	bl	5d0 <Write_Byte.constprop.0>
     e4c:	2006      	movs	r0, #6
     e4e:	1bc7      	subs	r7, r0, r7
     e50:	2050      	movs	r0, #80	; 0x50
     e52:	4240      	negs	r0, r0
     e54:	4338      	orrs	r0, r7
     e56:	b2c0      	uxtb	r0, r0
     e58:	f7ff fc9e 	bl	798 <Write_Byte.constprop.1>
     e5c:	0028      	movs	r0, r5
     e5e:	f7ff fc9b 	bl	798 <Write_Byte.constprop.1>
     e62:	0030      	movs	r0, r6
     e64:	f7ff fc98 	bl	798 <Write_Byte.constprop.1>
     e68:	20f0      	movs	r0, #240	; 0xf0
     e6a:	f7ff fbb1 	bl	5d0 <Write_Byte.constprop.0>
     e6e:	20f0      	movs	r0, #240	; 0xf0
     e70:	f7ff fbae 	bl	5d0 <Write_Byte.constprop.0>
     e74:	20f0      	movs	r0, #240	; 0xf0
     e76:	f7ff fbab 	bl	5d0 <Write_Byte.constprop.0>
     e7a:	20f0      	movs	r0, #240	; 0xf0
     e7c:	f7ff fba8 	bl	5d0 <Write_Byte.constprop.0>
     e80:	2c03      	cmp	r4, #3
     e82:	d800      	bhi.n	e86 <ShowPower+0x1ee>
     e84:	e771      	b.n	d6a <ShowPower+0xd2>
     e86:	20f0      	movs	r0, #240	; 0xf0
     e88:	f7ff fba2 	bl	5d0 <Write_Byte.constprop.0>
     e8c:	2c04      	cmp	r4, #4
     e8e:	d100      	bne.n	e92 <ShowPower+0x1fa>
     e90:	e76e      	b.n	d70 <ShowPower+0xd8>
     e92:	20f0      	movs	r0, #240	; 0xf0
     e94:	f7ff fb9c 	bl	5d0 <Write_Byte.constprop.0>
     e98:	2c05      	cmp	r4, #5
     e9a:	d100      	bne.n	e9e <ShowPower+0x206>
     e9c:	e76b      	b.n	d76 <ShowPower+0xde>
     e9e:	20f0      	movs	r0, #240	; 0xf0
     ea0:	f7ff fb96 	bl	5d0 <Write_Byte.constprop.0>
     ea4:	2c06      	cmp	r4, #6
     ea6:	d100      	bne.n	eaa <ShowPower+0x212>
     ea8:	e768      	b.n	d7c <ShowPower+0xe4>
     eaa:	20f0      	movs	r0, #240	; 0xf0
     eac:	f7ff fb90 	bl	5d0 <Write_Byte.constprop.0>
     eb0:	2c07      	cmp	r4, #7
     eb2:	d100      	bne.n	eb6 <ShowPower+0x21e>
     eb4:	e765      	b.n	d82 <ShowPower+0xea>
     eb6:	20f0      	movs	r0, #240	; 0xf0
     eb8:	f7ff fb8a 	bl	5d0 <Write_Byte.constprop.0>
     ebc:	2c08      	cmp	r4, #8
     ebe:	d100      	bne.n	ec2 <ShowPower+0x22a>
     ec0:	e762      	b.n	d88 <ShowPower+0xf0>
     ec2:	20f0      	movs	r0, #240	; 0xf0
     ec4:	f7ff fb84 	bl	5d0 <Write_Byte.constprop.0>
     ec8:	2c09      	cmp	r4, #9
     eca:	d100      	bne.n	ece <ShowPower+0x236>
     ecc:	e75f      	b.n	d8e <ShowPower+0xf6>
     ece:	20f0      	movs	r0, #240	; 0xf0
     ed0:	f7ff fb7e 	bl	5d0 <Write_Byte.constprop.0>
     ed4:	2c0a      	cmp	r4, #10
     ed6:	d100      	bne.n	eda <ShowPower+0x242>
     ed8:	e75c      	b.n	d94 <ShowPower+0xfc>
     eda:	20f0      	movs	r0, #240	; 0xf0
     edc:	f7ff fb78 	bl	5d0 <Write_Byte.constprop.0>
     ee0:	2c0b      	cmp	r4, #11
     ee2:	d100      	bne.n	ee6 <ShowPower+0x24e>
     ee4:	e759      	b.n	d9a <ShowPower+0x102>
     ee6:	20f0      	movs	r0, #240	; 0xf0
     ee8:	f7ff fb72 	bl	5d0 <Write_Byte.constprop.0>
     eec:	e758      	b.n	da0 <ShowPower+0x108>
     eee:	2008      	movs	r0, #8
     ef0:	f7ff fb6e 	bl	5d0 <Write_Byte.constprop.0>
     ef4:	2008      	movs	r0, #8
     ef6:	f7ff fb6b 	bl	5d0 <Write_Byte.constprop.0>
     efa:	2008      	movs	r0, #8
     efc:	f7ff fb68 	bl	5d0 <Write_Byte.constprop.0>
     f00:	200f      	movs	r0, #15
     f02:	f7ff fb65 	bl	5d0 <Write_Byte.constprop.0>
     f06:	2003      	movs	r0, #3
     f08:	f7ff fb62 	bl	5d0 <Write_Byte.constprop.0>
     f0c:	2003      	movs	r0, #3
     f0e:	f7ff fb5f 	bl	5d0 <Write_Byte.constprop.0>
     f12:	2006      	movs	r0, #6
     f14:	1bc7      	subs	r7, r0, r7
     f16:	3856      	subs	r0, #86	; 0x56
     f18:	4338      	orrs	r0, r7
     f1a:	b2c0      	uxtb	r0, r0
     f1c:	f7ff fc3c 	bl	798 <Write_Byte.constprop.1>
     f20:	0028      	movs	r0, r5
     f22:	f7ff fc39 	bl	798 <Write_Byte.constprop.1>
     f26:	0030      	movs	r0, r6
     f28:	f7ff fc36 	bl	798 <Write_Byte.constprop.1>
     f2c:	20f0      	movs	r0, #240	; 0xf0
     f2e:	f7ff fb4f 	bl	5d0 <Write_Byte.constprop.0>
     f32:	20f0      	movs	r0, #240	; 0xf0
     f34:	f7ff fb4c 	bl	5d0 <Write_Byte.constprop.0>
     f38:	2c01      	cmp	r4, #1
     f3a:	d800      	bhi.n	f3e <ShowPower+0x2a6>
     f3c:	e70f      	b.n	d5e <ShowPower+0xc6>
     f3e:	20f0      	movs	r0, #240	; 0xf0
     f40:	f7ff fb46 	bl	5d0 <Write_Byte.constprop.0>
     f44:	2c02      	cmp	r4, #2
     f46:	d800      	bhi.n	f4a <ShowPower+0x2b2>
     f48:	e70c      	b.n	d64 <ShowPower+0xcc>
     f4a:	e796      	b.n	e7a <ShowPower+0x1e2>
     f4c:	2008      	movs	r0, #8
     f4e:	f7ff fb3f 	bl	5d0 <Write_Byte.constprop.0>
     f52:	200f      	movs	r0, #15
     f54:	f7ff fb3c 	bl	5d0 <Write_Byte.constprop.0>
     f58:	2003      	movs	r0, #3
     f5a:	f7ff fb39 	bl	5d0 <Write_Byte.constprop.0>
     f5e:	2003      	movs	r0, #3
     f60:	f7ff fb36 	bl	5d0 <Write_Byte.constprop.0>
     f64:	2006      	movs	r0, #6
     f66:	1bc7      	subs	r7, r0, r7
     f68:	3856      	subs	r0, #86	; 0x56
     f6a:	4338      	orrs	r0, r7
     f6c:	b2c0      	uxtb	r0, r0
     f6e:	f7ff fc13 	bl	798 <Write_Byte.constprop.1>
     f72:	0028      	movs	r0, r5
     f74:	f7ff fc10 	bl	798 <Write_Byte.constprop.1>
     f78:	0030      	movs	r0, r6
     f7a:	f7ff fc0d 	bl	798 <Write_Byte.constprop.1>
     f7e:	20f0      	movs	r0, #240	; 0xf0
     f80:	f7ff fb26 	bl	5d0 <Write_Byte.constprop.0>
     f84:	20f0      	movs	r0, #240	; 0xf0
     f86:	f7ff fb23 	bl	5d0 <Write_Byte.constprop.0>
     f8a:	e7d8      	b.n	f3e <ShowPower+0x2a6>

00000f8c <Display>:
     f8c:	b5f0      	push	{r4, r5, r6, r7, lr}
     f8e:	4657      	mov	r7, sl
     f90:	464e      	mov	r6, r9
     f92:	4645      	mov	r5, r8
     f94:	46de      	mov	lr, fp
     f96:	b5e0      	push	{r5, r6, r7, lr}
     f98:	7803      	ldrb	r3, [r0, #0]
     f9a:	4681      	mov	r9, r0
     f9c:	4688      	mov	r8, r1
     f9e:	4692      	mov	sl, r2
     fa0:	b083      	sub	sp, #12
     fa2:	2b00      	cmp	r3, #0
     fa4:	d04f      	beq.n	1046 <Display+0xba>
     fa6:	f645 2b38 	movw	fp, #23096	; 0x5a38
     faa:	f2c0 0b00 	movt	fp, #0
     fae:	4652      	mov	r2, sl
     fb0:	2307      	movs	r3, #7
     fb2:	2050      	movs	r0, #80	; 0x50
     fb4:	1a9b      	subs	r3, r3, r2
     fb6:	4240      	negs	r0, r0
     fb8:	4318      	orrs	r0, r3
     fba:	b2c0      	uxtb	r0, r0
     fbc:	f7ff fbec 	bl	798 <Write_Byte.constprop.1>
     fc0:	4643      	mov	r3, r8
     fc2:	1c9e      	adds	r6, r3, #2
     fc4:	230f      	movs	r3, #15
     fc6:	b2f5      	uxtb	r5, r6
     fc8:	401e      	ands	r6, r3
     fca:	0030      	movs	r0, r6
     fcc:	f7ff fbe4 	bl	798 <Write_Byte.constprop.1>
     fd0:	2310      	movs	r3, #16
     fd2:	092d      	lsrs	r5, r5, #4
     fd4:	431d      	orrs	r5, r3
     fd6:	0028      	movs	r0, r5
     fd8:	f7ff fbde 	bl	798 <Write_Byte.constprop.1>
     fdc:	464b      	mov	r3, r9
     fde:	781f      	ldrb	r7, [r3, #0]
     fe0:	2f0a      	cmp	r7, #10
     fe2:	d037      	beq.n	1054 <Display+0xc8>
     fe4:	b27b      	sxtb	r3, r7
     fe6:	2b00      	cmp	r3, #0
     fe8:	db3f      	blt.n	106a <Display+0xde>
     fea:	f245 0338 	movw	r3, #20536	; 0x5038
     fee:	f2c0 0300 	movt	r3, #0
     ff2:	469c      	mov	ip, r3
     ff4:	2400      	movs	r4, #0
     ff6:	3f20      	subs	r7, #32
     ff8:	013f      	lsls	r7, r7, #4
     ffa:	4467      	add	r7, ip
     ffc:	5d38      	ldrb	r0, [r7, r4]
     ffe:	3401      	adds	r4, #1
    1000:	f7ff fae6 	bl	5d0 <Write_Byte.constprop.0>
    1004:	2c08      	cmp	r4, #8
    1006:	d1f9      	bne.n	ffc <Display+0x70>
    1008:	4652      	mov	r2, sl
    100a:	2306      	movs	r3, #6
    100c:	2050      	movs	r0, #80	; 0x50
    100e:	1a9b      	subs	r3, r3, r2
    1010:	4240      	negs	r0, r0
    1012:	4318      	orrs	r0, r3
    1014:	b2c0      	uxtb	r0, r0
    1016:	f7ff fbbf 	bl	798 <Write_Byte.constprop.1>
    101a:	0030      	movs	r0, r6
    101c:	f7ff fbbc 	bl	798 <Write_Byte.constprop.1>
    1020:	0028      	movs	r0, r5
    1022:	f7ff fbb9 	bl	798 <Write_Byte.constprop.1>
    1026:	5d38      	ldrb	r0, [r7, r4]
    1028:	3401      	adds	r4, #1
    102a:	f7ff fad1 	bl	5d0 <Write_Byte.constprop.0>
    102e:	2c10      	cmp	r4, #16
    1030:	d1f9      	bne.n	1026 <Display+0x9a>
    1032:	4641      	mov	r1, r8
    1034:	3108      	adds	r1, #8
    1036:	b2cb      	uxtb	r3, r1
    1038:	4698      	mov	r8, r3
    103a:	464b      	mov	r3, r9
    103c:	1c5a      	adds	r2, r3, #1
    103e:	785b      	ldrb	r3, [r3, #1]
    1040:	4691      	mov	r9, r2
    1042:	2b00      	cmp	r3, #0
    1044:	d1b3      	bne.n	fae <Display+0x22>
    1046:	b003      	add	sp, #12
    1048:	bcf0      	pop	{r4, r5, r6, r7}
    104a:	46bb      	mov	fp, r7
    104c:	46b2      	mov	sl, r6
    104e:	46a9      	mov	r9, r5
    1050:	46a0      	mov	r8, r4
    1052:	bdf0      	pop	{r4, r5, r6, r7, pc}
    1054:	4653      	mov	r3, sl
    1056:	2b05      	cmp	r3, #5
    1058:	d849      	bhi.n	10ee <Display+0x162>
    105a:	4652      	mov	r2, sl
    105c:	3202      	adds	r2, #2
    105e:	b2d3      	uxtb	r3, r2
    1060:	469a      	mov	sl, r3
    1062:	f240 0800 	movw	r8, #0
    1066:	464b      	mov	r3, r9
    1068:	e7e8      	b.n	103c <Display+0xb0>
    106a:	2fe6      	cmp	r7, #230	; 0xe6
    106c:	d045      	beq.n	10fa <Display+0x16e>
    106e:	2303      	movs	r3, #3
    1070:	2fe5      	cmp	r7, #229	; 0xe5
    1072:	d04f      	beq.n	1114 <Display+0x188>
    1074:	00da      	lsls	r2, r3, #3
    1076:	18d3      	adds	r3, r2, r3
    1078:	f645 2238 	movw	r2, #23096	; 0x5a38
    107c:	f2c0 0200 	movt	r2, #0
    1080:	4694      	mov	ip, r2
    1082:	009b      	lsls	r3, r3, #2
    1084:	1d1c      	adds	r4, r3, #4
    1086:	4464      	add	r4, ip
    1088:	469c      	mov	ip, r3
    108a:	4f2d      	ldr	r7, [pc, #180]	; (1140 <Display+0x1b4>)
    108c:	9301      	str	r3, [sp, #4]
    108e:	4467      	add	r7, ip
    1090:	7820      	ldrb	r0, [r4, #0]
    1092:	3401      	adds	r4, #1
    1094:	f7ff fa9c 	bl	5d0 <Write_Byte.constprop.0>
    1098:	42a7      	cmp	r7, r4
    109a:	d1f9      	bne.n	1090 <Display+0x104>
    109c:	4652      	mov	r2, sl
    109e:	2306      	movs	r3, #6
    10a0:	2050      	movs	r0, #80	; 0x50
    10a2:	1a9b      	subs	r3, r3, r2
    10a4:	4240      	negs	r0, r0
    10a6:	4318      	orrs	r0, r3
    10a8:	b2c0      	uxtb	r0, r0
    10aa:	f7ff fb75 	bl	798 <Write_Byte.constprop.1>
    10ae:	0030      	movs	r0, r6
    10b0:	f7ff fb72 	bl	798 <Write_Byte.constprop.1>
    10b4:	0028      	movs	r0, r5
    10b6:	f7ff fb6f 	bl	798 <Write_Byte.constprop.1>
    10ba:	f645 2238 	movw	r2, #23096	; 0x5a38
    10be:	9b01      	ldr	r3, [sp, #4]
    10c0:	f2c0 0200 	movt	r2, #0
    10c4:	001c      	movs	r4, r3
    10c6:	4694      	mov	ip, r2
    10c8:	465d      	mov	r5, fp
    10ca:	3414      	adds	r4, #20
    10cc:	4464      	add	r4, ip
    10ce:	469c      	mov	ip, r3
    10d0:	3524      	adds	r5, #36	; 0x24
    10d2:	4465      	add	r5, ip
    10d4:	7820      	ldrb	r0, [r4, #0]
    10d6:	3401      	adds	r4, #1
    10d8:	f7ff fa7a 	bl	5d0 <Write_Byte.constprop.0>
    10dc:	42a5      	cmp	r5, r4
    10de:	d1f9      	bne.n	10d4 <Display+0x148>
    10e0:	4641      	mov	r1, r8
    10e2:	3110      	adds	r1, #16
    10e4:	b2cb      	uxtb	r3, r1
    10e6:	4698      	mov	r8, r3
    10e8:	464b      	mov	r3, r9
    10ea:	3302      	adds	r3, #2
    10ec:	e7a6      	b.n	103c <Display+0xb0>
    10ee:	464b      	mov	r3, r9
    10f0:	f240 0a00 	movw	sl, #0
    10f4:	f240 0800 	movw	r8, #0
    10f8:	e7a0      	b.n	103c <Display+0xb0>
    10fa:	464b      	mov	r3, r9
    10fc:	785a      	ldrb	r2, [r3, #1]
    10fe:	2303      	movs	r3, #3
    1100:	2aad      	cmp	r2, #173	; 0xad
    1102:	d1b7      	bne.n	1074 <Display+0xe8>
    1104:	464a      	mov	r2, r9
    1106:	7892      	ldrb	r2, [r2, #2]
    1108:	3aa3      	subs	r2, #163	; 0xa3
    110a:	1e51      	subs	r1, r2, #1
    110c:	418a      	sbcs	r2, r1
    110e:	4252      	negs	r2, r2
    1110:	4013      	ands	r3, r2
    1112:	e7af      	b.n	1074 <Display+0xe8>
    1114:	464a      	mov	r2, r9
    1116:	7852      	ldrb	r2, [r2, #1]
    1118:	2a9c      	cmp	r2, #156	; 0x9c
    111a:	d008      	beq.n	112e <Display+0x1a2>
    111c:	2a91      	cmp	r2, #145	; 0x91
    111e:	d1a9      	bne.n	1074 <Display+0xe8>
    1120:	464b      	mov	r3, r9
    1122:	789b      	ldrb	r3, [r3, #2]
    1124:	3bb5      	subs	r3, #181	; 0xb5
    1126:	1e5a      	subs	r2, r3, #1
    1128:	4193      	sbcs	r3, r2
    112a:	3302      	adds	r3, #2
    112c:	e7a2      	b.n	1074 <Display+0xe8>
    112e:	464b      	mov	r3, r9
    1130:	789b      	ldrb	r3, [r3, #2]
    1132:	3ba8      	subs	r3, #168	; 0xa8
    1134:	1e5a      	subs	r2, r3, #1
    1136:	4193      	sbcs	r3, r2
    1138:	005b      	lsls	r3, r3, #1
    113a:	3301      	adds	r3, #1
    113c:	e79a      	b.n	1074 <Display+0xe8>
    113e:	46c0      	nop			; (mov r8, r8)
    1140:	00005a4c 	andeq	r5, r0, ip, asr #20

00001144 <task1>:
    1144:	b570      	push	{r4, r5, r6, lr}
    1146:	f244 44a4 	movw	r4, #17572	; 0x44a4
    114a:	2520      	movs	r5, #32
    114c:	f2c2 0400 	movt	r4, #8192	; 0x2000
    1150:	f2c4 0504 	movt	r5, #16388	; 0x4004
    1154:	e008      	b.n	1168 <task1+0x24>
    1156:	2208      	movs	r2, #8
    1158:	3301      	adds	r3, #1
    115a:	6223      	str	r3, [r4, #32]
    115c:	896b      	ldrh	r3, [r5, #10]
    115e:	4313      	orrs	r3, r2
    1160:	816b      	strh	r3, [r5, #10]
    1162:	2014      	movs	r0, #20
    1164:	f001 fe8a 	bl	2e7c <rt_thread_delay>
    1168:	2101      	movs	r1, #1
    116a:	f244 40a4 	movw	r0, #17572	; 0x44a4
    116e:	4249      	negs	r1, r1
    1170:	f2c2 0000 	movt	r0, #8192	; 0x2000
    1174:	f002 fa6c 	bl	3650 <rt_sem_take>
    1178:	2800      	cmp	r0, #0
    117a:	d1f2      	bne.n	1162 <task1+0x1e>
    117c:	6a23      	ldr	r3, [r4, #32]
    117e:	2b00      	cmp	r3, #0
    1180:	d0e9      	beq.n	1156 <task1+0x12>
    1182:	2208      	movs	r2, #8
    1184:	6220      	str	r0, [r4, #32]
    1186:	892b      	ldrh	r3, [r5, #8]
    1188:	4313      	orrs	r3, r2
    118a:	812b      	strh	r3, [r5, #8]
    118c:	e7e9      	b.n	1162 <task1+0x1e>
    118e:	46c0      	nop			; (mov r8, r8)

00001190 <led_sw>:
    1190:	b510      	push	{r4, lr}
    1192:	000c      	movs	r4, r1
    1194:	f645 21c8 	movw	r1, #23240	; 0x5ac8
    1198:	6860      	ldr	r0, [r4, #4]
    119a:	f2c0 0100 	movt	r1, #0
    119e:	f003 f81b 	bl	41d8 <rt_strcmp>
    11a2:	b998      	cbnz	r0, 11cc <led_sw+0x3c>
    11a4:	f244 43a4 	movw	r3, #17572	; 0x44a4
    11a8:	2201      	movs	r2, #1
    11aa:	f2c2 0300 	movt	r3, #8192	; 0x2000
    11ae:	621a      	str	r2, [r3, #32]
    11b0:	2320      	movs	r3, #32
    11b2:	2108      	movs	r1, #8
    11b4:	f645 20cc 	movw	r0, #23244	; 0x5acc
    11b8:	f2c4 0304 	movt	r3, #16388	; 0x4004
    11bc:	895a      	ldrh	r2, [r3, #10]
    11be:	f2c0 0000 	movt	r0, #0
    11c2:	430a      	orrs	r2, r1
    11c4:	815a      	strh	r2, [r3, #10]
    11c6:	f003 fa9d 	bl	4704 <rt_kprintf>
    11ca:	bd10      	pop	{r4, pc}
    11cc:	f645 21d8 	movw	r1, #23256	; 0x5ad8
    11d0:	6860      	ldr	r0, [r4, #4]
    11d2:	f2c0 0100 	movt	r1, #0
    11d6:	f002 ffff 	bl	41d8 <rt_strcmp>
    11da:	b990      	cbnz	r0, 1202 <led_sw+0x72>
    11dc:	f244 43a4 	movw	r3, #17572	; 0x44a4
    11e0:	f2c2 0300 	movt	r3, #8192	; 0x2000
    11e4:	6218      	str	r0, [r3, #32]
    11e6:	2320      	movs	r3, #32
    11e8:	2108      	movs	r1, #8
    11ea:	f645 20dc 	movw	r0, #23260	; 0x5adc
    11ee:	f2c4 0304 	movt	r3, #16388	; 0x4004
    11f2:	891a      	ldrh	r2, [r3, #8]
    11f4:	f2c0 0000 	movt	r0, #0
    11f8:	430a      	orrs	r2, r1
    11fa:	811a      	strh	r2, [r3, #8]
    11fc:	f003 fa82 	bl	4704 <rt_kprintf>
    1200:	e7e3      	b.n	11ca <led_sw+0x3a>
    1202:	f645 20e8 	movw	r0, #23272	; 0x5ae8
    1206:	f2c0 0000 	movt	r0, #0
    120a:	f003 fa7b 	bl	4704 <rt_kprintf>
    120e:	e7dc      	b.n	11ca <led_sw+0x3a>

00001210 <icu_irq7_isr>:
    1210:	f244 40a4 	movw	r0, #17572	; 0x44a4
    1214:	b510      	push	{r4, lr}
    1216:	f2c2 0000 	movt	r0, #8192	; 0x2000
    121a:	f002 fadf 	bl	37dc <rt_sem_release>
    121e:	f246 0300 	movw	r3, #24576	; 0x6000
    1222:	f240 311c 	movw	r1, #796	; 0x31c
    1226:	f2c4 0300 	movt	r3, #16384	; 0x4000
    122a:	585a      	ldr	r2, [r3, r1]
    122c:	4801      	ldr	r0, [pc, #4]	; (1234 <icu_irq7_isr+0x24>)
    122e:	4002      	ands	r2, r0
    1230:	505a      	str	r2, [r3, r1]
    1232:	bd10      	pop	{r4, pc}
    1234:	fffeffff 			; <UNDEFINED> instruction: 0xfffeffff

00001238 <sys_init>:
    1238:	2320      	movs	r3, #32
    123a:	2108      	movs	r1, #8
    123c:	b570      	push	{r4, r5, r6, lr}
    123e:	f2c4 0304 	movt	r3, #16388	; 0x4004
    1242:	885a      	ldrh	r2, [r3, #2]
    1244:	f24e 1400 	movw	r4, #57600	; 0xe100
    1248:	430a      	orrs	r2, r1
    124a:	2110      	movs	r1, #16
    124c:	2580      	movs	r5, #128	; 0x80
    124e:	805a      	strh	r2, [r3, #2]
    1250:	885a      	ldrh	r2, [r3, #2]
    1252:	f240 2001 	movw	r0, #513	; 0x201
    1256:	430a      	orrs	r2, r1
    1258:	805a      	strh	r2, [r3, #2]
    125a:	2100      	movs	r1, #0
    125c:	2205      	movs	r2, #5
    125e:	f000 f995 	bl	158c <bsp_port_init>
    1262:	2205      	movs	r2, #5
    1264:	2100      	movs	r1, #0
    1266:	f240 2006 	movw	r0, #518	; 0x206
    126a:	f000 f98f 	bl	158c <bsp_port_init>
    126e:	2205      	movs	r2, #5
    1270:	2100      	movs	r1, #0
    1272:	f240 3000 	movw	r0, #768	; 0x300
    1276:	f000 f989 	bl	158c <bsp_port_init>
    127a:	2205      	movs	r2, #5
    127c:	2100      	movs	r1, #0
    127e:	f240 3002 	movw	r0, #770	; 0x302
    1282:	f000 f983 	bl	158c <bsp_port_init>
    1286:	f2ce 0400 	movt	r4, #57344	; 0xe000
    128a:	f7ff fc75 	bl	b78 <OLED_Init>
    128e:	f7ff fcd7 	bl	c40 <ShowBrand>
    1292:	2001      	movs	r0, #1
    1294:	f7ff fc54 	bl	b40 <OLED_Switch>
    1298:	5165      	str	r5, [r4, r5]
    129a:	f3bf 8f4f 	dsb	sy
    129e:	f3bf 8f6f 	isb	sy
    12a2:	f246 0600 	movw	r6, #24576	; 0x6000
    12a6:	f240 321c 	movw	r2, #796	; 0x31c
    12aa:	f2c4 0600 	movt	r6, #16384	; 0x4000
    12ae:	58b3      	ldr	r3, [r6, r2]
    12b0:	4909      	ldr	r1, [pc, #36]	; (12d8 <sys_init+0xa0>)
    12b2:	200f      	movs	r0, #15
    12b4:	400b      	ands	r3, r1
    12b6:	50b3      	str	r3, [r6, r2]
    12b8:	3a18      	subs	r2, #24
    12ba:	58a3      	ldr	r3, [r4, r2]
    12bc:	2100      	movs	r1, #0
    12be:	021b      	lsls	r3, r3, #8
    12c0:	0a1b      	lsrs	r3, r3, #8
    12c2:	50a3      	str	r3, [r4, r2]
    12c4:	f244 0210 	movw	r2, #16400	; 0x4010
    12c8:	f000 f960 	bl	158c <bsp_port_init>
    12cc:	2390      	movs	r3, #144	; 0x90
    12ce:	71f3      	strb	r3, [r6, #7]
    12d0:	33f0      	adds	r3, #240	; 0xf0
    12d2:	50e5      	str	r5, [r4, r3]
    12d4:	6025      	str	r5, [r4, #0]
    12d6:	bd70      	pop	{r4, r5, r6, pc}
    12d8:	fffeffff 			; <UNDEFINED> instruction: 0xfffeffff

000012dc <main>:
    12dc:	b570      	push	{r4, r5, r6, lr}
    12de:	f244 44a4 	movw	r4, #17572	; 0x44a4
    12e2:	b084      	sub	sp, #16
    12e4:	f7ff ffa8 	bl	1238 <sys_init>
    12e8:	f645 21f8 	movw	r1, #23288	; 0x5af8
    12ec:	f2c2 0400 	movt	r4, #8192	; 0x2000
    12f0:	2300      	movs	r3, #0
    12f2:	2200      	movs	r2, #0
    12f4:	0020      	movs	r0, r4
    12f6:	f2c0 0100 	movt	r1, #0
    12fa:	f002 f97d 	bl	35f8 <rt_sem_init>
    12fe:	2314      	movs	r3, #20
    1300:	9303      	str	r3, [sp, #12]
    1302:	f244 63b8 	movw	r3, #18104	; 0x46b8
    1306:	f240 1500 	movw	r5, #256	; 0x100
    130a:	2602      	movs	r6, #2
    130c:	f241 1245 	movw	r2, #4421	; 0x1145
    1310:	f645 3100 	movw	r1, #23296	; 0x5b00
    1314:	3424      	adds	r4, #36	; 0x24
    1316:	f2c2 0300 	movt	r3, #8192	; 0x2000
    131a:	f2c0 0200 	movt	r2, #0
    131e:	f2c0 0100 	movt	r1, #0
    1322:	0020      	movs	r0, r4
    1324:	9501      	str	r5, [sp, #4]
    1326:	9300      	str	r3, [sp, #0]
    1328:	9602      	str	r6, [sp, #8]
    132a:	2300      	movs	r3, #0
    132c:	f001 fc82 	bl	2c34 <rt_thread_init>
    1330:	0020      	movs	r0, r4
    1332:	f001 fccb 	bl	2ccc <rt_thread_startup>
    1336:	f240 13f4 	movw	r3, #500	; 0x1f4
    133a:	f244 5424 	movw	r4, #17700	; 0x4524
    133e:	9303      	str	r3, [sp, #12]
    1340:	f244 53b8 	movw	r3, #17848	; 0x45b8
    1344:	f241 32ad 	movw	r2, #5037	; 0x13ad
    1348:	f645 3108 	movw	r1, #23304	; 0x5b08
    134c:	f2c2 0400 	movt	r4, #8192	; 0x2000
    1350:	341c      	adds	r4, #28
    1352:	f2c2 0300 	movt	r3, #8192	; 0x2000
    1356:	f2c0 0200 	movt	r2, #0
    135a:	f2c0 0100 	movt	r1, #0
    135e:	0020      	movs	r0, r4
    1360:	9501      	str	r5, [sp, #4]
    1362:	9300      	str	r3, [sp, #0]
    1364:	9602      	str	r6, [sp, #8]
    1366:	2300      	movs	r3, #0
    1368:	f001 fc64 	bl	2c34 <rt_thread_init>
    136c:	0020      	movs	r0, r4
    136e:	f001 fcad 	bl	2ccc <rt_thread_startup>
    1372:	f645 3010 	movw	r0, #23312	; 0x5b10
    1376:	2200      	movs	r2, #0
    1378:	2100      	movs	r1, #0
    137a:	2420      	movs	r4, #32
    137c:	f2c0 0000 	movt	r0, #0
    1380:	f7ff fe04 	bl	f8c <Display>
    1384:	2510      	movs	r5, #16
    1386:	f2c4 0404 	movt	r4, #16388	; 0x4004
    138a:	8963      	ldrh	r3, [r4, #10]
    138c:	f240 10f4 	movw	r0, #500	; 0x1f4
    1390:	432b      	orrs	r3, r5
    1392:	b29b      	uxth	r3, r3
    1394:	8163      	strh	r3, [r4, #10]
    1396:	f001 fd71 	bl	2e7c <rt_thread_delay>
    139a:	8923      	ldrh	r3, [r4, #8]
    139c:	f240 10f4 	movw	r0, #500	; 0x1f4
    13a0:	432b      	orrs	r3, r5
    13a2:	b29b      	uxth	r3, r3
    13a4:	8123      	strh	r3, [r4, #8]
    13a6:	f001 fd69 	bl	2e7c <rt_thread_delay>
    13aa:	e7ee      	b.n	138a <main+0xae>

000013ac <inpass_thread_entry>:
    13ac:	b510      	push	{r4, lr}
    13ae:	f240 30e8 	movw	r0, #1000	; 0x3e8
    13b2:	f001 fd63 	bl	2e7c <rt_thread_delay>
    13b6:	f7ff fc29 	bl	c0c <Cls>
    13ba:	f645 3044 	movw	r0, #23364	; 0x5b44
    13be:	2200      	movs	r2, #0
    13c0:	2100      	movs	r1, #0
    13c2:	f2c0 0000 	movt	r0, #0
    13c6:	f7ff fde1 	bl	f8c <Display>
    13ca:	f645 3054 	movw	r0, #23380	; 0x5b54
    13ce:	2202      	movs	r2, #2
    13d0:	2100      	movs	r1, #0
    13d2:	f2c0 0000 	movt	r0, #0
    13d6:	f7ff fdd9 	bl	f8c <Display>
    13da:	f240 10f4 	movw	r0, #500	; 0x1f4
    13de:	f001 fd4d 	bl	2e7c <rt_thread_delay>
    13e2:	f645 601c 	movw	r0, #24092	; 0x5e1c
    13e6:	2202      	movs	r2, #2
    13e8:	2100      	movs	r1, #0
    13ea:	f2c0 0000 	movt	r0, #0
    13ee:	f7ff fdcd 	bl	f8c <Display>
    13f2:	f240 10f4 	movw	r0, #500	; 0x1f4
    13f6:	f001 fd41 	bl	2e7c <rt_thread_delay>
    13fa:	e7e6      	b.n	13ca <inpass_thread_entry+0x1e>

000013fc <rt_hw_board_init>:
    13fc:	f24e 0210 	movw	r2, #57360	; 0xe010
    1400:	f64b 337f 	movw	r3, #47999	; 0xbb7f
    1404:	f64e 5100 	movw	r1, #60672	; 0xed00
    1408:	20c0      	movs	r0, #192	; 0xc0
    140a:	f2ce 0200 	movt	r2, #57344	; 0xe000
    140e:	b510      	push	{r4, lr}
    1410:	f2ce 0100 	movt	r1, #57344	; 0xe000
    1414:	6053      	str	r3, [r2, #4]
    1416:	6a0b      	ldr	r3, [r1, #32]
    1418:	0600      	lsls	r0, r0, #24
    141a:	021b      	lsls	r3, r3, #8
    141c:	0a1b      	lsrs	r3, r3, #8
    141e:	4303      	orrs	r3, r0
    1420:	620b      	str	r3, [r1, #32]
    1422:	2300      	movs	r3, #0
    1424:	6093      	str	r3, [r2, #8]
    1426:	3307      	adds	r3, #7
    1428:	6013      	str	r3, [r2, #0]
    142a:	f003 f9f7 	bl	481c <rt_components_board_init>
    142e:	bd10      	pop	{r4, pc}

00001430 <SysTick_Handler>:
    1430:	b510      	push	{r4, lr}
    1432:	f001 fb8b 	bl	2b4c <rt_interrupt_enter>
    1436:	f002 fa3b 	bl	38b0 <rt_tick_increase>
    143a:	f001 fb95 	bl	2b68 <rt_interrupt_leave>
    143e:	bd10      	pop	{r4, pc}

00001440 <uart_init>:
    1440:	b570      	push	{r4, r5, r6, lr}
    1442:	2580      	movs	r5, #128	; 0x80
    1444:	2480      	movs	r4, #128	; 0x80
    1446:	026d      	lsls	r5, r5, #9
    1448:	04e4      	lsls	r4, r4, #19
    144a:	b082      	sub	sp, #8
    144c:	002a      	movs	r2, r5
    144e:	0021      	movs	r1, r4
    1450:	f240 1000 	movw	r0, #256	; 0x100
    1454:	f000 f89a 	bl	158c <bsp_port_init>
    1458:	0021      	movs	r1, r4
    145a:	002a      	movs	r2, r5
    145c:	f240 1001 	movw	r0, #257	; 0x101
    1460:	f24e 1400 	movw	r4, #57600	; 0xe100
    1464:	f000 f892 	bl	158c <bsp_port_init>
    1468:	2601      	movs	r6, #1
    146a:	2380      	movs	r3, #128	; 0x80
    146c:	f2ce 0400 	movt	r4, #57344	; 0xe000
    1470:	50e6      	str	r6, [r4, r3]
    1472:	f3bf 8f4f 	dsb	sy
    1476:	f3bf 8f6f 	isb	sy
    147a:	2502      	movs	r5, #2
    147c:	50e5      	str	r5, [r4, r3]
    147e:	f3bf 8f4f 	dsb	sy
    1482:	f3bf 8f6f 	isb	sy
    1486:	f246 0300 	movw	r3, #24576	; 0x6000
    148a:	f240 3200 	movw	r2, #768	; 0x300
    148e:	f2c4 0300 	movt	r3, #16384	; 0x4000
    1492:	5899      	ldr	r1, [r3, r2]
    1494:	480c      	ldr	r0, [pc, #48]	; (14c8 <uart_init+0x88>)
    1496:	4001      	ands	r1, r0
    1498:	5099      	str	r1, [r3, r2]
    149a:	f240 3104 	movw	r1, #772	; 0x304
    149e:	585a      	ldr	r2, [r3, r1]
    14a0:	4002      	ands	r2, r0
    14a2:	505a      	str	r2, [r3, r1]
    14a4:	2000      	movs	r0, #0
    14a6:	2330      	movs	r3, #48	; 0x30
    14a8:	2200      	movs	r2, #0
    14aa:	9300      	str	r3, [sp, #0]
    14ac:	2110      	movs	r1, #16
    14ae:	2300      	movs	r3, #0
    14b0:	f2c4 0007 	movt	r0, #16391	; 0x4007
    14b4:	f000 f884 	bl	15c0 <bsp_sci_uart_init>
    14b8:	f240 1380 	movw	r3, #384	; 0x180
    14bc:	2000      	movs	r0, #0
    14be:	50e6      	str	r6, [r4, r3]
    14c0:	50e5      	str	r5, [r4, r3]
    14c2:	b002      	add	sp, #8
    14c4:	bd70      	pop	{r4, r5, r6, pc}
    14c6:	46c0      	nop			; (mov r8, r8)
    14c8:	fffeffff 			; <UNDEFINED> instruction: 0xfffeffff

000014cc <sci_uart_rxi_isr>:
    14cc:	f246 0300 	movw	r3, #24576	; 0x6000
    14d0:	f240 3100 	movw	r1, #768	; 0x300
    14d4:	f2c4 0300 	movt	r3, #16384	; 0x4000
    14d8:	585a      	ldr	r2, [r3, r1]
    14da:	4802      	ldr	r0, [pc, #8]	; (14e4 <sci_uart_rxi_isr+0x18>)
    14dc:	4002      	ands	r2, r0
    14de:	505a      	str	r2, [r3, r1]
    14e0:	4770      	bx	lr
    14e2:	46c0      	nop			; (mov r8, r8)
    14e4:	fffeffff 			; <UNDEFINED> instruction: 0xfffeffff

000014e8 <sci_uart_txi_isr>:
    14e8:	f246 0300 	movw	r3, #24576	; 0x6000
    14ec:	f240 3104 	movw	r1, #772	; 0x304
    14f0:	f2c4 0300 	movt	r3, #16384	; 0x4000
    14f4:	585a      	ldr	r2, [r3, r1]
    14f6:	4805      	ldr	r0, [pc, #20]	; (150c <sci_uart_txi_isr+0x24>)
    14f8:	4002      	ands	r2, r0
    14fa:	505a      	str	r2, [r3, r1]
    14fc:	f244 73b8 	movw	r3, #18360	; 0x47b8
    1500:	2200      	movs	r2, #0
    1502:	f2c2 0300 	movt	r3, #8192	; 0x2000
    1506:	601a      	str	r2, [r3, #0]
    1508:	4770      	bx	lr
    150a:	46c0      	nop			; (mov r8, r8)
    150c:	fffeffff 			; <UNDEFINED> instruction: 0xfffeffff

00001510 <rt_hw_console_output>:
    1510:	b510      	push	{r4, lr}
    1512:	0004      	movs	r4, r0
    1514:	f002 f842 	bl	359c <rt_enter_critical>
    1518:	7821      	ldrb	r1, [r4, #0]
    151a:	b171      	cbz	r1, 153a <rt_hw_console_output+0x2a>
    151c:	2200      	movs	r2, #0
    151e:	200d      	movs	r0, #13
    1520:	f2c4 0207 	movt	r2, #16391	; 0x4007
    1524:	290a      	cmp	r1, #10
    1526:	d00b      	beq.n	1540 <rt_hw_console_output+0x30>
    1528:	7913      	ldrb	r3, [r2, #4]
    152a:	b25b      	sxtb	r3, r3
    152c:	2b00      	cmp	r3, #0
    152e:	dafb      	bge.n	1528 <rt_hw_console_output+0x18>
    1530:	3401      	adds	r4, #1
    1532:	70d1      	strb	r1, [r2, #3]
    1534:	7821      	ldrb	r1, [r4, #0]
    1536:	2900      	cmp	r1, #0
    1538:	d1f4      	bne.n	1524 <rt_hw_console_output+0x14>
    153a:	f002 f83d 	bl	35b8 <rt_exit_critical>
    153e:	bd10      	pop	{r4, pc}
    1540:	7913      	ldrb	r3, [r2, #4]
    1542:	b25b      	sxtb	r3, r3
    1544:	2b00      	cmp	r3, #0
    1546:	dafb      	bge.n	1540 <rt_hw_console_output+0x30>
    1548:	70d0      	strb	r0, [r2, #3]
    154a:	7821      	ldrb	r1, [r4, #0]
    154c:	e7ec      	b.n	1528 <rt_hw_console_output+0x18>
    154e:	46c0      	nop			; (mov r8, r8)

00001550 <rt_hw_console_getchar>:
    1550:	2300      	movs	r3, #0
    1552:	b510      	push	{r4, lr}
    1554:	f2c4 0307 	movt	r3, #16391	; 0x4007
    1558:	791a      	ldrb	r2, [r3, #4]
    155a:	0652      	lsls	r2, r2, #25
    155c:	d502      	bpl.n	1564 <rt_hw_console_getchar+0x14>
    155e:	7958      	ldrb	r0, [r3, #5]
    1560:	b2c0      	uxtb	r0, r0
    1562:	bd10      	pop	{r4, pc}
    1564:	2220      	movs	r2, #32
    1566:	7919      	ldrb	r1, [r3, #4]
    1568:	420a      	tst	r2, r1
    156a:	d002      	beq.n	1572 <rt_hw_console_getchar+0x22>
    156c:	7919      	ldrb	r1, [r3, #4]
    156e:	4391      	bics	r1, r2
    1570:	7119      	strb	r1, [r3, #4]
    1572:	200a      	movs	r0, #10
    1574:	f001 fd1c 	bl	2fb0 <rt_thread_mdelay>
    1578:	20ff      	movs	r0, #255	; 0xff
    157a:	e7f2      	b.n	1562 <rt_hw_console_getchar+0x12>

0000157c <Default_Handler>:
    157c:	e7fe      	b.n	157c <Default_Handler>
    157e:	46c0      	nop			; (mov r8, r8)

00001580 <Reset_Handler>:
    1580:	b510      	push	{r4, lr}
    1582:	f000 f999 	bl	18b8 <SystemInit>
    1586:	f003 f975 	bl	4874 <entry>
    158a:	e7fe      	b.n	158a <Reset_Handler+0xa>

0000158c <bsp_port_init>:
    158c:	b570      	push	{r4, r5, r6, lr}
    158e:	f640 5400 	movw	r4, #3328	; 0xd00
    1592:	2600      	movs	r6, #0
    1594:	2340      	movs	r3, #64	; 0x40
    1596:	25ff      	movs	r5, #255	; 0xff
    1598:	4311      	orrs	r1, r2
    159a:	f640 0200 	movw	r2, #2048	; 0x800
    159e:	f2c4 0404 	movt	r4, #16388	; 0x4004
    15a2:	70e6      	strb	r6, [r4, #3]
    15a4:	70e3      	strb	r3, [r4, #3]
    15a6:	0a03      	lsrs	r3, r0, #8
    15a8:	011b      	lsls	r3, r3, #4
    15aa:	4028      	ands	r0, r5
    15ac:	181b      	adds	r3, r3, r0
    15ae:	f2c4 0204 	movt	r2, #16388	; 0x4004
    15b2:	009b      	lsls	r3, r3, #2
    15b4:	5099      	str	r1, [r3, r2]
    15b6:	2380      	movs	r3, #128	; 0x80
    15b8:	70e6      	strb	r6, [r4, #3]
    15ba:	70e3      	strb	r3, [r4, #3]
    15bc:	bd70      	pop	{r4, r5, r6, pc}
    15be:	46c0      	nop			; (mov r8, r8)

000015c0 <bsp_sci_uart_init>:
    15c0:	b570      	push	{r4, r5, r6, lr}
    15c2:	f247 0500 	movw	r5, #28672	; 0x7000
    15c6:	ac04      	add	r4, sp, #16
    15c8:	f2c4 0504 	movt	r5, #16388	; 0x4004
    15cc:	7826      	ldrb	r6, [r4, #0]
    15ce:	682c      	ldr	r4, [r5, #0]
    15d0:	431a      	orrs	r2, r3
    15d2:	0064      	lsls	r4, r4, #1
    15d4:	0864      	lsrs	r4, r4, #1
    15d6:	602c      	str	r4, [r5, #0]
    15d8:	2500      	movs	r5, #0
    15da:	2400      	movs	r4, #0
    15dc:	23e2      	movs	r3, #226	; 0xe2
    15de:	7085      	strb	r5, [r0, #2]
    15e0:	7105      	strb	r5, [r0, #4]
    15e2:	8285      	strh	r5, [r0, #20]
    15e4:	7244      	strb	r4, [r0, #9]
    15e6:	7284      	strb	r4, [r0, #10]
    15e8:	72c4      	strb	r4, [r0, #11]
    15ea:	8345      	strh	r5, [r0, #26]
    15ec:	7344      	strb	r4, [r0, #13]
    15ee:	2406      	movs	r4, #6
    15f0:	4319      	orrs	r1, r3
    15f2:	3bae      	subs	r3, #174	; 0xae
    15f4:	7704      	strb	r4, [r0, #28]
    15f6:	7002      	strb	r2, [r0, #0]
    15f8:	7181      	strb	r1, [r0, #6]
    15fa:	71c3      	strb	r3, [r0, #7]
    15fc:	3b28      	subs	r3, #40	; 0x28
    15fe:	7043      	strb	r3, [r0, #1]
    1600:	33f3      	adds	r3, #243	; 0xf3
    1602:	7483      	strb	r3, [r0, #18]
    1604:	7086      	strb	r6, [r0, #2]
    1606:	bd70      	pop	{r4, r5, r6, pc}

00001608 <bsp_sci_irq_enable>:
    1608:	7883      	ldrb	r3, [r0, #2]
    160a:	430b      	orrs	r3, r1
    160c:	7083      	strb	r3, [r0, #2]
    160e:	4770      	bx	lr

00001610 <bsp_sci_irq_disable>:
    1610:	7883      	ldrb	r3, [r0, #2]
    1612:	438b      	bics	r3, r1
    1614:	7083      	strb	r3, [r0, #2]
    1616:	4770      	bx	lr

00001618 <bsp_irq_cfg>:
    1618:	f645 3058 	movw	r0, #23384	; 0x5b58
    161c:	b510      	push	{r4, lr}
    161e:	f246 0400 	movw	r4, #24576	; 0x6000
    1622:	2300      	movs	r3, #0
    1624:	f2c0 0000 	movt	r0, #0
    1628:	f2c4 0400 	movt	r4, #16384	; 0x4000
    162c:	001a      	movs	r2, r3
    162e:	5cc1      	ldrb	r1, [r0, r3]
    1630:	32c0      	adds	r2, #192	; 0xc0
    1632:	0092      	lsls	r2, r2, #2
    1634:	3301      	adds	r3, #1
    1636:	5111      	str	r1, [r2, r4]
    1638:	2b20      	cmp	r3, #32
    163a:	d1f7      	bne.n	162c <bsp_irq_cfg+0x14>
    163c:	bd10      	pop	{r4, pc}
    163e:	46c0      	nop			; (mov r8, r8)

00001640 <bsp_prv_operating_mode_set>:
    1640:	f24e 0200 	movw	r2, #57344	; 0xe000
    1644:	21aa      	movs	r1, #170	; 0xaa
    1646:	b510      	push	{r4, lr}
    1648:	f2c4 0201 	movt	r2, #16385	; 0x4001
    164c:	2804      	cmp	r0, #4
    164e:	d02e      	beq.n	16ae <bsp_prv_operating_mode_set+0x6e>
    1650:	5c53      	ldrb	r3, [r2, r1]
    1652:	06db      	lsls	r3, r3, #27
    1654:	0fdc      	lsrs	r4, r3, #31
    1656:	2b00      	cmp	r3, #0
    1658:	dbfa      	blt.n	1650 <bsp_prv_operating_mode_set+0x10>
    165a:	5454      	strb	r4, [r2, r1]
    165c:	f24e 0200 	movw	r2, #57344	; 0xe000
    1660:	21aa      	movs	r1, #170	; 0xaa
    1662:	f2c4 0201 	movt	r2, #16385	; 0x4001
    1666:	5c53      	ldrb	r3, [r2, r1]
    1668:	2b00      	cmp	r3, #0
    166a:	d1fc      	bne.n	1666 <bsp_prv_operating_mode_set+0x26>
    166c:	33a0      	adds	r3, #160	; 0xa0
    166e:	5cd3      	ldrb	r3, [r2, r3]
    1670:	4298      	cmp	r0, r3
    1672:	d01b      	beq.n	16ac <bsp_prv_operating_mode_set+0x6c>
    1674:	2336      	movs	r3, #54	; 0x36
    1676:	5cd3      	ldrb	r3, [r2, r3]
    1678:	b93b      	cbnz	r3, 168a <bsp_prv_operating_mode_set+0x4a>
    167a:	f24e 0200 	movw	r2, #57344	; 0xe000
    167e:	213c      	movs	r1, #60	; 0x3c
    1680:	f2c4 0201 	movt	r2, #16385	; 0x4001
    1684:	5c53      	ldrb	r3, [r2, r1]
    1686:	07db      	lsls	r3, r3, #31
    1688:	d5fc      	bpl.n	1684 <bsp_prv_operating_mode_set+0x44>
    168a:	f24e 0200 	movw	r2, #57344	; 0xe000
    168e:	21a0      	movs	r1, #160	; 0xa0
    1690:	f2c4 0201 	movt	r2, #16385	; 0x4001
    1694:	5c53      	ldrb	r3, [r2, r1]
    1696:	06db      	lsls	r3, r3, #27
    1698:	d4fc      	bmi.n	1694 <bsp_prv_operating_mode_set+0x54>
    169a:	5450      	strb	r0, [r2, r1]
    169c:	f24e 0200 	movw	r2, #57344	; 0xe000
    16a0:	21a0      	movs	r1, #160	; 0xa0
    16a2:	f2c4 0201 	movt	r2, #16385	; 0x4001
    16a6:	5c53      	ldrb	r3, [r2, r1]
    16a8:	06db      	lsls	r3, r3, #27
    16aa:	d4fc      	bmi.n	16a6 <bsp_prv_operating_mode_set+0x66>
    16ac:	bd10      	pop	{r4, pc}
    16ae:	5c53      	ldrb	r3, [r2, r1]
    16b0:	06db      	lsls	r3, r3, #27
    16b2:	d4fc      	bmi.n	16ae <bsp_prv_operating_mode_set+0x6e>
    16b4:	2301      	movs	r3, #1
    16b6:	5453      	strb	r3, [r2, r1]
    16b8:	f24e 0200 	movw	r2, #57344	; 0xe000
    16bc:	21aa      	movs	r1, #170	; 0xaa
    16be:	f2c4 0201 	movt	r2, #16385	; 0x4001
    16c2:	5c53      	ldrb	r3, [r2, r1]
    16c4:	06db      	lsls	r3, r3, #27
    16c6:	d4fc      	bmi.n	16c2 <bsp_prv_operating_mode_set+0x82>
    16c8:	e7f0      	b.n	16ac <bsp_prv_operating_mode_set+0x6c>
    16ca:	46c0      	nop			; (mov r8, r8)

000016cc <SystemCoreClockUpdate>:
    16cc:	f24e 0300 	movw	r3, #57344	; 0xe000
    16d0:	2226      	movs	r2, #38	; 0x26
    16d2:	f244 4174 	movw	r1, #17524	; 0x4474
    16d6:	f2c4 0301 	movt	r3, #16385	; 0x4001
    16da:	5c98      	ldrb	r0, [r3, r2]
    16dc:	6a1b      	ldr	r3, [r3, #32]
    16de:	0080      	lsls	r0, r0, #2
    16e0:	f2c2 0100 	movt	r1, #8192	; 0x2000
    16e4:	5841      	ldr	r1, [r0, r1]
    16e6:	015b      	lsls	r3, r3, #5
    16e8:	0f5b      	lsrs	r3, r3, #29
    16ea:	f244 72bc 	movw	r2, #18364	; 0x47bc
    16ee:	40d9      	lsrs	r1, r3
    16f0:	f2c2 0200 	movt	r2, #8192	; 0x2000
    16f4:	6011      	str	r1, [r2, #0]
    16f6:	4770      	bx	lr

000016f8 <bsp_prv_clock_set>:
    16f8:	f244 4374 	movw	r3, #17524	; 0x4474
    16fc:	0082      	lsls	r2, r0, #2
    16fe:	f2c2 0300 	movt	r3, #8192	; 0x2000
    1702:	b570      	push	{r4, r5, r6, lr}
    1704:	58d5      	ldr	r5, [r2, r3]
    1706:	f644 0300 	movw	r3, #18432	; 0x4800
    170a:	014c      	lsls	r4, r1, #5
    170c:	0f64      	lsrs	r4, r4, #29
    170e:	f2c0 13e8 	movt	r3, #488	; 0x1e8
    1712:	40e5      	lsrs	r5, r4
    1714:	429d      	cmp	r5, r3
    1716:	d90b      	bls.n	1730 <bsp_prv_clock_set+0x38>
    1718:	f24e 0300 	movw	r3, #57344	; 0xe000
    171c:	2201      	movs	r2, #1
    171e:	2631      	movs	r6, #49	; 0x31
    1720:	f2c4 0301 	movt	r3, #16385	; 0x4001
    1724:	559a      	strb	r2, [r3, r6]
    1726:	f64f 73c4 	movw	r3, #65476	; 0xffc4
    172a:	f2c4 037e 	movt	r3, #16510	; 0x407e
    172e:	701a      	strb	r2, [r3, #0]
    1730:	23e0      	movs	r3, #224	; 0xe0
    1732:	f24e 0200 	movw	r2, #57344	; 0xe000
    1736:	04db      	lsls	r3, r3, #19
    1738:	f2c4 0201 	movt	r2, #16385	; 0x4001
    173c:	4019      	ands	r1, r3
    173e:	6a13      	ldr	r3, [r2, #32]
    1740:	015b      	lsls	r3, r3, #5
    1742:	0f5b      	lsrs	r3, r3, #29
    1744:	42a3      	cmp	r3, r4
    1746:	d21b      	bcs.n	1780 <bsp_prv_clock_set+0x88>
    1748:	2326      	movs	r3, #38	; 0x26
    174a:	b2c0      	uxtb	r0, r0
    174c:	6211      	str	r1, [r2, #32]
    174e:	54d0      	strb	r0, [r2, r3]
    1750:	f244 73bc 	movw	r3, #18364	; 0x47bc
    1754:	f2c2 0300 	movt	r3, #8192	; 0x2000
    1758:	601d      	str	r5, [r3, #0]
    175a:	f644 0300 	movw	r3, #18432	; 0x4800
    175e:	f2c0 13e8 	movt	r3, #488	; 0x1e8
    1762:	429d      	cmp	r5, r3
    1764:	d80b      	bhi.n	177e <bsp_prv_clock_set+0x86>
    1766:	f24e 0300 	movw	r3, #57344	; 0xe000
    176a:	2200      	movs	r2, #0
    176c:	2131      	movs	r1, #49	; 0x31
    176e:	f2c4 0301 	movt	r3, #16385	; 0x4001
    1772:	545a      	strb	r2, [r3, r1]
    1774:	f64f 73c4 	movw	r3, #65476	; 0xffc4
    1778:	f2c4 037e 	movt	r3, #16510	; 0x407e
    177c:	701a      	strb	r2, [r3, #0]
    177e:	bd70      	pop	{r4, r5, r6, pc}
    1780:	2326      	movs	r3, #38	; 0x26
    1782:	b2c0      	uxtb	r0, r0
    1784:	54d0      	strb	r0, [r2, r3]
    1786:	6211      	str	r1, [r2, #32]
    1788:	e7e2      	b.n	1750 <bsp_prv_clock_set+0x58>
    178a:	46c0      	nop			; (mov r8, r8)

0000178c <bsp_clock_init>:
    178c:	f24e 0300 	movw	r3, #57344	; 0xe000
    1790:	f240 32fe 	movw	r2, #1022	; 0x3fe
    1794:	4946      	ldr	r1, [pc, #280]	; (18b0 <bsp_clock_init+0x124>)
    1796:	f2c4 0301 	movt	r3, #16385	; 0x4001
    179a:	b530      	push	{r4, r5, lr}
    179c:	5299      	strh	r1, [r3, r2]
    179e:	f24c 0200 	movw	r2, #49152	; 0xc000
    17a2:	2100      	movs	r1, #0
    17a4:	f643 70c8 	movw	r0, #16328	; 0x3fc8
    17a8:	f2c4 027e 	movt	r2, #16510	; 0x407e
    17ac:	5411      	strb	r1, [r2, r0]
    17ae:	f244 4074 	movw	r0, #17524	; 0x4474
    17b2:	f646 4200 	movw	r2, #27648	; 0x6c00
    17b6:	f2c2 0000 	movt	r0, #8192	; 0x2000
    17ba:	f2c0 22dc 	movt	r2, #732	; 0x2dc
    17be:	6002      	str	r2, [r0, #0]
    17c0:	f241 2200 	movw	r2, #4608	; 0x1200
    17c4:	f2c0 027a 	movt	r2, #122	; 0x7a
    17c8:	6042      	str	r2, [r0, #4]
    17ca:	f248 0200 	movw	r2, #32768	; 0x8000
    17ce:	f242 4400 	movw	r4, #9216	; 0x2400
    17d2:	6082      	str	r2, [r0, #8]
    17d4:	6102      	str	r2, [r0, #16]
    17d6:	2226      	movs	r2, #38	; 0x26
    17d8:	f2c0 04f4 	movt	r4, #244	; 0xf4
    17dc:	60c4      	str	r4, [r0, #12]
    17de:	5c9d      	ldrb	r5, [r3, r2]
    17e0:	6a1a      	ldr	r2, [r3, #32]
    17e2:	00ad      	lsls	r5, r5, #2
    17e4:	5945      	ldr	r5, [r0, r5]
    17e6:	0152      	lsls	r2, r2, #5
    17e8:	0f52      	lsrs	r2, r2, #29
    17ea:	f244 74bc 	movw	r4, #18364	; 0x47bc
    17ee:	40d5      	lsrs	r5, r2
    17f0:	f240 4213 	movw	r2, #1043	; 0x413
    17f4:	f2c2 0400 	movt	r4, #8192	; 0x2000
    17f8:	6025      	str	r5, [r4, #0]
    17fa:	5499      	strb	r1, [r3, r2]
    17fc:	2509      	movs	r5, #9
    17fe:	22a2      	movs	r2, #162	; 0xa2
    1800:	549d      	strb	r5, [r3, r2]
    1802:	f240 4280 	movw	r2, #1152	; 0x480
    1806:	5c9d      	ldrb	r5, [r3, r2]
    1808:	b11d      	cbz	r5, 1812 <bsp_clock_init+0x86>
    180a:	f240 4581 	movw	r5, #1153	; 0x481
    180e:	5559      	strb	r1, [r3, r5]
    1810:	5499      	strb	r1, [r3, r2]
    1812:	f24e 0300 	movw	r3, #57344	; 0xe000
    1816:	22a0      	movs	r2, #160	; 0xa0
    1818:	f2c4 0301 	movt	r3, #16385	; 0x4001
    181c:	5c9a      	ldrb	r2, [r3, r2]
    181e:	b1ca      	cbz	r2, 1854 <bsp_clock_init+0xc8>
    1820:	2236      	movs	r2, #54	; 0x36
    1822:	5c9a      	ldrb	r2, [r3, r2]
    1824:	b91a      	cbnz	r2, 182e <bsp_clock_init+0xa2>
    1826:	213c      	movs	r1, #60	; 0x3c
    1828:	5c5a      	ldrb	r2, [r3, r1]
    182a:	07d2      	lsls	r2, r2, #31
    182c:	d5fc      	bpl.n	1828 <bsp_clock_init+0x9c>
    182e:	f24e 0200 	movw	r2, #57344	; 0xe000
    1832:	21a0      	movs	r1, #160	; 0xa0
    1834:	f2c4 0201 	movt	r2, #16385	; 0x4001
    1838:	5c53      	ldrb	r3, [r2, r1]
    183a:	06db      	lsls	r3, r3, #27
    183c:	0fdd      	lsrs	r5, r3, #31
    183e:	2b00      	cmp	r3, #0
    1840:	dbfa      	blt.n	1838 <bsp_clock_init+0xac>
    1842:	5455      	strb	r5, [r2, r1]
    1844:	f24e 0200 	movw	r2, #57344	; 0xe000
    1848:	21a0      	movs	r1, #160	; 0xa0
    184a:	f2c4 0201 	movt	r2, #16385	; 0x4001
    184e:	5c53      	ldrb	r3, [r2, r1]
    1850:	06db      	lsls	r3, r3, #27
    1852:	d4fc      	bmi.n	184e <bsp_clock_init+0xc2>
    1854:	f24e 0200 	movw	r2, #57344	; 0xe000
    1858:	2100      	movs	r1, #0
    185a:	2336      	movs	r3, #54	; 0x36
    185c:	f2c4 0201 	movt	r2, #16385	; 0x4001
    1860:	54d1      	strb	r1, [r2, r3]
    1862:	313c      	adds	r1, #60	; 0x3c
    1864:	5c53      	ldrb	r3, [r2, r1]
    1866:	07db      	lsls	r3, r3, #31
    1868:	d5fc      	bpl.n	1864 <bsp_clock_init+0xd8>
    186a:	2101      	movs	r1, #1
    186c:	2331      	movs	r3, #49	; 0x31
    186e:	54d1      	strb	r1, [r2, r3]
    1870:	f64f 73c4 	movw	r3, #65476	; 0xffc4
    1874:	f2c4 037e 	movt	r3, #16510	; 0x407e
    1878:	7019      	strb	r1, [r3, #0]
    187a:	2500      	movs	r5, #0
    187c:	2326      	movs	r3, #38	; 0x26
    187e:	54d5      	strb	r5, [r2, r3]
    1880:	3501      	adds	r5, #1
    1882:	35ff      	adds	r5, #255	; 0xff
    1884:	6215      	str	r5, [r2, #32]
    1886:	5cd5      	ldrb	r5, [r2, r3]
    1888:	6a13      	ldr	r3, [r2, #32]
    188a:	00ad      	lsls	r5, r5, #2
    188c:	5940      	ldr	r0, [r0, r5]
    188e:	015b      	lsls	r3, r3, #5
    1890:	0f5b      	lsrs	r3, r3, #29
    1892:	40d8      	lsrs	r0, r3
    1894:	f240 33fe 	movw	r3, #1022	; 0x3fe
    1898:	6020      	str	r0, [r4, #0]
    189a:	4806      	ldr	r0, [pc, #24]	; (18b4 <bsp_clock_init+0x128>)
    189c:	52d0      	strh	r0, [r2, r3]
    189e:	f24c 0300 	movw	r3, #49152	; 0xc000
    18a2:	f643 72c8 	movw	r2, #16328	; 0x3fc8
    18a6:	f2c4 037e 	movt	r3, #16510	; 0x407e
    18aa:	5499      	strb	r1, [r3, r2]
    18ac:	bd30      	pop	{r4, r5, pc}
    18ae:	46c0      	nop			; (mov r8, r8)
    18b0:	ffffa503 			; <UNDEFINED> instruction: 0xffffa503
    18b4:	ffffa500 			; <UNDEFINED> instruction: 0xffffa500

000018b8 <SystemInit>:
    18b8:	f240 0300 	movw	r3, #0
    18bc:	f64e 5200 	movw	r2, #60672	; 0xed00
    18c0:	b570      	push	{r4, r5, r6, lr}
    18c2:	f2ce 0200 	movt	r2, #57344	; 0xe000
    18c6:	f2c0 0300 	movt	r3, #0
    18ca:	b082      	sub	sp, #8
    18cc:	6093      	str	r3, [r2, #8]
    18ce:	f7ff ff5d 	bl	178c <bsp_clock_init>
    18d2:	466b      	mov	r3, sp
    18d4:	2600      	movs	r6, #0
    18d6:	1ddc      	adds	r4, r3, #7
    18d8:	7026      	strb	r6, [r4, #0]
    18da:	2001      	movs	r0, #1
    18dc:	7823      	ldrb	r3, [r4, #0]
    18de:	f000 f8ab 	bl	1a38 <R_BSP_RegisterProtectDisable>
    18e2:	f3ef 8110 	mrs	r1, PRIMASK
    18e6:	2501      	movs	r5, #1
    18e8:	f385 8810 	msr	PRIMASK, r5
    18ec:	f247 0300 	movw	r3, #28672	; 0x7000
    18f0:	f2c4 0304 	movt	r3, #16388	; 0x4004
    18f4:	685a      	ldr	r2, [r3, #4]
    18f6:	4839      	ldr	r0, [pc, #228]	; (19dc <SystemInit+0x124>)
    18f8:	4002      	ands	r2, r0
    18fa:	605a      	str	r2, [r3, #4]
    18fc:	685a      	ldr	r2, [r3, #4]
    18fe:	f381 8810 	msr	PRIMASK, r1
    1902:	f640 0100 	movw	r1, #2048	; 0x800
    1906:	f2c4 0104 	movt	r1, #16388	; 0x4004
    190a:	680a      	ldr	r2, [r1, #0]
    190c:	07d2      	lsls	r2, r2, #31
    190e:	0fd2      	lsrs	r2, r2, #31
    1910:	7022      	strb	r2, [r4, #0]
    1912:	680a      	ldr	r2, [r1, #0]
    1914:	07d2      	lsls	r2, r2, #31
    1916:	0fd2      	lsrs	r2, r2, #31
    1918:	7022      	strb	r2, [r4, #0]
    191a:	680a      	ldr	r2, [r1, #0]
    191c:	07d2      	lsls	r2, r2, #31
    191e:	0fd2      	lsrs	r2, r2, #31
    1920:	7022      	strb	r2, [r4, #0]
    1922:	f3ef 8110 	mrs	r1, PRIMASK
    1926:	f385 8810 	msr	PRIMASK, r5
    192a:	2280      	movs	r2, #128	; 0x80
    192c:	6858      	ldr	r0, [r3, #4]
    192e:	0552      	lsls	r2, r2, #21
    1930:	4302      	orrs	r2, r0
    1932:	605a      	str	r2, [r3, #4]
    1934:	685b      	ldr	r3, [r3, #4]
    1936:	f381 8810 	msr	PRIMASK, r1
    193a:	2001      	movs	r0, #1
    193c:	f000 f852 	bl	19e4 <R_BSP_RegisterProtectEnable>
    1940:	f640 5300 	movw	r3, #3328	; 0xd00
    1944:	4a26      	ldr	r2, [pc, #152]	; (19e0 <SystemInit+0x128>)
    1946:	f2c4 0300 	movt	r3, #16384	; 0x4000
    194a:	809e      	strh	r6, [r3, #4]
    194c:	801a      	strh	r2, [r3, #0]
    194e:	f245 02e0 	movw	r2, #20704	; 0x50e0
    1952:	f2c2 0200 	movt	r2, #8192	; 0x2000
    1956:	609a      	str	r2, [r3, #8]
    1958:	f245 42e0 	movw	r2, #21728	; 0x54e0
    195c:	f2c2 0200 	movt	r2, #8192	; 0x2000
    1960:	60da      	str	r2, [r3, #12]
    1962:	f246 0200 	movw	r2, #24576	; 0x6000
    1966:	f240 1120 	movw	r1, #288	; 0x120
    196a:	f241 0000 	movw	r0, #4096	; 0x1000
    196e:	f2c4 0200 	movt	r2, #16384	; 0x4000
    1972:	5250      	strh	r0, [r2, r1]
    1974:	f644 62e0 	movw	r2, #20192	; 0x4ee0
    1978:	f244 4088 	movw	r0, #17544	; 0x4488
    197c:	f2c2 0200 	movt	r2, #8192	; 0x2000
    1980:	f2c2 0000 	movt	r0, #8192	; 0x2000
    1984:	809d      	strh	r5, [r3, #4]
    1986:	2100      	movs	r1, #0
    1988:	1a12      	subs	r2, r2, r0
    198a:	f003 f96d 	bl	4c68 <memset>
    198e:	f244 0000 	movw	r0, #16384	; 0x4000
    1992:	f244 4274 	movw	r2, #17524	; 0x4474
    1996:	f246 4114 	movw	r1, #25620	; 0x6414
    199a:	f2c2 0000 	movt	r0, #8192	; 0x2000
    199e:	f2c2 0200 	movt	r2, #8192	; 0x2000
    19a2:	1a12      	subs	r2, r2, r0
    19a4:	f2c0 0100 	movt	r1, #0
    19a8:	f003 f90e 	bl	4bc8 <memcpy>
    19ac:	f244 4568 	movw	r5, #17512	; 0x4468
    19b0:	f244 4370 	movw	r3, #17520	; 0x4470
    19b4:	f2c2 0500 	movt	r5, #8192	; 0x2000
    19b8:	f2c2 0300 	movt	r3, #8192	; 0x2000
    19bc:	1b5b      	subs	r3, r3, r5
    19be:	109e      	asrs	r6, r3, #2
    19c0:	2b00      	cmp	r3, #0
    19c2:	dd05      	ble.n	19d0 <SystemInit+0x118>
    19c4:	2400      	movs	r4, #0
    19c6:	cd08      	ldmia	r5!, {r3}
    19c8:	3401      	adds	r4, #1
    19ca:	4798      	blx	r3
    19cc:	42a6      	cmp	r6, r4
    19ce:	dcfa      	bgt.n	19c6 <SystemInit+0x10e>
    19d0:	f7ff fe7c 	bl	16cc <SystemCoreClockUpdate>
    19d4:	f7ff fe20 	bl	1618 <bsp_irq_cfg>
    19d8:	b002      	add	sp, #8
    19da:	bd70      	pop	{r4, r5, r6, pc}
    19dc:	efffffff 	svc	0x00ffffff
    19e0:	ffffa500 			; <UNDEFINED> instruction: 0xffffa500

000019e4 <R_BSP_RegisterProtectEnable>:
    19e4:	b570      	push	{r4, r5, r6, lr}
    19e6:	f3ef 8110 	mrs	r1, PRIMASK
    19ea:	2301      	movs	r3, #1
    19ec:	f383 8810 	msr	PRIMASK, r3
    19f0:	f244 73c0 	movw	r3, #18368	; 0x47c0
    19f4:	0040      	lsls	r0, r0, #1
    19f6:	f2c2 0300 	movt	r3, #8192	; 0x2000
    19fa:	5a1a      	ldrh	r2, [r3, r0]
    19fc:	b11a      	cbz	r2, 1a06 <R_BSP_RegisterProtectEnable+0x22>
    19fe:	5a1a      	ldrh	r2, [r3, r0]
    1a00:	3a01      	subs	r2, #1
    1a02:	b292      	uxth	r2, r2
    1a04:	521a      	strh	r2, [r3, r0]
    1a06:	5a1b      	ldrh	r3, [r3, r0]
    1a08:	b983      	cbnz	r3, 1a2c <R_BSP_RegisterProtectEnable+0x48>
    1a0a:	f24e 0200 	movw	r2, #57344	; 0xe000
    1a0e:	f240 35fe 	movw	r5, #1022	; 0x3fe
    1a12:	f645 3478 	movw	r4, #23416	; 0x5b78
    1a16:	f2c4 0201 	movt	r2, #16385	; 0x4001
    1a1a:	5b56      	ldrh	r6, [r2, r5]
    1a1c:	4b05      	ldr	r3, [pc, #20]	; (1a34 <R_BSP_RegisterProtectEnable+0x50>)
    1a1e:	f2c0 0400 	movt	r4, #0
    1a22:	5a20      	ldrh	r0, [r4, r0]
    1a24:	4333      	orrs	r3, r6
    1a26:	4383      	bics	r3, r0
    1a28:	b29b      	uxth	r3, r3
    1a2a:	5353      	strh	r3, [r2, r5]
    1a2c:	f381 8810 	msr	PRIMASK, r1
    1a30:	bd70      	pop	{r4, r5, r6, pc}
    1a32:	46c0      	nop			; (mov r8, r8)
    1a34:	ffffa500 			; <UNDEFINED> instruction: 0xffffa500

00001a38 <R_BSP_RegisterProtectDisable>:
    1a38:	b570      	push	{r4, r5, r6, lr}
    1a3a:	f3ef 8110 	mrs	r1, PRIMASK
    1a3e:	2301      	movs	r3, #1
    1a40:	f383 8810 	msr	PRIMASK, r3
    1a44:	f244 72c0 	movw	r2, #18368	; 0x47c0
    1a48:	0040      	lsls	r0, r0, #1
    1a4a:	f2c2 0200 	movt	r2, #8192	; 0x2000
    1a4e:	5a13      	ldrh	r3, [r2, r0]
    1a50:	b983      	cbnz	r3, 1a74 <R_BSP_RegisterProtectDisable+0x3c>
    1a52:	f24e 0400 	movw	r4, #57344	; 0xe000
    1a56:	f645 3578 	movw	r5, #23416	; 0x5b78
    1a5a:	f240 36fe 	movw	r6, #1022	; 0x3fe
    1a5e:	f2c4 0401 	movt	r4, #16385	; 0x4001
    1a62:	f2c0 0500 	movt	r5, #0
    1a66:	5ba3      	ldrh	r3, [r4, r6]
    1a68:	5a2d      	ldrh	r5, [r5, r0]
    1a6a:	432b      	orrs	r3, r5
    1a6c:	f24a 5500 	movw	r5, #42240	; 0xa500
    1a70:	432b      	orrs	r3, r5
    1a72:	53a3      	strh	r3, [r4, r6]
    1a74:	5a13      	ldrh	r3, [r2, r0]
    1a76:	3301      	adds	r3, #1
    1a78:	b29b      	uxth	r3, r3
    1a7a:	5213      	strh	r3, [r2, r0]
    1a7c:	f381 8810 	msr	PRIMASK, r1
    1a80:	bd70      	pop	{r4, r5, r6, pc}
    1a82:	46c0      	nop			; (mov r8, r8)

00001a84 <finsh_system_init>:
    1a84:	b570      	push	{r4, r5, r6, lr}
    1a86:	f246 3354 	movw	r3, #25428	; 0x6354
    1a8a:	f244 74c8 	movw	r4, #18376	; 0x47c8
    1a8e:	f2c0 0300 	movt	r3, #0
    1a92:	f2c2 0400 	movt	r4, #8192	; 0x2000
    1a96:	6023      	str	r3, [r4, #0]
    1a98:	f246 33f0 	movw	r3, #25584	; 0x63f0
    1a9c:	f2c0 0300 	movt	r3, #0
    1aa0:	6063      	str	r3, [r4, #4]
    1aa2:	f246 33f0 	movw	r3, #25584	; 0x63f0
    1aa6:	f2c0 0300 	movt	r3, #0
    1aaa:	60a3      	str	r3, [r4, #8]
    1aac:	f246 33f0 	movw	r3, #25584	; 0x63f0
    1ab0:	f2c0 0300 	movt	r3, #0
    1ab4:	60e3      	str	r3, [r4, #12]
    1ab6:	0023      	movs	r3, r4
    1ab8:	3314      	adds	r3, #20
    1aba:	6123      	str	r3, [r4, #16]
    1abc:	230a      	movs	r3, #10
    1abe:	b084      	sub	sp, #16
    1ac0:	9303      	str	r3, [sp, #12]
    1ac2:	3b04      	subs	r3, #4
    1ac4:	9302      	str	r3, [sp, #8]
    1ac6:	33fb      	adds	r3, #251	; 0xfb
    1ac8:	33ff      	adds	r3, #255	; 0xff
    1aca:	f644 0648 	movw	r6, #18504	; 0x4848
    1ace:	9301      	str	r3, [sp, #4]
    1ad0:	f644 1350 	movw	r3, #18768	; 0x4950
    1ad4:	f641 32b5 	movw	r2, #7093	; 0x1bb5
    1ad8:	f645 3180 	movw	r1, #23424	; 0x5b80
    1adc:	f2c2 0600 	movt	r6, #8192	; 0x2000
    1ae0:	f2c2 0300 	movt	r3, #8192	; 0x2000
    1ae4:	360c      	adds	r6, #12
    1ae6:	9300      	str	r3, [sp, #0]
    1ae8:	f2c0 0200 	movt	r2, #0
    1aec:	2300      	movs	r3, #0
    1aee:	f2c0 0100 	movt	r1, #0
    1af2:	0030      	movs	r0, r6
    1af4:	f001 f89e 	bl	2c34 <rt_thread_init>
    1af8:	f645 3188 	movw	r1, #23432	; 0x5b88
    1afc:	2300      	movs	r3, #0
    1afe:	2200      	movs	r2, #0
    1b00:	f2c0 0100 	movt	r1, #0
    1b04:	0005      	movs	r5, r0
    1b06:	6920      	ldr	r0, [r4, #16]
    1b08:	f001 fd76 	bl	35f8 <rt_sem_init>
    1b0c:	2221      	movs	r2, #33	; 0x21
    1b0e:	2002      	movs	r0, #2
    1b10:	6921      	ldr	r1, [r4, #16]
    1b12:	5c8b      	ldrb	r3, [r1, r2]
    1b14:	4303      	orrs	r3, r0
    1b16:	548b      	strb	r3, [r1, r2]
    1b18:	b115      	cbz	r5, 1b20 <finsh_system_init+0x9c>
    1b1a:	2000      	movs	r0, #0
    1b1c:	b004      	add	sp, #16
    1b1e:	bd70      	pop	{r4, r5, r6, pc}
    1b20:	0030      	movs	r0, r6
    1b22:	f001 f8d3 	bl	2ccc <rt_thread_startup>
    1b26:	e7f8      	b.n	1b1a <finsh_system_init+0x96>

00001b28 <finsh_get_prompt>:
    1b28:	f244 73c8 	movw	r3, #18376	; 0x47c8
    1b2c:	f2c2 0300 	movt	r3, #8192	; 0x2000
    1b30:	691a      	ldr	r2, [r3, #16]
    1b32:	2321      	movs	r3, #33	; 0x21
    1b34:	5cd3      	ldrb	r3, [r2, r3]
    1b36:	2202      	movs	r2, #2
    1b38:	0011      	movs	r1, r2
    1b3a:	b510      	push	{r4, lr}
    1b3c:	4019      	ands	r1, r3
    1b3e:	421a      	tst	r2, r3
    1b40:	d024      	beq.n	1b8c <finsh_get_prompt+0x64>
    1b42:	f000 fa23 	bl	1f8c <msh_is_used>
    1b46:	f644 03cc 	movw	r3, #18636	; 0x48cc
    1b4a:	f2c2 0300 	movt	r3, #8192	; 0x2000
    1b4e:	bb38      	cbnz	r0, 1ba0 <finsh_get_prompt+0x78>
    1b50:	f645 3298 	movw	r2, #23448	; 0x5b98
    1b54:	f2c0 0200 	movt	r2, #0
    1b58:	6811      	ldr	r1, [r2, #0]
    1b5a:	6019      	str	r1, [r3, #0]
    1b5c:	8891      	ldrh	r1, [r2, #4]
    1b5e:	8099      	strh	r1, [r3, #4]
    1b60:	7992      	ldrb	r2, [r2, #6]
    1b62:	719a      	strb	r2, [r3, #6]
    1b64:	f644 00cc 	movw	r0, #18636	; 0x48cc
    1b68:	f2c2 0000 	movt	r0, #8192	; 0x2000
    1b6c:	f003 f8cc 	bl	4d08 <strlen>
    1b70:	f644 03cc 	movw	r3, #18636	; 0x48cc
    1b74:	f2c2 0300 	movt	r3, #8192	; 0x2000
    1b78:	469c      	mov	ip, r3
    1b7a:	f645 31a0 	movw	r1, #23456	; 0x5ba0
    1b7e:	2202      	movs	r2, #2
    1b80:	4460      	add	r0, ip
    1b82:	f2c0 0100 	movt	r1, #0
    1b86:	f003 f81f 	bl	4bc8 <memcpy>
    1b8a:	e004      	b.n	1b96 <finsh_get_prompt+0x6e>
    1b8c:	f644 03cc 	movw	r3, #18636	; 0x48cc
    1b90:	f2c2 0300 	movt	r3, #8192	; 0x2000
    1b94:	7019      	strb	r1, [r3, #0]
    1b96:	f644 00cc 	movw	r0, #18636	; 0x48cc
    1b9a:	f2c2 0000 	movt	r0, #8192	; 0x2000
    1b9e:	bd10      	pop	{r4, pc}
    1ba0:	f645 3290 	movw	r2, #23440	; 0x5b90
    1ba4:	f2c0 0200 	movt	r2, #0
    1ba8:	6811      	ldr	r1, [r2, #0]
    1baa:	6019      	str	r1, [r3, #0]
    1bac:	7912      	ldrb	r2, [r2, #4]
    1bae:	711a      	strb	r2, [r3, #4]
    1bb0:	e7d8      	b.n	1b64 <finsh_get_prompt+0x3c>
    1bb2:	46c0      	nop			; (mov r8, r8)

00001bb4 <finsh_thread_entry>:
    1bb4:	b5f8      	push	{r3, r4, r5, r6, r7, lr}
    1bb6:	f244 75c8 	movw	r5, #18376	; 0x47c8
    1bba:	2221      	movs	r2, #33	; 0x21
    1bbc:	2001      	movs	r0, #1
    1bbe:	f2c2 0500 	movt	r5, #8192	; 0x2000
    1bc2:	6929      	ldr	r1, [r5, #16]
    1bc4:	5c8b      	ldrb	r3, [r1, r2]
    1bc6:	4303      	orrs	r3, r0
    1bc8:	548b      	strb	r3, [r1, r2]
    1bca:	f7ff ffad 	bl	1b28 <finsh_get_prompt>
    1bce:	f002 fd99 	bl	4704 <rt_kprintf>
    1bd2:	f7ff fcbd 	bl	1550 <rt_hw_console_getchar>
    1bd6:	0004      	movs	r4, r0
    1bd8:	281b      	cmp	r0, #27
    1bda:	d038      	beq.n	1c4e <finsh_thread_entry+0x9a>
    1bdc:	2220      	movs	r2, #32
    1bde:	6928      	ldr	r0, [r5, #16]
    1be0:	5c83      	ldrb	r3, [r0, r2]
    1be2:	2b01      	cmp	r3, #1
    1be4:	d038      	beq.n	1c58 <finsh_thread_entry+0xa4>
    1be6:	2b02      	cmp	r3, #2
    1be8:	d03b      	beq.n	1c62 <finsh_thread_entry+0xae>
    1bea:	1e63      	subs	r3, r4, #1
    1bec:	b2db      	uxtb	r3, r3
    1bee:	2bfd      	cmp	r3, #253	; 0xfd
    1bf0:	d8ef      	bhi.n	1bd2 <finsh_thread_entry+0x1e>
    1bf2:	2c09      	cmp	r4, #9
    1bf4:	d100      	bne.n	1bf8 <finsh_thread_entry+0x44>
    1bf6:	e0b2      	b.n	1d5e <finsh_thread_entry+0x1aa>
    1bf8:	2c7f      	cmp	r4, #127	; 0x7f
    1bfa:	d052      	beq.n	1ca2 <finsh_thread_entry+0xee>
    1bfc:	2c08      	cmp	r4, #8
    1bfe:	d050      	beq.n	1ca2 <finsh_thread_entry+0xee>
    1c00:	2c0d      	cmp	r4, #13
    1c02:	d100      	bne.n	1c06 <finsh_thread_entry+0x52>
    1c04:	e095      	b.n	1d32 <finsh_thread_entry+0x17e>
    1c06:	2c0a      	cmp	r4, #10
    1c08:	d100      	bne.n	1c0c <finsh_thread_entry+0x58>
    1c0a:	e092      	b.n	1d32 <finsh_thread_entry+0x17e>
    1c0c:	2372      	movs	r3, #114	; 0x72
    1c0e:	5ac2      	ldrh	r2, [r0, r3]
    1c10:	2a4f      	cmp	r2, #79	; 0x4f
    1c12:	d965      	bls.n	1ce0 <finsh_thread_entry+0x12c>
    1c14:	2200      	movs	r2, #0
    1c16:	52c2      	strh	r2, [r0, r3]
    1c18:	2300      	movs	r3, #0
    1c1a:	18c3      	adds	r3, r0, r3
    1c1c:	3322      	adds	r3, #34	; 0x22
    1c1e:	701c      	strb	r4, [r3, #0]
    1c20:	2321      	movs	r3, #33	; 0x21
    1c22:	5cc3      	ldrb	r3, [r0, r3]
    1c24:	07db      	lsls	r3, r3, #31
    1c26:	d500      	bpl.n	1c2a <finsh_thread_entry+0x76>
    1c28:	e0ca      	b.n	1dc0 <finsh_thread_entry+0x20c>
    1c2a:	2472      	movs	r4, #114	; 0x72
    1c2c:	2174      	movs	r1, #116	; 0x74
    1c2e:	3201      	adds	r2, #1
    1c30:	b292      	uxth	r2, r2
    1c32:	5302      	strh	r2, [r0, r4]
    1c34:	5a43      	ldrh	r3, [r0, r1]
    1c36:	3301      	adds	r3, #1
    1c38:	5243      	strh	r3, [r0, r1]
    1c3a:	2a4f      	cmp	r2, #79	; 0x4f
    1c3c:	d9c9      	bls.n	1bd2 <finsh_thread_entry+0x1e>
    1c3e:	2300      	movs	r3, #0
    1c40:	5303      	strh	r3, [r0, r4]
    1c42:	5243      	strh	r3, [r0, r1]
    1c44:	f7ff fc84 	bl	1550 <rt_hw_console_getchar>
    1c48:	0004      	movs	r4, r0
    1c4a:	281b      	cmp	r0, #27
    1c4c:	d1c6      	bne.n	1bdc <finsh_thread_entry+0x28>
    1c4e:	2320      	movs	r3, #32
    1c50:	2201      	movs	r2, #1
    1c52:	6929      	ldr	r1, [r5, #16]
    1c54:	54ca      	strb	r2, [r1, r3]
    1c56:	e7bc      	b.n	1bd2 <finsh_thread_entry+0x1e>
    1c58:	2c5b      	cmp	r4, #91	; 0x5b
    1c5a:	d03e      	beq.n	1cda <finsh_thread_entry+0x126>
    1c5c:	2300      	movs	r3, #0
    1c5e:	5483      	strb	r3, [r0, r2]
    1c60:	e7c3      	b.n	1bea <finsh_thread_entry+0x36>
    1c62:	2300      	movs	r3, #0
    1c64:	5483      	strb	r3, [r0, r2]
    1c66:	0023      	movs	r3, r4
    1c68:	3b41      	subs	r3, #65	; 0x41
    1c6a:	b2db      	uxtb	r3, r3
    1c6c:	2b01      	cmp	r3, #1
    1c6e:	d9b0      	bls.n	1bd2 <finsh_thread_entry+0x1e>
    1c70:	2c44      	cmp	r4, #68	; 0x44
    1c72:	d100      	bne.n	1c76 <finsh_thread_entry+0xc2>
    1c74:	e0d7      	b.n	1e26 <finsh_thread_entry+0x272>
    1c76:	2c43      	cmp	r4, #67	; 0x43
    1c78:	d1b7      	bne.n	1bea <finsh_thread_entry+0x36>
    1c7a:	2272      	movs	r2, #114	; 0x72
    1c7c:	3431      	adds	r4, #49	; 0x31
    1c7e:	5b03      	ldrh	r3, [r0, r4]
    1c80:	5a82      	ldrh	r2, [r0, r2]
    1c82:	429a      	cmp	r2, r3
    1c84:	d9a5      	bls.n	1bd2 <finsh_thread_entry+0x1e>
    1c86:	18c3      	adds	r3, r0, r3
    1c88:	f645 30a8 	movw	r0, #23464	; 0x5ba8
    1c8c:	3322      	adds	r3, #34	; 0x22
    1c8e:	7819      	ldrb	r1, [r3, #0]
    1c90:	f2c0 0000 	movt	r0, #0
    1c94:	f002 fd36 	bl	4704 <rt_kprintf>
    1c98:	692a      	ldr	r2, [r5, #16]
    1c9a:	5b13      	ldrh	r3, [r2, r4]
    1c9c:	3301      	adds	r3, #1
    1c9e:	5313      	strh	r3, [r2, r4]
    1ca0:	e797      	b.n	1bd2 <finsh_thread_entry+0x1e>
    1ca2:	2474      	movs	r4, #116	; 0x74
    1ca4:	5b01      	ldrh	r1, [r0, r4]
    1ca6:	2900      	cmp	r1, #0
    1ca8:	d093      	beq.n	1bd2 <finsh_thread_entry+0x1e>
    1caa:	2672      	movs	r6, #114	; 0x72
    1cac:	5b82      	ldrh	r2, [r0, r6]
    1cae:	1e4b      	subs	r3, r1, #1
    1cb0:	3a01      	subs	r2, #1
    1cb2:	b292      	uxth	r2, r2
    1cb4:	b29b      	uxth	r3, r3
    1cb6:	5382      	strh	r2, [r0, r6]
    1cb8:	5303      	strh	r3, [r0, r4]
    1cba:	429a      	cmp	r2, r3
    1cbc:	d900      	bls.n	1cc0 <finsh_thread_entry+0x10c>
    1cbe:	e08a      	b.n	1dd6 <finsh_thread_entry+0x222>
    1cc0:	f645 30bc 	movw	r0, #23484	; 0x5bbc
    1cc4:	f2c0 0000 	movt	r0, #0
    1cc8:	f002 fd1c 	bl	4704 <rt_kprintf>
    1ccc:	692b      	ldr	r3, [r5, #16]
    1cce:	5b9a      	ldrh	r2, [r3, r6]
    1cd0:	189b      	adds	r3, r3, r2
    1cd2:	2200      	movs	r2, #0
    1cd4:	3322      	adds	r3, #34	; 0x22
    1cd6:	701a      	strb	r2, [r3, #0]
    1cd8:	e77b      	b.n	1bd2 <finsh_thread_entry+0x1e>
    1cda:	3301      	adds	r3, #1
    1cdc:	5483      	strb	r3, [r0, r2]
    1cde:	e778      	b.n	1bd2 <finsh_thread_entry+0x1e>
    1ce0:	2774      	movs	r7, #116	; 0x74
    1ce2:	5bc6      	ldrh	r6, [r0, r7]
    1ce4:	0013      	movs	r3, r2
    1ce6:	42b2      	cmp	r2, r6
    1ce8:	d997      	bls.n	1c1a <finsh_thread_entry+0x66>
    1cea:	0031      	movs	r1, r6
    1cec:	1b92      	subs	r2, r2, r6
    1cee:	3122      	adds	r1, #34	; 0x22
    1cf0:	3623      	adds	r6, #35	; 0x23
    1cf2:	1841      	adds	r1, r0, r1
    1cf4:	1980      	adds	r0, r0, r6
    1cf6:	f002 f9b1 	bl	405c <rt_memmove>
    1cfa:	6928      	ldr	r0, [r5, #16]
    1cfc:	5bc6      	ldrh	r6, [r0, r7]
    1cfe:	1983      	adds	r3, r0, r6
    1d00:	3322      	adds	r3, #34	; 0x22
    1d02:	701c      	strb	r4, [r3, #0]
    1d04:	2321      	movs	r3, #33	; 0x21
    1d06:	5cc3      	ldrb	r3, [r0, r3]
    1d08:	07db      	lsls	r3, r3, #31
    1d0a:	d500      	bpl.n	1d0e <finsh_thread_entry+0x15a>
    1d0c:	e0ab      	b.n	1e66 <finsh_thread_entry+0x2b2>
    1d0e:	2372      	movs	r3, #114	; 0x72
    1d10:	5ac2      	ldrh	r2, [r0, r3]
    1d12:	4296      	cmp	r6, r2
    1d14:	db00      	blt.n	1d18 <finsh_thread_entry+0x164>
    1d16:	e788      	b.n	1c2a <finsh_thread_entry+0x76>
    1d18:	2472      	movs	r4, #114	; 0x72
    1d1a:	f645 30a4 	movw	r0, #23460	; 0x5ba4
    1d1e:	f2c0 0000 	movt	r0, #0
    1d22:	f002 fcef 	bl	4704 <rt_kprintf>
    1d26:	6928      	ldr	r0, [r5, #16]
    1d28:	3601      	adds	r6, #1
    1d2a:	5b02      	ldrh	r2, [r0, r4]
    1d2c:	42b2      	cmp	r2, r6
    1d2e:	dcf4      	bgt.n	1d1a <finsh_thread_entry+0x166>
    1d30:	e77b      	b.n	1c2a <finsh_thread_entry+0x76>
    1d32:	f000 f92b 	bl	1f8c <msh_is_used>
    1d36:	2801      	cmp	r0, #1
    1d38:	d100      	bne.n	1d3c <finsh_thread_entry+0x188>
    1d3a:	e084      	b.n	1e46 <finsh_thread_entry+0x292>
    1d3c:	f7ff fef4 	bl	1b28 <finsh_get_prompt>
    1d40:	f002 fce0 	bl	4704 <rt_kprintf>
    1d44:	692c      	ldr	r4, [r5, #16]
    1d46:	2250      	movs	r2, #80	; 0x50
    1d48:	0020      	movs	r0, r4
    1d4a:	2100      	movs	r1, #0
    1d4c:	3022      	adds	r0, #34	; 0x22
    1d4e:	f002 ff8b 	bl	4c68 <memset>
    1d52:	2300      	movs	r3, #0
    1d54:	2272      	movs	r2, #114	; 0x72
    1d56:	52a3      	strh	r3, [r4, r2]
    1d58:	3202      	adds	r2, #2
    1d5a:	52a3      	strh	r3, [r4, r2]
    1d5c:	e739      	b.n	1bd2 <finsh_thread_entry+0x1e>
    1d5e:	2374      	movs	r3, #116	; 0x74
    1d60:	5ac3      	ldrh	r3, [r0, r3]
    1d62:	b163      	cbz	r3, 1d7e <finsh_thread_entry+0x1ca>
    1d64:	2400      	movs	r4, #0
    1d66:	2674      	movs	r6, #116	; 0x74
    1d68:	f645 30a4 	movw	r0, #23460	; 0x5ba4
    1d6c:	f2c0 0000 	movt	r0, #0
    1d70:	f002 fcc8 	bl	4704 <rt_kprintf>
    1d74:	6928      	ldr	r0, [r5, #16]
    1d76:	3401      	adds	r4, #1
    1d78:	5b83      	ldrh	r3, [r0, r6]
    1d7a:	42a3      	cmp	r3, r4
    1d7c:	dcf4      	bgt.n	1d68 <finsh_thread_entry+0x1b4>
    1d7e:	3022      	adds	r0, #34	; 0x22
    1d80:	0004      	movs	r4, r0
    1d82:	f645 408c 	movw	r0, #23692	; 0x5c8c
    1d86:	f2c0 0000 	movt	r0, #0
    1d8a:	f002 fcbb 	bl	4704 <rt_kprintf>
    1d8e:	f000 f8fd 	bl	1f8c <msh_is_used>
    1d92:	2801      	cmp	r0, #1
    1d94:	d063      	beq.n	1e5e <finsh_thread_entry+0x2aa>
    1d96:	f7ff fec7 	bl	1b28 <finsh_get_prompt>
    1d9a:	0001      	movs	r1, r0
    1d9c:	f645 30ac 	movw	r0, #23468	; 0x5bac
    1da0:	0022      	movs	r2, r4
    1da2:	f2c0 0000 	movt	r0, #0
    1da6:	f002 fcad 	bl	4704 <rt_kprintf>
    1daa:	692c      	ldr	r4, [r5, #16]
    1dac:	0020      	movs	r0, r4
    1dae:	3022      	adds	r0, #34	; 0x22
    1db0:	f002 ffaa 	bl	4d08 <strlen>
    1db4:	2372      	movs	r3, #114	; 0x72
    1db6:	b280      	uxth	r0, r0
    1db8:	52e0      	strh	r0, [r4, r3]
    1dba:	3302      	adds	r3, #2
    1dbc:	52e0      	strh	r0, [r4, r3]
    1dbe:	e708      	b.n	1bd2 <finsh_thread_entry+0x1e>
    1dc0:	f645 30a8 	movw	r0, #23464	; 0x5ba8
    1dc4:	0021      	movs	r1, r4
    1dc6:	f2c0 0000 	movt	r0, #0
    1dca:	f002 fc9b 	bl	4704 <rt_kprintf>
    1dce:	2372      	movs	r3, #114	; 0x72
    1dd0:	6928      	ldr	r0, [r5, #16]
    1dd2:	5ac2      	ldrh	r2, [r0, r3]
    1dd4:	e729      	b.n	1c2a <finsh_thread_entry+0x76>
    1dd6:	1ad2      	subs	r2, r2, r3
    1dd8:	3122      	adds	r1, #34	; 0x22
    1dda:	3322      	adds	r3, #34	; 0x22
    1ddc:	1841      	adds	r1, r0, r1
    1dde:	18c0      	adds	r0, r0, r3
    1de0:	f002 f93c 	bl	405c <rt_memmove>
    1de4:	2200      	movs	r2, #0
    1de6:	f645 30b4 	movw	r0, #23476	; 0x5bb4
    1dea:	6929      	ldr	r1, [r5, #16]
    1dec:	f2c0 0000 	movt	r0, #0
    1df0:	5b8b      	ldrh	r3, [r1, r6]
    1df2:	18cb      	adds	r3, r1, r3
    1df4:	3322      	adds	r3, #34	; 0x22
    1df6:	701a      	strb	r2, [r3, #0]
    1df8:	5b0b      	ldrh	r3, [r1, r4]
    1dfa:	3322      	adds	r3, #34	; 0x22
    1dfc:	18c9      	adds	r1, r1, r3
    1dfe:	f002 fc81 	bl	4704 <rt_kprintf>
    1e02:	692b      	ldr	r3, [r5, #16]
    1e04:	5b1c      	ldrh	r4, [r3, r4]
    1e06:	5b9b      	ldrh	r3, [r3, r6]
    1e08:	429c      	cmp	r4, r3
    1e0a:	dd00      	ble.n	1e0e <finsh_thread_entry+0x25a>
    1e0c:	e6e1      	b.n	1bd2 <finsh_thread_entry+0x1e>
    1e0e:	f645 30a4 	movw	r0, #23460	; 0x5ba4
    1e12:	f2c0 0000 	movt	r0, #0
    1e16:	f002 fc75 	bl	4704 <rt_kprintf>
    1e1a:	692b      	ldr	r3, [r5, #16]
    1e1c:	3401      	adds	r4, #1
    1e1e:	5b9b      	ldrh	r3, [r3, r6]
    1e20:	42a3      	cmp	r3, r4
    1e22:	daf4      	bge.n	1e0e <finsh_thread_entry+0x25a>
    1e24:	e6d5      	b.n	1bd2 <finsh_thread_entry+0x1e>
    1e26:	3430      	adds	r4, #48	; 0x30
    1e28:	5b03      	ldrh	r3, [r0, r4]
    1e2a:	2b00      	cmp	r3, #0
    1e2c:	d100      	bne.n	1e30 <finsh_thread_entry+0x27c>
    1e2e:	e6d0      	b.n	1bd2 <finsh_thread_entry+0x1e>
    1e30:	f645 30a4 	movw	r0, #23460	; 0x5ba4
    1e34:	f2c0 0000 	movt	r0, #0
    1e38:	f002 fc64 	bl	4704 <rt_kprintf>
    1e3c:	692a      	ldr	r2, [r5, #16]
    1e3e:	5b13      	ldrh	r3, [r2, r4]
    1e40:	3b01      	subs	r3, #1
    1e42:	5313      	strh	r3, [r2, r4]
    1e44:	e6c5      	b.n	1bd2 <finsh_thread_entry+0x1e>
    1e46:	2221      	movs	r2, #33	; 0x21
    1e48:	692b      	ldr	r3, [r5, #16]
    1e4a:	5c9a      	ldrb	r2, [r3, r2]
    1e4c:	4210      	tst	r0, r2
    1e4e:	d116      	bne.n	1e7e <finsh_thread_entry+0x2ca>
    1e50:	2272      	movs	r2, #114	; 0x72
    1e52:	5a99      	ldrh	r1, [r3, r2]
    1e54:	3322      	adds	r3, #34	; 0x22
    1e56:	0018      	movs	r0, r3
    1e58:	f000 f89a 	bl	1f90 <msh_exec>
    1e5c:	e76e      	b.n	1d3c <finsh_thread_entry+0x188>
    1e5e:	0020      	movs	r0, r4
    1e60:	f000 f982 	bl	2168 <msh_auto_complete>
    1e64:	e797      	b.n	1d96 <finsh_thread_entry+0x1e2>
    1e66:	0031      	movs	r1, r6
    1e68:	3122      	adds	r1, #34	; 0x22
    1e6a:	1841      	adds	r1, r0, r1
    1e6c:	f645 30c0 	movw	r0, #23488	; 0x5bc0
    1e70:	f2c0 0000 	movt	r0, #0
    1e74:	f002 fc46 	bl	4704 <rt_kprintf>
    1e78:	6928      	ldr	r0, [r5, #16]
    1e7a:	5bc6      	ldrh	r6, [r0, r7]
    1e7c:	e747      	b.n	1d0e <finsh_thread_entry+0x15a>
    1e7e:	f645 408c 	movw	r0, #23692	; 0x5c8c
    1e82:	f2c0 0000 	movt	r0, #0
    1e86:	f002 fc3d 	bl	4704 <rt_kprintf>
    1e8a:	692b      	ldr	r3, [r5, #16]
    1e8c:	e7e0      	b.n	1e50 <finsh_thread_entry+0x29c>
    1e8e:	46c0      	nop			; (mov r8, r8)

00001e90 <finsh_get_prompt_mode>:
    1e90:	f244 73c8 	movw	r3, #18376	; 0x47c8
    1e94:	f2c2 0300 	movt	r3, #8192	; 0x2000
    1e98:	691a      	ldr	r2, [r3, #16]
    1e9a:	2321      	movs	r3, #33	; 0x21
    1e9c:	5cd0      	ldrb	r0, [r2, r3]
    1e9e:	0780      	lsls	r0, r0, #30
    1ea0:	0fc0      	lsrs	r0, r0, #31
    1ea2:	4770      	bx	lr

00001ea4 <finsh_set_prompt_mode>:
    1ea4:	f244 72c8 	movw	r2, #18376	; 0x47c8
    1ea8:	f2c2 0200 	movt	r2, #8192	; 0x2000
    1eac:	6911      	ldr	r1, [r2, #16]
    1eae:	2301      	movs	r3, #1
    1eb0:	2221      	movs	r2, #33	; 0x21
    1eb2:	b510      	push	{r4, lr}
    1eb4:	2402      	movs	r4, #2
    1eb6:	4003      	ands	r3, r0
    1eb8:	5c88      	ldrb	r0, [r1, r2]
    1eba:	005b      	lsls	r3, r3, #1
    1ebc:	43a0      	bics	r0, r4
    1ebe:	4318      	orrs	r0, r3
    1ec0:	5488      	strb	r0, [r1, r2]
    1ec2:	bd10      	pop	{r4, pc}

00001ec4 <finsh_set_echo>:
    1ec4:	f244 73c8 	movw	r3, #18376	; 0x47c8
    1ec8:	2221      	movs	r2, #33	; 0x21
    1eca:	f2c2 0300 	movt	r3, #8192	; 0x2000
    1ece:	b510      	push	{r4, lr}
    1ed0:	6919      	ldr	r1, [r3, #16]
    1ed2:	2401      	movs	r4, #1
    1ed4:	0003      	movs	r3, r0
    1ed6:	5c88      	ldrb	r0, [r1, r2]
    1ed8:	4023      	ands	r3, r4
    1eda:	43a0      	bics	r0, r4
    1edc:	4318      	orrs	r0, r3
    1ede:	5488      	strb	r0, [r1, r2]
    1ee0:	bd10      	pop	{r4, pc}
    1ee2:	46c0      	nop			; (mov r8, r8)

00001ee4 <finsh_get_echo>:
    1ee4:	f244 73c8 	movw	r3, #18376	; 0x47c8
    1ee8:	f2c2 0300 	movt	r3, #8192	; 0x2000
    1eec:	691a      	ldr	r2, [r3, #16]
    1eee:	2321      	movs	r3, #33	; 0x21
    1ef0:	5cd0      	ldrb	r0, [r2, r3]
    1ef2:	07c0      	lsls	r0, r0, #31
    1ef4:	0fc0      	lsrs	r0, r0, #31
    1ef6:	4770      	bx	lr

00001ef8 <finsh_system_function_init>:
    1ef8:	f244 73c8 	movw	r3, #18376	; 0x47c8
    1efc:	f2c2 0300 	movt	r3, #8192	; 0x2000
    1f00:	c303      	stmia	r3!, {r0, r1}
    1f02:	4770      	bx	lr

00001f04 <finsh_system_var_init>:
    1f04:	f244 73c8 	movw	r3, #18376	; 0x47c8
    1f08:	f2c2 0300 	movt	r3, #8192	; 0x2000
    1f0c:	6098      	str	r0, [r3, #8]
    1f0e:	60d9      	str	r1, [r3, #12]
    1f10:	4770      	bx	lr
    1f12:	46c0      	nop			; (mov r8, r8)

00001f14 <msh_help>:
    1f14:	f645 30c4 	movw	r0, #23492	; 0x5bc4
    1f18:	b5f8      	push	{r3, r4, r5, r6, r7, lr}
    1f1a:	f2c0 0000 	movt	r0, #0
    1f1e:	f002 fbf1 	bl	4704 <rt_kprintf>
    1f22:	f244 77cc 	movw	r7, #18380	; 0x47cc
    1f26:	f244 73c8 	movw	r3, #18376	; 0x47c8
    1f2a:	f2c2 0700 	movt	r7, #8192	; 0x2000
    1f2e:	f2c2 0300 	movt	r3, #8192	; 0x2000
    1f32:	681c      	ldr	r4, [r3, #0]
    1f34:	683e      	ldr	r6, [r7, #0]
    1f36:	42b4      	cmp	r4, r6
    1f38:	d215      	bcs.n	1f66 <msh_help+0x52>
    1f3a:	f645 31e0 	movw	r1, #23520	; 0x5be0
    1f3e:	6825      	ldr	r5, [r4, #0]
    1f40:	2206      	movs	r2, #6
    1f42:	0028      	movs	r0, r5
    1f44:	f2c0 0100 	movt	r1, #0
    1f48:	f002 ff0a 	bl	4d60 <strncmp>
    1f4c:	b998      	cbnz	r0, 1f76 <msh_help+0x62>
    1f4e:	f645 30e8 	movw	r0, #23528	; 0x5be8
    1f52:	6862      	ldr	r2, [r4, #4]
    1f54:	1da9      	adds	r1, r5, #6
    1f56:	f2c0 0000 	movt	r0, #0
    1f5a:	f002 fbd3 	bl	4704 <rt_kprintf>
    1f5e:	683e      	ldr	r6, [r7, #0]
    1f60:	340c      	adds	r4, #12
    1f62:	42b4      	cmp	r4, r6
    1f64:	d3e9      	bcc.n	1f3a <msh_help+0x26>
    1f66:	f645 408c 	movw	r0, #23692	; 0x5c8c
    1f6a:	f2c0 0000 	movt	r0, #0
    1f6e:	f002 fbc9 	bl	4704 <rt_kprintf>
    1f72:	2000      	movs	r0, #0
    1f74:	bdf8      	pop	{r3, r4, r5, r6, r7, pc}
    1f76:	340c      	adds	r4, #12
    1f78:	42b4      	cmp	r4, r6
    1f7a:	d3de      	bcc.n	1f3a <msh_help+0x26>
    1f7c:	e7f3      	b.n	1f66 <msh_help+0x52>
    1f7e:	46c0      	nop			; (mov r8, r8)

00001f80 <cmd_ps>:
    1f80:	b510      	push	{r4, lr}
    1f82:	f000 f9d1 	bl	2328 <list_thread>
    1f86:	2000      	movs	r0, #0
    1f88:	bd10      	pop	{r4, pc}
    1f8a:	46c0      	nop			; (mov r8, r8)

00001f8c <msh_is_used>:
    1f8c:	2001      	movs	r0, #1
    1f8e:	4770      	bx	lr

00001f90 <msh_exec>:
    1f90:	b5f0      	push	{r4, r5, r6, r7, lr}
    1f92:	4645      	mov	r5, r8
    1f94:	46de      	mov	lr, fp
    1f96:	4657      	mov	r7, sl
    1f98:	464e      	mov	r6, r9
    1f9a:	b5e0      	push	{r5, r6, r7, lr}
    1f9c:	000c      	movs	r4, r1
    1f9e:	0005      	movs	r5, r0
    1fa0:	b089      	sub	sp, #36	; 0x24
    1fa2:	b141      	cbz	r1, 1fb6 <msh_exec+0x26>
    1fa4:	782f      	ldrb	r7, [r5, #0]
    1fa6:	2f20      	cmp	r7, #32
    1fa8:	d001      	beq.n	1fae <msh_exec+0x1e>
    1faa:	2f09      	cmp	r7, #9
    1fac:	d10b      	bne.n	1fc6 <msh_exec+0x36>
    1fae:	3c01      	subs	r4, #1
    1fb0:	3501      	adds	r5, #1
    1fb2:	2c00      	cmp	r4, #0
    1fb4:	d1f6      	bne.n	1fa4 <msh_exec+0x14>
    1fb6:	2000      	movs	r0, #0
    1fb8:	b009      	add	sp, #36	; 0x24
    1fba:	bcf0      	pop	{r4, r5, r6, r7}
    1fbc:	46bb      	mov	fp, r7
    1fbe:	46b2      	mov	sl, r6
    1fc0:	46a9      	mov	r9, r5
    1fc2:	46a0      	mov	r8, r4
    1fc4:	bdf0      	pop	{r4, r5, r6, r7, pc}
    1fc6:	f240 0800 	movw	r8, #0
    1fca:	e001      	b.n	1fd0 <msh_exec+0x40>
    1fcc:	45a0      	cmp	r8, r4
    1fce:	d009      	beq.n	1fe4 <msh_exec+0x54>
    1fd0:	f240 0c01 	movw	ip, #1
    1fd4:	46c3      	mov	fp, r8
    1fd6:	44e0      	add	r8, ip
    1fd8:	4643      	mov	r3, r8
    1fda:	5ceb      	ldrb	r3, [r5, r3]
    1fdc:	2b20      	cmp	r3, #32
    1fde:	d001      	beq.n	1fe4 <msh_exec+0x54>
    1fe0:	2b09      	cmp	r3, #9
    1fe2:	d1f3      	bne.n	1fcc <msh_exec+0x3c>
    1fe4:	f244 73c8 	movw	r3, #18376	; 0x47c8
    1fe8:	f2c2 0300 	movt	r3, #8192	; 0x2000
    1fec:	681e      	ldr	r6, [r3, #0]
    1fee:	f244 73cc 	movw	r3, #18380	; 0x47cc
    1ff2:	f2c2 0300 	movt	r3, #8192	; 0x2000
    1ff6:	681b      	ldr	r3, [r3, #0]
    1ff8:	469a      	mov	sl, r3
    1ffa:	42b3      	cmp	r3, r6
    1ffc:	d918      	bls.n	2030 <msh_exec+0xa0>
    1ffe:	f645 31e0 	movw	r1, #23520	; 0x5be0
    2002:	6833      	ldr	r3, [r6, #0]
    2004:	2206      	movs	r2, #6
    2006:	0018      	movs	r0, r3
    2008:	f2c0 0100 	movt	r1, #0
    200c:	4699      	mov	r9, r3
    200e:	f002 fea7 	bl	4d60 <strncmp>
    2012:	b950      	cbnz	r0, 202a <msh_exec+0x9a>
    2014:	464b      	mov	r3, r9
    2016:	4642      	mov	r2, r8
    2018:	0029      	movs	r1, r5
    201a:	1d98      	adds	r0, r3, #6
    201c:	f002 fea0 	bl	4d60 <strncmp>
    2020:	b918      	cbnz	r0, 202a <msh_exec+0x9a>
    2022:	464b      	mov	r3, r9
    2024:	445b      	add	r3, fp
    2026:	79db      	ldrb	r3, [r3, #7]
    2028:	b1a3      	cbz	r3, 2054 <msh_exec+0xc4>
    202a:	360c      	adds	r6, #12
    202c:	45b2      	cmp	sl, r6
    202e:	d8e6      	bhi.n	1ffe <msh_exec+0x6e>
    2030:	002b      	movs	r3, r5
    2032:	b11f      	cbz	r7, 203c <msh_exec+0xac>
    2034:	785f      	ldrb	r7, [r3, #1]
    2036:	3301      	adds	r3, #1
    2038:	2f20      	cmp	r7, #32
    203a:	d1fa      	bne.n	2032 <msh_exec+0xa2>
    203c:	2200      	movs	r2, #0
    203e:	f645 4018 	movw	r0, #23576	; 0x5c18
    2042:	0029      	movs	r1, r5
    2044:	f2c0 0000 	movt	r0, #0
    2048:	701a      	strb	r2, [r3, #0]
    204a:	f002 fb5b 	bl	4704 <rt_kprintf>
    204e:	2001      	movs	r0, #1
    2050:	4240      	negs	r0, r0
    2052:	e7b1      	b.n	1fb8 <msh_exec+0x28>
    2054:	68b3      	ldr	r3, [r6, #8]
    2056:	4698      	mov	r8, r3
    2058:	2b00      	cmp	r3, #0
    205a:	d0e9      	beq.n	2030 <msh_exec+0xa0>
    205c:	2220      	movs	r2, #32
    205e:	2100      	movs	r1, #0
    2060:	4668      	mov	r0, sp
    2062:	f002 fe01 	bl	4c68 <memset>
    2066:	466e      	mov	r6, sp
    2068:	46e9      	mov	r9, sp
    206a:	002b      	movs	r3, r5
    206c:	f240 0c01 	movw	ip, #1
    2070:	2200      	movs	r2, #0
    2072:	2000      	movs	r0, #0
    2074:	4661      	mov	r1, ip
    2076:	3901      	subs	r1, #1
    2078:	468a      	mov	sl, r1
    207a:	e003      	b.n	2084 <msh_exec+0xf4>
    207c:	7018      	strb	r0, [r3, #0]
    207e:	785f      	ldrb	r7, [r3, #1]
    2080:	3301      	adds	r3, #1
    2082:	3201      	adds	r2, #1
    2084:	2f20      	cmp	r7, #32
    2086:	d001      	beq.n	208c <msh_exec+0xfc>
    2088:	2f09      	cmp	r7, #9
    208a:	d11e      	bne.n	20ca <msh_exec+0x13a>
    208c:	4294      	cmp	r4, r2
    208e:	d8f5      	bhi.n	207c <msh_exec+0xec>
    2090:	4653      	mov	r3, sl
    2092:	2b08      	cmp	r3, #8
    2094:	d15d      	bne.n	2152 <msh_exec+0x1c2>
    2096:	f645 30f4 	movw	r0, #23540	; 0x5bf4
    209a:	f2c0 0000 	movt	r0, #0
    209e:	f002 fb31 	bl	4704 <rt_kprintf>
    20a2:	ac08      	add	r4, sp, #32
    20a4:	f645 4014 	movw	r0, #23572	; 0x5c14
    20a8:	ce02      	ldmia	r6!, {r1}
    20aa:	f2c0 0000 	movt	r0, #0
    20ae:	f002 fb29 	bl	4704 <rt_kprintf>
    20b2:	42a6      	cmp	r6, r4
    20b4:	d1f6      	bne.n	20a4 <msh_exec+0x114>
    20b6:	f645 408c 	movw	r0, #23692	; 0x5c8c
    20ba:	f2c0 0000 	movt	r0, #0
    20be:	f002 fb21 	bl	4704 <rt_kprintf>
    20c2:	2008      	movs	r0, #8
    20c4:	4669      	mov	r1, sp
    20c6:	47c0      	blx	r8
    20c8:	e776      	b.n	1fb8 <msh_exec+0x28>
    20ca:	4661      	mov	r1, ip
    20cc:	2909      	cmp	r1, #9
    20ce:	d0e2      	beq.n	2096 <msh_exec+0x106>
    20d0:	4294      	cmp	r4, r2
    20d2:	d93e      	bls.n	2152 <msh_exec+0x1c2>
    20d4:	2f22      	cmp	r7, #34	; 0x22
    20d6:	d016      	beq.n	2106 <msh_exec+0x176>
    20d8:	4649      	mov	r1, r9
    20da:	1aa7      	subs	r7, r4, r2
    20dc:	600b      	str	r3, [r1, #0]
    20de:	19df      	adds	r7, r3, r7
    20e0:	42bb      	cmp	r3, r7
    20e2:	d030      	beq.n	2146 <msh_exec+0x1b6>
    20e4:	7859      	ldrb	r1, [r3, #1]
    20e6:	3301      	adds	r3, #1
    20e8:	3201      	adds	r2, #1
    20ea:	2920      	cmp	r1, #32
    20ec:	d001      	beq.n	20f2 <msh_exec+0x162>
    20ee:	2909      	cmp	r1, #9
    20f0:	d1f6      	bne.n	20e0 <msh_exec+0x150>
    20f2:	4294      	cmp	r4, r2
    20f4:	d927      	bls.n	2146 <msh_exec+0x1b6>
    20f6:	781f      	ldrb	r7, [r3, #0]
    20f8:	f240 0a01 	movw	sl, #1
    20fc:	44d4      	add	ip, sl
    20fe:	f240 0a04 	movw	sl, #4
    2102:	44d1      	add	r9, sl
    2104:	e7b6      	b.n	2074 <msh_exec+0xe4>
    2106:	464f      	mov	r7, r9
    2108:	1c59      	adds	r1, r3, #1
    210a:	785b      	ldrb	r3, [r3, #1]
    210c:	3201      	adds	r2, #1
    210e:	6039      	str	r1, [r7, #0]
    2110:	2b22      	cmp	r3, #34	; 0x22
    2112:	d008      	beq.n	2126 <msh_exec+0x196>
    2114:	4294      	cmp	r4, r2
    2116:	d916      	bls.n	2146 <msh_exec+0x1b6>
    2118:	2b5c      	cmp	r3, #92	; 0x5c
    211a:	d00d      	beq.n	2138 <msh_exec+0x1a8>
    211c:	784b      	ldrb	r3, [r1, #1]
    211e:	3101      	adds	r1, #1
    2120:	3201      	adds	r2, #1
    2122:	2b22      	cmp	r3, #34	; 0x22
    2124:	d1f6      	bne.n	2114 <msh_exec+0x184>
    2126:	4294      	cmp	r4, r2
    2128:	d90d      	bls.n	2146 <msh_exec+0x1b6>
    212a:	3201      	adds	r2, #1
    212c:	7008      	strb	r0, [r1, #0]
    212e:	1c4b      	adds	r3, r1, #1
    2130:	4294      	cmp	r4, r2
    2132:	d908      	bls.n	2146 <msh_exec+0x1b6>
    2134:	784f      	ldrb	r7, [r1, #1]
    2136:	e7df      	b.n	20f8 <msh_exec+0x168>
    2138:	784b      	ldrb	r3, [r1, #1]
    213a:	2b22      	cmp	r3, #34	; 0x22
    213c:	d005      	beq.n	214a <msh_exec+0x1ba>
    213e:	3201      	adds	r2, #1
    2140:	3101      	adds	r1, #1
    2142:	4294      	cmp	r4, r2
    2144:	d8e8      	bhi.n	2118 <msh_exec+0x188>
    2146:	4660      	mov	r0, ip
    2148:	e7bc      	b.n	20c4 <msh_exec+0x134>
    214a:	788b      	ldrb	r3, [r1, #2]
    214c:	3201      	adds	r2, #1
    214e:	3101      	adds	r1, #1
    2150:	e7e5      	b.n	211e <msh_exec+0x18e>
    2152:	4650      	mov	r0, sl
    2154:	2800      	cmp	r0, #0
    2156:	d1b5      	bne.n	20c4 <msh_exec+0x134>
    2158:	782f      	ldrb	r7, [r5, #0]
    215a:	002b      	movs	r3, r5
    215c:	2f20      	cmp	r7, #32
    215e:	d100      	bne.n	2162 <msh_exec+0x1d2>
    2160:	e76c      	b.n	203c <msh_exec+0xac>
    2162:	002b      	movs	r3, r5
    2164:	e765      	b.n	2032 <msh_exec+0xa2>
    2166:	46c0      	nop			; (mov r8, r8)

00002168 <msh_auto_complete>:
    2168:	b5f8      	push	{r3, r4, r5, r6, r7, lr}
    216a:	4657      	mov	r7, sl
    216c:	46de      	mov	lr, fp
    216e:	464e      	mov	r6, r9
    2170:	4645      	mov	r5, r8
    2172:	b5e0      	push	{r5, r6, r7, lr}
    2174:	7803      	ldrb	r3, [r0, #0]
    2176:	0007      	movs	r7, r0
    2178:	2b00      	cmp	r3, #0
    217a:	d061      	beq.n	2240 <msh_auto_complete+0xd8>
    217c:	f244 73c8 	movw	r3, #18376	; 0x47c8
    2180:	f244 78cc 	movw	r8, #18380	; 0x47cc
    2184:	f2c2 0300 	movt	r3, #8192	; 0x2000
    2188:	f2c2 0800 	movt	r8, #8192	; 0x2000
    218c:	681d      	ldr	r5, [r3, #0]
    218e:	4643      	mov	r3, r8
    2190:	681b      	ldr	r3, [r3, #0]
    2192:	f240 0900 	movw	r9, #0
    2196:	469b      	mov	fp, r3
    2198:	f240 0a00 	movw	sl, #0
    219c:	429d      	cmp	r5, r3
    219e:	d303      	bcc.n	21a8 <msh_auto_complete+0x40>
    21a0:	e048      	b.n	2234 <msh_auto_complete+0xcc>
    21a2:	350c      	adds	r5, #12
    21a4:	455d      	cmp	r5, fp
    21a6:	d23e      	bcs.n	2226 <msh_auto_complete+0xbe>
    21a8:	f645 31e0 	movw	r1, #23520	; 0x5be0
    21ac:	682c      	ldr	r4, [r5, #0]
    21ae:	2206      	movs	r2, #6
    21b0:	0020      	movs	r0, r4
    21b2:	f2c0 0100 	movt	r1, #0
    21b6:	f002 fdd3 	bl	4d60 <strncmp>
    21ba:	2800      	cmp	r0, #0
    21bc:	d1f1      	bne.n	21a2 <msh_auto_complete+0x3a>
    21be:	0038      	movs	r0, r7
    21c0:	f002 fda2 	bl	4d08 <strlen>
    21c4:	3406      	adds	r4, #6
    21c6:	0002      	movs	r2, r0
    21c8:	0021      	movs	r1, r4
    21ca:	0038      	movs	r0, r7
    21cc:	f002 fdc8 	bl	4d60 <strncmp>
    21d0:	0006      	movs	r6, r0
    21d2:	2800      	cmp	r0, #0
    21d4:	d1e5      	bne.n	21a2 <msh_auto_complete+0x3a>
    21d6:	4653      	mov	r3, sl
    21d8:	b923      	cbnz	r3, 21e4 <msh_auto_complete+0x7c>
    21da:	0020      	movs	r0, r4
    21dc:	f002 fd94 	bl	4d08 <strlen>
    21e0:	46a1      	mov	r9, r4
    21e2:	4682      	mov	sl, r0
    21e4:	464b      	mov	r3, r9
    21e6:	781b      	ldrb	r3, [r3, #0]
    21e8:	0021      	movs	r1, r4
    21ea:	464a      	mov	r2, r9
    21ec:	b933      	cbnz	r3, 21fc <msh_auto_complete+0x94>
    21ee:	e00a      	b.n	2206 <msh_auto_complete+0x9e>
    21f0:	4298      	cmp	r0, r3
    21f2:	d106      	bne.n	2202 <msh_auto_complete+0x9a>
    21f4:	7853      	ldrb	r3, [r2, #1]
    21f6:	3201      	adds	r2, #1
    21f8:	3101      	adds	r1, #1
    21fa:	b113      	cbz	r3, 2202 <msh_auto_complete+0x9a>
    21fc:	7808      	ldrb	r0, [r1, #0]
    21fe:	2800      	cmp	r0, #0
    2200:	d1f6      	bne.n	21f0 <msh_auto_complete+0x88>
    2202:	464b      	mov	r3, r9
    2204:	1ad6      	subs	r6, r2, r3
    2206:	45b2      	cmp	sl, r6
    2208:	dd00      	ble.n	220c <msh_auto_complete+0xa4>
    220a:	46b2      	mov	sl, r6
    220c:	f645 30f0 	movw	r0, #23536	; 0x5bf0
    2210:	0021      	movs	r1, r4
    2212:	f2c0 0000 	movt	r0, #0
    2216:	f002 fa75 	bl	4704 <rt_kprintf>
    221a:	4643      	mov	r3, r8
    221c:	681b      	ldr	r3, [r3, #0]
    221e:	350c      	adds	r5, #12
    2220:	469b      	mov	fp, r3
    2222:	455d      	cmp	r5, fp
    2224:	d3c0      	bcc.n	21a8 <msh_auto_complete+0x40>
    2226:	464b      	mov	r3, r9
    2228:	b123      	cbz	r3, 2234 <msh_auto_complete+0xcc>
    222a:	4652      	mov	r2, sl
    222c:	4649      	mov	r1, r9
    222e:	0038      	movs	r0, r7
    2230:	f001 ffa8 	bl	4184 <rt_strncpy>
    2234:	bcf0      	pop	{r4, r5, r6, r7}
    2236:	46bb      	mov	fp, r7
    2238:	46b2      	mov	sl, r6
    223a:	46a9      	mov	r9, r5
    223c:	46a0      	mov	r8, r4
    223e:	bdf8      	pop	{r3, r4, r5, r6, r7, pc}
    2240:	f645 30c4 	movw	r0, #23492	; 0x5bc4
    2244:	f2c0 0000 	movt	r0, #0
    2248:	f002 fa5c 	bl	4704 <rt_kprintf>
    224c:	f244 78cc 	movw	r8, #18380	; 0x47cc
    2250:	f244 73c8 	movw	r3, #18376	; 0x47c8
    2254:	f2c2 0800 	movt	r8, #8192	; 0x2000
    2258:	f2c2 0300 	movt	r3, #8192	; 0x2000
    225c:	681c      	ldr	r4, [r3, #0]
    225e:	4643      	mov	r3, r8
    2260:	681e      	ldr	r6, [r3, #0]
    2262:	42a6      	cmp	r6, r4
    2264:	d916      	bls.n	2294 <msh_auto_complete+0x12c>
    2266:	f645 31e0 	movw	r1, #23520	; 0x5be0
    226a:	6825      	ldr	r5, [r4, #0]
    226c:	2206      	movs	r2, #6
    226e:	0028      	movs	r0, r5
    2270:	f2c0 0100 	movt	r1, #0
    2274:	f002 fd74 	bl	4d60 <strncmp>
    2278:	b998      	cbnz	r0, 22a2 <msh_auto_complete+0x13a>
    227a:	f645 30e8 	movw	r0, #23528	; 0x5be8
    227e:	6862      	ldr	r2, [r4, #4]
    2280:	1da9      	adds	r1, r5, #6
    2282:	f2c0 0000 	movt	r0, #0
    2286:	f002 fa3d 	bl	4704 <rt_kprintf>
    228a:	4643      	mov	r3, r8
    228c:	681e      	ldr	r6, [r3, #0]
    228e:	340c      	adds	r4, #12
    2290:	42b4      	cmp	r4, r6
    2292:	d3e8      	bcc.n	2266 <msh_auto_complete+0xfe>
    2294:	f645 408c 	movw	r0, #23692	; 0x5c8c
    2298:	f2c0 0000 	movt	r0, #0
    229c:	f002 fa32 	bl	4704 <rt_kprintf>
    22a0:	e7c8      	b.n	2234 <msh_auto_complete+0xcc>
    22a2:	340c      	adds	r4, #12
    22a4:	42b4      	cmp	r4, r6
    22a6:	d3de      	bcc.n	2266 <msh_auto_complete+0xfe>
    22a8:	e7f4      	b.n	2294 <msh_auto_complete+0x12c>
    22aa:	46c0      	nop			; (mov r8, r8)
    22ac:	20ff      	movs	r0, #255	; 0xff
    22ae:	4770      	bx	lr

000022b0 <hello>:
    22b0:	f645 407c 	movw	r0, #23676	; 0x5c7c
    22b4:	b510      	push	{r4, lr}
    22b6:	f2c0 0000 	movt	r0, #0
    22ba:	f002 fa23 	bl	4704 <rt_kprintf>
    22be:	2000      	movs	r0, #0
    22c0:	bd10      	pop	{r4, pc}
    22c2:	46c0      	nop			; (mov r8, r8)

000022c4 <version>:
    22c4:	b510      	push	{r4, lr}
    22c6:	f002 fa33 	bl	4730 <rt_show_version>
    22ca:	2000      	movs	r0, #0
    22cc:	bd10      	pop	{r4, pc}
    22ce:	46c0      	nop			; (mov r8, r8)

000022d0 <list>:
    22d0:	f645 4090 	movw	r0, #23696	; 0x5c90
    22d4:	b570      	push	{r4, r5, r6, lr}
    22d6:	f2c0 0000 	movt	r0, #0
    22da:	f002 fa13 	bl	4704 <rt_kprintf>
    22de:	f244 75cc 	movw	r5, #18380	; 0x47cc
    22e2:	f244 73c8 	movw	r3, #18376	; 0x47c8
    22e6:	f2c2 0500 	movt	r5, #8192	; 0x2000
    22ea:	f2c2 0300 	movt	r3, #8192	; 0x2000
    22ee:	681c      	ldr	r4, [r3, #0]
    22f0:	682a      	ldr	r2, [r5, #0]
    22f2:	4294      	cmp	r4, r2
    22f4:	d209      	bcs.n	230a <list+0x3a>
    22f6:	6821      	ldr	r1, [r4, #0]
    22f8:	780b      	ldrb	r3, [r1, #0]
    22fa:	2b5f      	cmp	r3, #95	; 0x5f
    22fc:	d107      	bne.n	230e <list+0x3e>
    22fe:	784b      	ldrb	r3, [r1, #1]
    2300:	2b5f      	cmp	r3, #95	; 0x5f
    2302:	d104      	bne.n	230e <list+0x3e>
    2304:	340c      	adds	r4, #12
    2306:	4294      	cmp	r4, r2
    2308:	d3f5      	bcc.n	22f6 <list+0x26>
    230a:	2000      	movs	r0, #0
    230c:	bd70      	pop	{r4, r5, r6, pc}
    230e:	f645 40a4 	movw	r0, #23716	; 0x5ca4
    2312:	6862      	ldr	r2, [r4, #4]
    2314:	f2c0 0000 	movt	r0, #0
    2318:	f002 f9f4 	bl	4704 <rt_kprintf>
    231c:	682a      	ldr	r2, [r5, #0]
    231e:	340c      	adds	r4, #12
    2320:	4294      	cmp	r4, r2
    2322:	d3e8      	bcc.n	22f6 <list+0x26>
    2324:	e7f1      	b.n	230a <list+0x3a>
    2326:	46c0      	nop			; (mov r8, r8)

00002328 <list_thread>:
    2328:	b5f0      	push	{r4, r5, r6, r7, lr}
    232a:	46ce      	mov	lr, r9
    232c:	4647      	mov	r7, r8
    232e:	b580      	push	{r7, lr}
    2330:	2001      	movs	r0, #1
    2332:	b08b      	sub	sp, #44	; 0x2c
    2334:	f000 fad8 	bl	28e8 <rt_object_get_information>
    2338:	f645 42b4 	movw	r2, #23732	; 0x5cb4
    233c:	1d03      	adds	r3, r0, #4
    233e:	f645 40bc 	movw	r0, #23740	; 0x5cbc
    2342:	2108      	movs	r1, #8
    2344:	f2c0 0200 	movt	r2, #0
    2348:	f2c0 0000 	movt	r0, #0
    234c:	4698      	mov	r8, r3
    234e:	2408      	movs	r4, #8
    2350:	f002 f9d8 	bl	4704 <rt_kprintf>
    2354:	f645 5000 	movw	r0, #23808	; 0x5d00
    2358:	3c01      	subs	r4, #1
    235a:	f2c0 0000 	movt	r0, #0
    235e:	f002 f9d1 	bl	4704 <rt_kprintf>
    2362:	2c00      	cmp	r4, #0
    2364:	d1f6      	bne.n	2354 <list_thread+0x2c>
    2366:	f645 5004 	movw	r0, #23812	; 0x5d04
    236a:	f2c0 0000 	movt	r0, #0
    236e:	f002 f9c9 	bl	4704 <rt_kprintf>
    2372:	46c1      	mov	r9, r8
    2374:	f002 fb80 	bl	4a78 <rt_hw_interrupt_disable>
    2378:	464b      	mov	r3, r9
    237a:	681b      	ldr	r3, [r3, #0]
    237c:	4598      	cmp	r8, r3
    237e:	d100      	bne.n	2382 <list_thread+0x5a>
    2380:	e081      	b.n	2486 <list_thread+0x15e>
    2382:	9302      	str	r3, [sp, #8]
    2384:	681b      	ldr	r3, [r3, #0]
    2386:	4598      	cmp	r8, r3
    2388:	d100      	bne.n	238c <list_thread+0x64>
    238a:	e0ac      	b.n	24e6 <list_thread+0x1be>
    238c:	9303      	str	r3, [sp, #12]
    238e:	681b      	ldr	r3, [r3, #0]
    2390:	4598      	cmp	r8, r3
    2392:	d100      	bne.n	2396 <list_thread+0x6e>
    2394:	e0ad      	b.n	24f2 <list_thread+0x1ca>
    2396:	9304      	str	r3, [sp, #16]
    2398:	681b      	ldr	r3, [r3, #0]
    239a:	4598      	cmp	r8, r3
    239c:	d100      	bne.n	23a0 <list_thread+0x78>
    239e:	e0ae      	b.n	24fe <list_thread+0x1d6>
    23a0:	9305      	str	r3, [sp, #20]
    23a2:	681b      	ldr	r3, [r3, #0]
    23a4:	4598      	cmp	r8, r3
    23a6:	d100      	bne.n	23aa <list_thread+0x82>
    23a8:	e0b5      	b.n	2516 <list_thread+0x1ee>
    23aa:	9306      	str	r3, [sp, #24]
    23ac:	681b      	ldr	r3, [r3, #0]
    23ae:	4598      	cmp	r8, r3
    23b0:	d100      	bne.n	23b4 <list_thread+0x8c>
    23b2:	e0aa      	b.n	250a <list_thread+0x1e2>
    23b4:	9307      	str	r3, [sp, #28]
    23b6:	681b      	ldr	r3, [r3, #0]
    23b8:	4598      	cmp	r8, r3
    23ba:	d100      	bne.n	23be <list_thread+0x96>
    23bc:	e0b1      	b.n	2522 <list_thread+0x1fa>
    23be:	9308      	str	r3, [sp, #32]
    23c0:	681b      	ldr	r3, [r3, #0]
    23c2:	4699      	mov	r9, r3
    23c4:	4598      	cmp	r8, r3
    23c6:	d100      	bne.n	23ca <list_thread+0xa2>
    23c8:	e0b1      	b.n	252e <list_thread+0x206>
    23ca:	9309      	str	r3, [sp, #36]	; 0x24
    23cc:	2708      	movs	r7, #8
    23ce:	f002 fb57 	bl	4a80 <rt_hw_interrupt_enable>
    23d2:	2500      	movs	r5, #0
    23d4:	ae02      	add	r6, sp, #8
    23d6:	e005      	b.n	23e4 <list_thread+0xbc>
    23d8:	3501      	adds	r5, #1
    23da:	f002 fb51 	bl	4a80 <rt_hw_interrupt_enable>
    23de:	3604      	adds	r6, #4
    23e0:	42bd      	cmp	r5, r7
    23e2:	da44      	bge.n	246e <list_thread+0x146>
    23e4:	6834      	ldr	r4, [r6, #0]
    23e6:	f002 fb47 	bl	4a78 <rt_hw_interrupt_disable>
    23ea:	2280      	movs	r2, #128	; 0x80
    23ec:	3c0c      	subs	r4, #12
    23ee:	7a23      	ldrb	r3, [r4, #8]
    23f0:	4393      	bics	r3, r2
    23f2:	2b01      	cmp	r3, #1
    23f4:	d1f0      	bne.n	23d8 <list_thread+0xb0>
    23f6:	f002 fb43 	bl	4a80 <rt_hw_interrupt_enable>
    23fa:	2335      	movs	r3, #53	; 0x35
    23fc:	f645 5044 	movw	r0, #23876	; 0x5d44
    2400:	5ce3      	ldrb	r3, [r4, r3]
    2402:	2208      	movs	r2, #8
    2404:	9300      	str	r3, [sp, #0]
    2406:	2108      	movs	r1, #8
    2408:	0023      	movs	r3, r4
    240a:	f2c0 0000 	movt	r0, #0
    240e:	f002 f979 	bl	4704 <rt_kprintf>
    2412:	2334      	movs	r3, #52	; 0x34
    2414:	5ce2      	ldrb	r2, [r4, r3]
    2416:	3b25      	subs	r3, #37	; 0x25
    2418:	4013      	ands	r3, r2
    241a:	2b01      	cmp	r3, #1
    241c:	d047      	beq.n	24ae <list_thread+0x186>
    241e:	2b02      	cmp	r3, #2
    2420:	d04c      	beq.n	24bc <list_thread+0x194>
    2422:	2b00      	cmp	r3, #0
    2424:	d037      	beq.n	2496 <list_thread+0x16e>
    2426:	2b04      	cmp	r3, #4
    2428:	d04f      	beq.n	24ca <list_thread+0x1a2>
    242a:	2b03      	cmp	r3, #3
    242c:	d054      	beq.n	24d8 <list_thread+0x1b0>
    242e:	6aa1      	ldr	r1, [r4, #40]	; 0x28
    2430:	780b      	ldrb	r3, [r1, #0]
    2432:	2b23      	cmp	r3, #35	; 0x23
    2434:	d139      	bne.n	24aa <list_thread+0x182>
    2436:	000b      	movs	r3, r1
    2438:	785a      	ldrb	r2, [r3, #1]
    243a:	3301      	adds	r3, #1
    243c:	2a23      	cmp	r2, #35	; 0x23
    243e:	d0fb      	beq.n	2438 <list_thread+0x110>
    2440:	2064      	movs	r0, #100	; 0x64
    2442:	6ae2      	ldr	r2, [r4, #44]	; 0x2c
    2444:	3501      	adds	r5, #1
    2446:	1889      	adds	r1, r1, r2
    2448:	1acb      	subs	r3, r1, r3
    244a:	4343      	muls	r3, r0
    244c:	69e0      	ldr	r0, [r4, #28]
    244e:	fbb3 f3f2 	udiv	r3, r3, r2
    2452:	1a09      	subs	r1, r1, r0
    2454:	6b20      	ldr	r0, [r4, #48]	; 0x30
    2456:	3604      	adds	r6, #4
    2458:	9001      	str	r0, [sp, #4]
    245a:	6c20      	ldr	r0, [r4, #64]	; 0x40
    245c:	9000      	str	r0, [sp, #0]
    245e:	f645 508c 	movw	r0, #23948	; 0x5d8c
    2462:	f2c0 0000 	movt	r0, #0
    2466:	f002 f94d 	bl	4704 <rt_kprintf>
    246a:	42bd      	cmp	r5, r7
    246c:	dbba      	blt.n	23e4 <list_thread+0xbc>
    246e:	464b      	mov	r3, r9
    2470:	b15b      	cbz	r3, 248a <list_thread+0x162>
    2472:	f002 fb01 	bl	4a78 <rt_hw_interrupt_disable>
    2476:	464b      	mov	r3, r9
    2478:	2280      	movs	r2, #128	; 0x80
    247a:	3b0c      	subs	r3, #12
    247c:	7a1b      	ldrb	r3, [r3, #8]
    247e:	4393      	bics	r3, r2
    2480:	2b01      	cmp	r3, #1
    2482:	d100      	bne.n	2486 <list_thread+0x15e>
    2484:	e778      	b.n	2378 <list_thread+0x50>
    2486:	f002 fafb 	bl	4a80 <rt_hw_interrupt_enable>
    248a:	2000      	movs	r0, #0
    248c:	b00b      	add	sp, #44	; 0x2c
    248e:	bcc0      	pop	{r6, r7}
    2490:	46b9      	mov	r9, r7
    2492:	46b0      	mov	r8, r6
    2494:	bdf0      	pop	{r4, r5, r6, r7, pc}
    2496:	f645 5068 	movw	r0, #23912	; 0x5d68
    249a:	f2c0 0000 	movt	r0, #0
    249e:	f002 f931 	bl	4704 <rt_kprintf>
    24a2:	6aa1      	ldr	r1, [r4, #40]	; 0x28
    24a4:	780b      	ldrb	r3, [r1, #0]
    24a6:	2b23      	cmp	r3, #35	; 0x23
    24a8:	d0c5      	beq.n	2436 <list_thread+0x10e>
    24aa:	000b      	movs	r3, r1
    24ac:	e7c8      	b.n	2440 <list_thread+0x118>
    24ae:	f645 5050 	movw	r0, #23888	; 0x5d50
    24b2:	f2c0 0000 	movt	r0, #0
    24b6:	f002 f925 	bl	4704 <rt_kprintf>
    24ba:	e7b8      	b.n	242e <list_thread+0x106>
    24bc:	f645 505c 	movw	r0, #23900	; 0x5d5c
    24c0:	f2c0 0000 	movt	r0, #0
    24c4:	f002 f91e 	bl	4704 <rt_kprintf>
    24c8:	e7b1      	b.n	242e <list_thread+0x106>
    24ca:	f645 5074 	movw	r0, #23924	; 0x5d74
    24ce:	f2c0 0000 	movt	r0, #0
    24d2:	f002 f917 	bl	4704 <rt_kprintf>
    24d6:	e7aa      	b.n	242e <list_thread+0x106>
    24d8:	f645 5080 	movw	r0, #23936	; 0x5d80
    24dc:	f2c0 0000 	movt	r0, #0
    24e0:	f002 f910 	bl	4704 <rt_kprintf>
    24e4:	e7a3      	b.n	242e <list_thread+0x106>
    24e6:	f002 facb 	bl	4a80 <rt_hw_interrupt_enable>
    24ea:	f240 0900 	movw	r9, #0
    24ee:	2701      	movs	r7, #1
    24f0:	e76f      	b.n	23d2 <list_thread+0xaa>
    24f2:	f002 fac5 	bl	4a80 <rt_hw_interrupt_enable>
    24f6:	f240 0900 	movw	r9, #0
    24fa:	2702      	movs	r7, #2
    24fc:	e769      	b.n	23d2 <list_thread+0xaa>
    24fe:	f002 fabf 	bl	4a80 <rt_hw_interrupt_enable>
    2502:	f240 0900 	movw	r9, #0
    2506:	2703      	movs	r7, #3
    2508:	e763      	b.n	23d2 <list_thread+0xaa>
    250a:	f002 fab9 	bl	4a80 <rt_hw_interrupt_enable>
    250e:	f240 0900 	movw	r9, #0
    2512:	2705      	movs	r7, #5
    2514:	e75d      	b.n	23d2 <list_thread+0xaa>
    2516:	f002 fab3 	bl	4a80 <rt_hw_interrupt_enable>
    251a:	f240 0900 	movw	r9, #0
    251e:	2704      	movs	r7, #4
    2520:	e757      	b.n	23d2 <list_thread+0xaa>
    2522:	f002 faad 	bl	4a80 <rt_hw_interrupt_enable>
    2526:	f240 0900 	movw	r9, #0
    252a:	2706      	movs	r7, #6
    252c:	e751      	b.n	23d2 <list_thread+0xaa>
    252e:	f002 faa7 	bl	4a80 <rt_hw_interrupt_enable>
    2532:	f240 0900 	movw	r9, #0
    2536:	2707      	movs	r7, #7
    2538:	e74b      	b.n	23d2 <list_thread+0xaa>
    253a:	46c0      	nop			; (mov r8, r8)

0000253c <list_timer>:
    253c:	b5f0      	push	{r4, r5, r6, r7, lr}
    253e:	46d6      	mov	lr, sl
    2540:	4646      	mov	r6, r8
    2542:	464f      	mov	r7, r9
    2544:	b5c0      	push	{r6, r7, lr}
    2546:	200a      	movs	r0, #10
    2548:	b08a      	sub	sp, #40	; 0x28
    254a:	f000 f9cd 	bl	28e8 <rt_object_get_information>
    254e:	f645 52b4 	movw	r2, #23988	; 0x5db4
    2552:	1d03      	adds	r3, r0, #4
    2554:	f645 50bc 	movw	r0, #23996	; 0x5dbc
    2558:	2108      	movs	r1, #8
    255a:	f2c0 0200 	movt	r2, #0
    255e:	f2c0 0000 	movt	r0, #0
    2562:	4698      	mov	r8, r3
    2564:	2408      	movs	r4, #8
    2566:	f002 f8cd 	bl	4704 <rt_kprintf>
    256a:	f645 5000 	movw	r0, #23808	; 0x5d00
    256e:	3c01      	subs	r4, #1
    2570:	f2c0 0000 	movt	r0, #0
    2574:	f002 f8c6 	bl	4704 <rt_kprintf>
    2578:	2c00      	cmp	r4, #0
    257a:	d1f6      	bne.n	256a <list_timer+0x2e>
    257c:	f645 50e4 	movw	r0, #24036	; 0x5de4
    2580:	f2c0 0000 	movt	r0, #0
    2584:	f002 f8be 	bl	4704 <rt_kprintf>
    2588:	46c2      	mov	sl, r8
    258a:	f002 fa75 	bl	4a78 <rt_hw_interrupt_disable>
    258e:	f240 0901 	movw	r9, #1
    2592:	4653      	mov	r3, sl
    2594:	681b      	ldr	r3, [r3, #0]
    2596:	4598      	cmp	r8, r3
    2598:	d061      	beq.n	265e <list_timer+0x122>
    259a:	9302      	str	r3, [sp, #8]
    259c:	681b      	ldr	r3, [r3, #0]
    259e:	4598      	cmp	r8, r3
    25a0:	d100      	bne.n	25a4 <list_timer+0x68>
    25a2:	e075      	b.n	2690 <list_timer+0x154>
    25a4:	9303      	str	r3, [sp, #12]
    25a6:	681b      	ldr	r3, [r3, #0]
    25a8:	4598      	cmp	r8, r3
    25aa:	d100      	bne.n	25ae <list_timer+0x72>
    25ac:	e076      	b.n	269c <list_timer+0x160>
    25ae:	9304      	str	r3, [sp, #16]
    25b0:	681b      	ldr	r3, [r3, #0]
    25b2:	4598      	cmp	r8, r3
    25b4:	d100      	bne.n	25b8 <list_timer+0x7c>
    25b6:	e077      	b.n	26a8 <list_timer+0x16c>
    25b8:	9305      	str	r3, [sp, #20]
    25ba:	681b      	ldr	r3, [r3, #0]
    25bc:	4598      	cmp	r8, r3
    25be:	d100      	bne.n	25c2 <list_timer+0x86>
    25c0:	e078      	b.n	26b4 <list_timer+0x178>
    25c2:	9306      	str	r3, [sp, #24]
    25c4:	681b      	ldr	r3, [r3, #0]
    25c6:	4598      	cmp	r8, r3
    25c8:	d100      	bne.n	25cc <list_timer+0x90>
    25ca:	e079      	b.n	26c0 <list_timer+0x184>
    25cc:	9307      	str	r3, [sp, #28]
    25ce:	681b      	ldr	r3, [r3, #0]
    25d0:	4598      	cmp	r8, r3
    25d2:	d100      	bne.n	25d6 <list_timer+0x9a>
    25d4:	e07a      	b.n	26cc <list_timer+0x190>
    25d6:	9308      	str	r3, [sp, #32]
    25d8:	681b      	ldr	r3, [r3, #0]
    25da:	469a      	mov	sl, r3
    25dc:	4598      	cmp	r8, r3
    25de:	d100      	bne.n	25e2 <list_timer+0xa6>
    25e0:	e07a      	b.n	26d8 <list_timer+0x19c>
    25e2:	9309      	str	r3, [sp, #36]	; 0x24
    25e4:	2708      	movs	r7, #8
    25e6:	f002 fa4b 	bl	4a80 <rt_hw_interrupt_enable>
    25ea:	2500      	movs	r5, #0
    25ec:	ae02      	add	r6, sp, #8
    25ee:	e005      	b.n	25fc <list_timer+0xc0>
    25f0:	f002 fa46 	bl	4a80 <rt_hw_interrupt_enable>
    25f4:	3501      	adds	r5, #1
    25f6:	3604      	adds	r6, #4
    25f8:	42bd      	cmp	r5, r7
    25fa:	da25      	bge.n	2648 <list_timer+0x10c>
    25fc:	6834      	ldr	r4, [r6, #0]
    25fe:	f002 fa3b 	bl	4a78 <rt_hw_interrupt_disable>
    2602:	2280      	movs	r2, #128	; 0x80
    2604:	3c0c      	subs	r4, #12
    2606:	7a23      	ldrb	r3, [r4, #8]
    2608:	4393      	bics	r3, r2
    260a:	2b0a      	cmp	r3, #10
    260c:	d1f0      	bne.n	25f0 <list_timer+0xb4>
    260e:	f002 fa37 	bl	4a80 <rt_hw_interrupt_enable>
    2612:	f645 6008 	movw	r0, #24072	; 0x5e08
    2616:	6aa3      	ldr	r3, [r4, #40]	; 0x28
    2618:	2208      	movs	r2, #8
    261a:	9301      	str	r3, [sp, #4]
    261c:	6a63      	ldr	r3, [r4, #36]	; 0x24
    261e:	2108      	movs	r1, #8
    2620:	9300      	str	r3, [sp, #0]
    2622:	f2c0 0000 	movt	r0, #0
    2626:	0023      	movs	r3, r4
    2628:	f002 f86c 	bl	4704 <rt_kprintf>
    262c:	464a      	mov	r2, r9
    262e:	7a63      	ldrb	r3, [r4, #9]
    2630:	421a      	tst	r2, r3
    2632:	d026      	beq.n	2682 <list_timer+0x146>
    2634:	f645 6020 	movw	r0, #24096	; 0x5e20
    2638:	3501      	adds	r5, #1
    263a:	f2c0 0000 	movt	r0, #0
    263e:	f002 f861 	bl	4704 <rt_kprintf>
    2642:	3604      	adds	r6, #4
    2644:	42bd      	cmp	r5, r7
    2646:	dbd9      	blt.n	25fc <list_timer+0xc0>
    2648:	4653      	mov	r3, sl
    264a:	b153      	cbz	r3, 2662 <list_timer+0x126>
    264c:	f002 fa14 	bl	4a78 <rt_hw_interrupt_disable>
    2650:	4653      	mov	r3, sl
    2652:	2280      	movs	r2, #128	; 0x80
    2654:	3b0c      	subs	r3, #12
    2656:	7a1b      	ldrb	r3, [r3, #8]
    2658:	4393      	bics	r3, r2
    265a:	2b0a      	cmp	r3, #10
    265c:	d099      	beq.n	2592 <list_timer+0x56>
    265e:	f002 fa0f 	bl	4a80 <rt_hw_interrupt_enable>
    2662:	f001 f913 	bl	388c <rt_tick_get>
    2666:	0001      	movs	r1, r0
    2668:	f645 603c 	movw	r0, #24124	; 0x5e3c
    266c:	f2c0 0000 	movt	r0, #0
    2670:	f002 f848 	bl	4704 <rt_kprintf>
    2674:	2000      	movs	r0, #0
    2676:	b00a      	add	sp, #40	; 0x28
    2678:	bce0      	pop	{r5, r6, r7}
    267a:	46ba      	mov	sl, r7
    267c:	46b1      	mov	r9, r6
    267e:	46a8      	mov	r8, r5
    2680:	bdf0      	pop	{r4, r5, r6, r7, pc}
    2682:	f645 602c 	movw	r0, #24108	; 0x5e2c
    2686:	f2c0 0000 	movt	r0, #0
    268a:	f002 f83b 	bl	4704 <rt_kprintf>
    268e:	e7b1      	b.n	25f4 <list_timer+0xb8>
    2690:	f002 f9f6 	bl	4a80 <rt_hw_interrupt_enable>
    2694:	f240 0a00 	movw	sl, #0
    2698:	2701      	movs	r7, #1
    269a:	e7a6      	b.n	25ea <list_timer+0xae>
    269c:	f002 f9f0 	bl	4a80 <rt_hw_interrupt_enable>
    26a0:	f240 0a00 	movw	sl, #0
    26a4:	2702      	movs	r7, #2
    26a6:	e7a0      	b.n	25ea <list_timer+0xae>
    26a8:	f002 f9ea 	bl	4a80 <rt_hw_interrupt_enable>
    26ac:	f240 0a00 	movw	sl, #0
    26b0:	2703      	movs	r7, #3
    26b2:	e79a      	b.n	25ea <list_timer+0xae>
    26b4:	f002 f9e4 	bl	4a80 <rt_hw_interrupt_enable>
    26b8:	f240 0a00 	movw	sl, #0
    26bc:	2704      	movs	r7, #4
    26be:	e794      	b.n	25ea <list_timer+0xae>
    26c0:	f002 f9de 	bl	4a80 <rt_hw_interrupt_enable>
    26c4:	f240 0a00 	movw	sl, #0
    26c8:	2705      	movs	r7, #5
    26ca:	e78e      	b.n	25ea <list_timer+0xae>
    26cc:	f002 f9d8 	bl	4a80 <rt_hw_interrupt_enable>
    26d0:	f240 0a00 	movw	sl, #0
    26d4:	2706      	movs	r7, #6
    26d6:	e788      	b.n	25ea <list_timer+0xae>
    26d8:	f002 f9d2 	bl	4a80 <rt_hw_interrupt_enable>
    26dc:	f240 0a00 	movw	sl, #0
    26e0:	2707      	movs	r7, #7
    26e2:	e782      	b.n	25ea <list_timer+0xae>

000026e4 <list_sem>:
    26e4:	b5f0      	push	{r4, r5, r6, r7, lr}
    26e6:	46de      	mov	lr, fp
    26e8:	4657      	mov	r7, sl
    26ea:	464e      	mov	r6, r9
    26ec:	4645      	mov	r5, r8
    26ee:	b5e0      	push	{r5, r6, r7, lr}
    26f0:	2002      	movs	r0, #2
    26f2:	b08b      	sub	sp, #44	; 0x2c
    26f4:	f000 f8f8 	bl	28e8 <rt_object_get_information>
    26f8:	f645 6254 	movw	r2, #24148	; 0x5e54
    26fc:	1d03      	adds	r3, r0, #4
    26fe:	f645 6060 	movw	r0, #24160	; 0x5e60
    2702:	2108      	movs	r1, #8
    2704:	f2c0 0200 	movt	r2, #0
    2708:	f2c0 0000 	movt	r0, #0
    270c:	469a      	mov	sl, r3
    270e:	2408      	movs	r4, #8
    2710:	f001 fff8 	bl	4704 <rt_kprintf>
    2714:	f645 5000 	movw	r0, #23808	; 0x5d00
    2718:	3c01      	subs	r4, #1
    271a:	f2c0 0000 	movt	r0, #0
    271e:	f001 fff1 	bl	4704 <rt_kprintf>
    2722:	2c00      	cmp	r4, #0
    2724:	d1f6      	bne.n	2714 <list_sem+0x30>
    2726:	f645 607c 	movw	r0, #24188	; 0x5e7c
    272a:	f2c0 0000 	movt	r0, #0
    272e:	f001 ffe9 	bl	4704 <rt_kprintf>
    2732:	46d3      	mov	fp, sl
    2734:	f002 f9a0 	bl	4a78 <rt_hw_interrupt_disable>
    2738:	465b      	mov	r3, fp
    273a:	681b      	ldr	r3, [r3, #0]
    273c:	459a      	cmp	sl, r3
    273e:	d100      	bne.n	2742 <list_sem+0x5e>
    2740:	e085      	b.n	284e <list_sem+0x16a>
    2742:	9302      	str	r3, [sp, #8]
    2744:	681b      	ldr	r3, [r3, #0]
    2746:	4553      	cmp	r3, sl
    2748:	d100      	bne.n	274c <list_sem+0x68>
    274a:	e099      	b.n	2880 <list_sem+0x19c>
    274c:	9303      	str	r3, [sp, #12]
    274e:	681b      	ldr	r3, [r3, #0]
    2750:	459a      	cmp	sl, r3
    2752:	d100      	bne.n	2756 <list_sem+0x72>
    2754:	e09b      	b.n	288e <list_sem+0x1aa>
    2756:	9304      	str	r3, [sp, #16]
    2758:	681b      	ldr	r3, [r3, #0]
    275a:	459a      	cmp	sl, r3
    275c:	d100      	bne.n	2760 <list_sem+0x7c>
    275e:	e09d      	b.n	289c <list_sem+0x1b8>
    2760:	9305      	str	r3, [sp, #20]
    2762:	681b      	ldr	r3, [r3, #0]
    2764:	459a      	cmp	sl, r3
    2766:	d100      	bne.n	276a <list_sem+0x86>
    2768:	e0a6      	b.n	28b8 <list_sem+0x1d4>
    276a:	9306      	str	r3, [sp, #24]
    276c:	681b      	ldr	r3, [r3, #0]
    276e:	459a      	cmp	sl, r3
    2770:	d100      	bne.n	2774 <list_sem+0x90>
    2772:	e09a      	b.n	28aa <list_sem+0x1c6>
    2774:	9307      	str	r3, [sp, #28]
    2776:	681b      	ldr	r3, [r3, #0]
    2778:	459a      	cmp	sl, r3
    277a:	d100      	bne.n	277e <list_sem+0x9a>
    277c:	e0aa      	b.n	28d4 <list_sem+0x1f0>
    277e:	9308      	str	r3, [sp, #32]
    2780:	681b      	ldr	r3, [r3, #0]
    2782:	469b      	mov	fp, r3
    2784:	459a      	cmp	sl, r3
    2786:	d100      	bne.n	278a <list_sem+0xa6>
    2788:	e09d      	b.n	28c6 <list_sem+0x1e2>
    278a:	9309      	str	r3, [sp, #36]	; 0x24
    278c:	f240 0908 	movw	r9, #8
    2790:	f002 f976 	bl	4a80 <rt_hw_interrupt_enable>
    2794:	2600      	movs	r6, #0
    2796:	af02      	add	r7, sp, #8
    2798:	e005      	b.n	27a6 <list_sem+0xc2>
    279a:	f002 f971 	bl	4a80 <rt_hw_interrupt_enable>
    279e:	3601      	adds	r6, #1
    27a0:	3704      	adds	r7, #4
    27a2:	454e      	cmp	r6, r9
    27a4:	da47      	bge.n	2836 <list_sem+0x152>
    27a6:	683d      	ldr	r5, [r7, #0]
    27a8:	f002 f966 	bl	4a78 <rt_hw_interrupt_disable>
    27ac:	230c      	movs	r3, #12
    27ae:	425b      	negs	r3, r3
    27b0:	4698      	mov	r8, r3
    27b2:	44a8      	add	r8, r5
    27b4:	4643      	mov	r3, r8
    27b6:	2280      	movs	r2, #128	; 0x80
    27b8:	7a1b      	ldrb	r3, [r3, #8]
    27ba:	4393      	bics	r3, r2
    27bc:	2b02      	cmp	r3, #2
    27be:	d1ec      	bne.n	279a <list_sem+0xb6>
    27c0:	f002 f95e 	bl	4a80 <rt_hw_interrupt_enable>
    27c4:	002a      	movs	r2, r5
    27c6:	68ac      	ldr	r4, [r5, #8]
    27c8:	3208      	adds	r2, #8
    27ca:	42a2      	cmp	r2, r4
    27cc:	d049      	beq.n	2862 <list_sem+0x17e>
    27ce:	4643      	mov	r3, r8
    27d0:	8b99      	ldrh	r1, [r3, #28]
    27d2:	2300      	movs	r3, #0
    27d4:	6824      	ldr	r4, [r4, #0]
    27d6:	3301      	adds	r3, #1
    27d8:	42a2      	cmp	r2, r4
    27da:	d1fb      	bne.n	27d4 <list_sem+0xf0>
    27dc:	f645 6094 	movw	r0, #24212	; 0x5e94
    27e0:	9301      	str	r3, [sp, #4]
    27e2:	9100      	str	r1, [sp, #0]
    27e4:	4643      	mov	r3, r8
    27e6:	2208      	movs	r2, #8
    27e8:	2108      	movs	r1, #8
    27ea:	f2c0 0000 	movt	r0, #0
    27ee:	f001 ff89 	bl	4704 <rt_kprintf>
    27f2:	68ad      	ldr	r5, [r5, #8]
    27f4:	42ac      	cmp	r4, r5
    27f6:	d109      	bne.n	280c <list_sem+0x128>
    27f8:	e013      	b.n	2822 <list_sem+0x13e>
    27fa:	f645 60a4 	movw	r0, #24228	; 0x5ea4
    27fe:	f2c0 0000 	movt	r0, #0
    2802:	f001 ff7f 	bl	4704 <rt_kprintf>
    2806:	682d      	ldr	r5, [r5, #0]
    2808:	42ac      	cmp	r4, r5
    280a:	d00a      	beq.n	2822 <list_sem+0x13e>
    280c:	0029      	movs	r1, r5
    280e:	f645 30c0 	movw	r0, #23488	; 0x5bc0
    2812:	3914      	subs	r1, #20
    2814:	f2c0 0000 	movt	r0, #0
    2818:	f001 ff74 	bl	4704 <rt_kprintf>
    281c:	682b      	ldr	r3, [r5, #0]
    281e:	429c      	cmp	r4, r3
    2820:	d1eb      	bne.n	27fa <list_sem+0x116>
    2822:	f645 408c 	movw	r0, #23692	; 0x5c8c
    2826:	3601      	adds	r6, #1
    2828:	f2c0 0000 	movt	r0, #0
    282c:	f001 ff6a 	bl	4704 <rt_kprintf>
    2830:	3704      	adds	r7, #4
    2832:	454e      	cmp	r6, r9
    2834:	dbb7      	blt.n	27a6 <list_sem+0xc2>
    2836:	465b      	mov	r3, fp
    2838:	b15b      	cbz	r3, 2852 <list_sem+0x16e>
    283a:	f002 f91d 	bl	4a78 <rt_hw_interrupt_disable>
    283e:	465b      	mov	r3, fp
    2840:	2280      	movs	r2, #128	; 0x80
    2842:	3b0c      	subs	r3, #12
    2844:	7a1b      	ldrb	r3, [r3, #8]
    2846:	4393      	bics	r3, r2
    2848:	2b02      	cmp	r3, #2
    284a:	d100      	bne.n	284e <list_sem+0x16a>
    284c:	e774      	b.n	2738 <list_sem+0x54>
    284e:	f002 f917 	bl	4a80 <rt_hw_interrupt_enable>
    2852:	2000      	movs	r0, #0
    2854:	b00b      	add	sp, #44	; 0x2c
    2856:	bcf0      	pop	{r4, r5, r6, r7}
    2858:	46bb      	mov	fp, r7
    285a:	46b2      	mov	sl, r6
    285c:	46a9      	mov	r9, r5
    285e:	46a0      	mov	r8, r4
    2860:	bdf0      	pop	{r4, r5, r6, r7, pc}
    2862:	2300      	movs	r3, #0
    2864:	9301      	str	r3, [sp, #4]
    2866:	4643      	mov	r3, r8
    2868:	f645 60a8 	movw	r0, #24232	; 0x5ea8
    286c:	8b9b      	ldrh	r3, [r3, #28]
    286e:	2208      	movs	r2, #8
    2870:	9300      	str	r3, [sp, #0]
    2872:	2108      	movs	r1, #8
    2874:	4643      	mov	r3, r8
    2876:	f2c0 0000 	movt	r0, #0
    287a:	f001 ff43 	bl	4704 <rt_kprintf>
    287e:	e78e      	b.n	279e <list_sem+0xba>
    2880:	f002 f8fe 	bl	4a80 <rt_hw_interrupt_enable>
    2884:	f240 0b00 	movw	fp, #0
    2888:	f240 0901 	movw	r9, #1
    288c:	e782      	b.n	2794 <list_sem+0xb0>
    288e:	f002 f8f7 	bl	4a80 <rt_hw_interrupt_enable>
    2892:	f240 0b00 	movw	fp, #0
    2896:	f240 0902 	movw	r9, #2
    289a:	e77b      	b.n	2794 <list_sem+0xb0>
    289c:	f002 f8f0 	bl	4a80 <rt_hw_interrupt_enable>
    28a0:	f240 0b00 	movw	fp, #0
    28a4:	f240 0903 	movw	r9, #3
    28a8:	e774      	b.n	2794 <list_sem+0xb0>
    28aa:	f002 f8e9 	bl	4a80 <rt_hw_interrupt_enable>
    28ae:	f240 0b00 	movw	fp, #0
    28b2:	f240 0905 	movw	r9, #5
    28b6:	e76d      	b.n	2794 <list_sem+0xb0>
    28b8:	f002 f8e2 	bl	4a80 <rt_hw_interrupt_enable>
    28bc:	f240 0b00 	movw	fp, #0
    28c0:	f240 0904 	movw	r9, #4
    28c4:	e766      	b.n	2794 <list_sem+0xb0>
    28c6:	f002 f8db 	bl	4a80 <rt_hw_interrupt_enable>
    28ca:	f240 0b00 	movw	fp, #0
    28ce:	f240 0907 	movw	r9, #7
    28d2:	e75f      	b.n	2794 <list_sem+0xb0>
    28d4:	f002 f8d4 	bl	4a80 <rt_hw_interrupt_enable>
    28d8:	f240 0b00 	movw	fp, #0
    28dc:	f240 0906 	movw	r9, #6
    28e0:	e758      	b.n	2794 <list_sem+0xb0>
    28e2:	46c0      	nop			; (mov r8, r8)

000028e4 <rt_system_object_init>:
    28e4:	4770      	bx	lr
    28e6:	46c0      	nop			; (mov r8, r8)

000028e8 <rt_object_get_information>:
    28e8:	f244 4338 	movw	r3, #17464	; 0x4438
    28ec:	f2c2 0300 	movt	r3, #8192	; 0x2000
    28f0:	7819      	ldrb	r1, [r3, #0]
    28f2:	0002      	movs	r2, r0
    28f4:	4281      	cmp	r1, r0
    28f6:	d009      	beq.n	290c <rt_object_get_information+0x24>
    28f8:	7c19      	ldrb	r1, [r3, #16]
    28fa:	4281      	cmp	r1, r0
    28fc:	d005      	beq.n	290a <rt_object_get_information+0x22>
    28fe:	2120      	movs	r1, #32
    2900:	5c59      	ldrb	r1, [r3, r1]
    2902:	2000      	movs	r0, #0
    2904:	4291      	cmp	r1, r2
    2906:	d003      	beq.n	2910 <rt_object_get_information+0x28>
    2908:	4770      	bx	lr
    290a:	3310      	adds	r3, #16
    290c:	0018      	movs	r0, r3
    290e:	e7fb      	b.n	2908 <rt_object_get_information+0x20>
    2910:	3320      	adds	r3, #32
    2912:	0018      	movs	r0, r3
    2914:	e7f8      	b.n	2908 <rt_object_get_information+0x20>
    2916:	46c0      	nop			; (mov r8, r8)

00002918 <rt_object_get_length>:
    2918:	f244 4338 	movw	r3, #17464	; 0x4438
    291c:	f2c2 0300 	movt	r3, #8192	; 0x2000
    2920:	781a      	ldrb	r2, [r3, #0]
    2922:	b570      	push	{r4, r5, r6, lr}
    2924:	4282      	cmp	r2, r0
    2926:	d009      	beq.n	293c <rt_object_get_length+0x24>
    2928:	7c1a      	ldrb	r2, [r3, #16]
    292a:	4282      	cmp	r2, r0
    292c:	d01d      	beq.n	296a <rt_object_get_length+0x52>
    292e:	2220      	movs	r2, #32
    2930:	5c9b      	ldrb	r3, [r3, r2]
    2932:	4283      	cmp	r3, r0
    2934:	d01c      	beq.n	2970 <rt_object_get_length+0x58>
    2936:	2400      	movs	r4, #0
    2938:	0020      	movs	r0, r4
    293a:	bd70      	pop	{r4, r5, r6, pc}
    293c:	2404      	movs	r4, #4
    293e:	2500      	movs	r5, #0
    2940:	f002 f89a 	bl	4a78 <rt_hw_interrupt_disable>
    2944:	f244 4238 	movw	r2, #17464	; 0x4438
    2948:	f2c2 0200 	movt	r2, #8192	; 0x2000
    294c:	4694      	mov	ip, r2
    294e:	012b      	lsls	r3, r5, #4
    2950:	4463      	add	r3, ip
    2952:	685b      	ldr	r3, [r3, #4]
    2954:	18a2      	adds	r2, r4, r2
    2956:	2400      	movs	r4, #0
    2958:	4293      	cmp	r3, r2
    295a:	d003      	beq.n	2964 <rt_object_get_length+0x4c>
    295c:	681b      	ldr	r3, [r3, #0]
    295e:	3401      	adds	r4, #1
    2960:	4293      	cmp	r3, r2
    2962:	d1fb      	bne.n	295c <rt_object_get_length+0x44>
    2964:	f002 f88c 	bl	4a80 <rt_hw_interrupt_enable>
    2968:	e7e6      	b.n	2938 <rt_object_get_length+0x20>
    296a:	2414      	movs	r4, #20
    296c:	2501      	movs	r5, #1
    296e:	e7e7      	b.n	2940 <rt_object_get_length+0x28>
    2970:	2424      	movs	r4, #36	; 0x24
    2972:	2502      	movs	r5, #2
    2974:	e7e4      	b.n	2940 <rt_object_get_length+0x28>
    2976:	46c0      	nop			; (mov r8, r8)

00002978 <rt_object_get_pointers>:
    2978:	b5f8      	push	{r3, r4, r5, r6, r7, lr}
    297a:	000f      	movs	r7, r1
    297c:	1e15      	subs	r5, r2, #0
    297e:	dd0d      	ble.n	299c <rt_object_get_pointers+0x24>
    2980:	f244 4338 	movw	r3, #17464	; 0x4438
    2984:	f2c2 0300 	movt	r3, #8192	; 0x2000
    2988:	781a      	ldrb	r2, [r3, #0]
    298a:	4282      	cmp	r2, r0
    298c:	d02c      	beq.n	29e8 <rt_object_get_pointers+0x70>
    298e:	7c1a      	ldrb	r2, [r3, #16]
    2990:	4282      	cmp	r2, r0
    2992:	d02c      	beq.n	29ee <rt_object_get_pointers+0x76>
    2994:	2220      	movs	r2, #32
    2996:	5c9b      	ldrb	r3, [r3, r2]
    2998:	4283      	cmp	r3, r0
    299a:	d002      	beq.n	29a2 <rt_object_get_pointers+0x2a>
    299c:	2400      	movs	r4, #0
    299e:	0020      	movs	r0, r4
    29a0:	bdf8      	pop	{r3, r4, r5, r6, r7, pc}
    29a2:	2424      	movs	r4, #36	; 0x24
    29a4:	2602      	movs	r6, #2
    29a6:	f002 f867 	bl	4a78 <rt_hw_interrupt_disable>
    29aa:	f244 4238 	movw	r2, #17464	; 0x4438
    29ae:	f2c2 0200 	movt	r2, #8192	; 0x2000
    29b2:	4694      	mov	ip, r2
    29b4:	0133      	lsls	r3, r6, #4
    29b6:	4463      	add	r3, ip
    29b8:	685b      	ldr	r3, [r3, #4]
    29ba:	18a1      	adds	r1, r4, r2
    29bc:	428b      	cmp	r3, r1
    29be:	d019      	beq.n	29f4 <rt_object_get_pointers+0x7c>
    29c0:	001a      	movs	r2, r3
    29c2:	3a0c      	subs	r2, #12
    29c4:	2401      	movs	r4, #1
    29c6:	603a      	str	r2, [r7, #0]
    29c8:	2d01      	cmp	r5, #1
    29ca:	d107      	bne.n	29dc <rt_object_get_pointers+0x64>
    29cc:	e009      	b.n	29e2 <rt_object_get_pointers+0x6a>
    29ce:	001e      	movs	r6, r3
    29d0:	00a2      	lsls	r2, r4, #2
    29d2:	3e0c      	subs	r6, #12
    29d4:	3401      	adds	r4, #1
    29d6:	50be      	str	r6, [r7, r2]
    29d8:	42a5      	cmp	r5, r4
    29da:	d002      	beq.n	29e2 <rt_object_get_pointers+0x6a>
    29dc:	681b      	ldr	r3, [r3, #0]
    29de:	428b      	cmp	r3, r1
    29e0:	d1f5      	bne.n	29ce <rt_object_get_pointers+0x56>
    29e2:	f002 f84d 	bl	4a80 <rt_hw_interrupt_enable>
    29e6:	e7da      	b.n	299e <rt_object_get_pointers+0x26>
    29e8:	2404      	movs	r4, #4
    29ea:	2600      	movs	r6, #0
    29ec:	e7db      	b.n	29a6 <rt_object_get_pointers+0x2e>
    29ee:	2414      	movs	r4, #20
    29f0:	2601      	movs	r6, #1
    29f2:	e7d8      	b.n	29a6 <rt_object_get_pointers+0x2e>
    29f4:	2400      	movs	r4, #0
    29f6:	e7f4      	b.n	29e2 <rt_object_get_pointers+0x6a>

000029f8 <rt_object_init>:
    29f8:	b5f8      	push	{r3, r4, r5, r6, r7, lr}
    29fa:	f244 4538 	movw	r5, #17464	; 0x4438
    29fe:	4647      	mov	r7, r8
    2a00:	46ce      	mov	lr, r9
    2a02:	f2c2 0500 	movt	r5, #8192	; 0x2000
    2a06:	4690      	mov	r8, r2
    2a08:	782a      	ldrb	r2, [r5, #0]
    2a0a:	b580      	push	{r7, lr}
    2a0c:	0006      	movs	r6, r0
    2a0e:	000f      	movs	r7, r1
    2a10:	428a      	cmp	r2, r1
    2a12:	d035      	beq.n	2a80 <rt_object_init+0x88>
    2a14:	7c2a      	ldrb	r2, [r5, #16]
    2a16:	428a      	cmp	r2, r1
    2a18:	d036      	beq.n	2a88 <rt_object_init+0x90>
    2a1a:	2220      	movs	r2, #32
    2a1c:	5caa      	ldrb	r2, [r5, r2]
    2a1e:	428a      	cmp	r2, r1
    2a20:	d137      	bne.n	2a92 <rt_object_init+0x9a>
    2a22:	f240 0924 	movw	r9, #36	; 0x24
    2a26:	2402      	movs	r4, #2
    2a28:	3520      	adds	r5, #32
    2a2a:	f000 fdb7 	bl	359c <rt_enter_critical>
    2a2e:	f244 4238 	movw	r2, #17464	; 0x4438
    2a32:	f2c2 0200 	movt	r2, #8192	; 0x2000
    2a36:	4694      	mov	ip, r2
    2a38:	0123      	lsls	r3, r4, #4
    2a3a:	0014      	movs	r4, r2
    2a3c:	4463      	add	r3, ip
    2a3e:	685b      	ldr	r3, [r3, #4]
    2a40:	444c      	add	r4, r9
    2a42:	42a3      	cmp	r3, r4
    2a44:	d002      	beq.n	2a4c <rt_object_init+0x54>
    2a46:	681b      	ldr	r3, [r3, #0]
    2a48:	42a3      	cmp	r3, r4
    2a4a:	d1fc      	bne.n	2a46 <rt_object_init+0x4e>
    2a4c:	f000 fdb4 	bl	35b8 <rt_exit_critical>
    2a50:	2180      	movs	r1, #128	; 0x80
    2a52:	4249      	negs	r1, r1
    2a54:	430f      	orrs	r7, r1
    2a56:	7237      	strb	r7, [r6, #8]
    2a58:	4641      	mov	r1, r8
    2a5a:	2208      	movs	r2, #8
    2a5c:	0030      	movs	r0, r6
    2a5e:	f001 fb91 	bl	4184 <rt_strncpy>
    2a62:	f002 f809 	bl	4a78 <rt_hw_interrupt_disable>
    2a66:	0033      	movs	r3, r6
    2a68:	686a      	ldr	r2, [r5, #4]
    2a6a:	330c      	adds	r3, #12
    2a6c:	6053      	str	r3, [r2, #4]
    2a6e:	60f2      	str	r2, [r6, #12]
    2a70:	606b      	str	r3, [r5, #4]
    2a72:	6134      	str	r4, [r6, #16]
    2a74:	f002 f804 	bl	4a80 <rt_hw_interrupt_enable>
    2a78:	bcc0      	pop	{r6, r7}
    2a7a:	46b9      	mov	r9, r7
    2a7c:	46b0      	mov	r8, r6
    2a7e:	bdf8      	pop	{r3, r4, r5, r6, r7, pc}
    2a80:	f240 0904 	movw	r9, #4
    2a84:	2400      	movs	r4, #0
    2a86:	e7d0      	b.n	2a2a <rt_object_init+0x32>
    2a88:	f240 0914 	movw	r9, #20
    2a8c:	2401      	movs	r4, #1
    2a8e:	3510      	adds	r5, #16
    2a90:	e7cb      	b.n	2a2a <rt_object_init+0x32>
    2a92:	f000 fd83 	bl	359c <rt_enter_critical>
    2a96:	2300      	movs	r3, #0
    2a98:	685b      	ldr	r3, [r3, #4]
    2a9a:	deff      	udf	#255	; 0xff

00002a9c <rt_object_detach>:
    2a9c:	2300      	movs	r3, #0
    2a9e:	b510      	push	{r4, lr}
    2aa0:	0004      	movs	r4, r0
    2aa2:	7203      	strb	r3, [r0, #8]
    2aa4:	f001 ffe8 	bl	4a78 <rt_hw_interrupt_disable>
    2aa8:	0023      	movs	r3, r4
    2aaa:	68e1      	ldr	r1, [r4, #12]
    2aac:	6922      	ldr	r2, [r4, #16]
    2aae:	330c      	adds	r3, #12
    2ab0:	604a      	str	r2, [r1, #4]
    2ab2:	6011      	str	r1, [r2, #0]
    2ab4:	6123      	str	r3, [r4, #16]
    2ab6:	60e3      	str	r3, [r4, #12]
    2ab8:	f001 ffe2 	bl	4a80 <rt_hw_interrupt_enable>
    2abc:	bd10      	pop	{r4, pc}
    2abe:	46c0      	nop			; (mov r8, r8)

00002ac0 <rt_object_is_systemobject>:
    2ac0:	7a00      	ldrb	r0, [r0, #8]
    2ac2:	b240      	sxtb	r0, r0
    2ac4:	0fc0      	lsrs	r0, r0, #31
    2ac6:	4770      	bx	lr

00002ac8 <rt_object_get_type>:
    2ac8:	7a03      	ldrb	r3, [r0, #8]
    2aca:	207f      	movs	r0, #127	; 0x7f
    2acc:	4018      	ands	r0, r3
    2ace:	4770      	bx	lr

00002ad0 <rt_object_find>:
    2ad0:	b5f8      	push	{r3, r4, r5, r6, r7, lr}
    2ad2:	f244 4338 	movw	r3, #17464	; 0x4438
    2ad6:	f2c2 0300 	movt	r3, #8192	; 0x2000
    2ada:	781a      	ldrb	r2, [r3, #0]
    2adc:	0006      	movs	r6, r0
    2ade:	428a      	cmp	r2, r1
    2ae0:	d02d      	beq.n	2b3e <rt_object_find+0x6e>
    2ae2:	7c1a      	ldrb	r2, [r3, #16]
    2ae4:	428a      	cmp	r2, r1
    2ae6:	d02d      	beq.n	2b44 <rt_object_find+0x74>
    2ae8:	2220      	movs	r2, #32
    2aea:	5c9b      	ldrb	r3, [r3, r2]
    2aec:	428b      	cmp	r3, r1
    2aee:	d002      	beq.n	2af6 <rt_object_find+0x26>
    2af0:	2500      	movs	r5, #0
    2af2:	0028      	movs	r0, r5
    2af4:	bdf8      	pop	{r3, r4, r5, r6, r7, pc}
    2af6:	2724      	movs	r7, #36	; 0x24
    2af8:	2402      	movs	r4, #2
    2afa:	2e00      	cmp	r6, #0
    2afc:	d0f8      	beq.n	2af0 <rt_object_find+0x20>
    2afe:	f000 fd4d 	bl	359c <rt_enter_critical>
    2b02:	f244 4238 	movw	r2, #17464	; 0x4438
    2b06:	f2c2 0200 	movt	r2, #8192	; 0x2000
    2b0a:	4694      	mov	ip, r2
    2b0c:	0123      	lsls	r3, r4, #4
    2b0e:	4463      	add	r3, ip
    2b10:	685c      	ldr	r4, [r3, #4]
    2b12:	4467      	add	r7, ip
    2b14:	42bc      	cmp	r4, r7
    2b16:	d103      	bne.n	2b20 <rt_object_find+0x50>
    2b18:	e00e      	b.n	2b38 <rt_object_find+0x68>
    2b1a:	6824      	ldr	r4, [r4, #0]
    2b1c:	42bc      	cmp	r4, r7
    2b1e:	d00b      	beq.n	2b38 <rt_object_find+0x68>
    2b20:	0025      	movs	r5, r4
    2b22:	3d0c      	subs	r5, #12
    2b24:	2208      	movs	r2, #8
    2b26:	0031      	movs	r1, r6
    2b28:	0028      	movs	r0, r5
    2b2a:	f001 fb43 	bl	41b4 <rt_strncmp>
    2b2e:	2800      	cmp	r0, #0
    2b30:	d1f3      	bne.n	2b1a <rt_object_find+0x4a>
    2b32:	f000 fd41 	bl	35b8 <rt_exit_critical>
    2b36:	e7dc      	b.n	2af2 <rt_object_find+0x22>
    2b38:	f000 fd3e 	bl	35b8 <rt_exit_critical>
    2b3c:	e7d8      	b.n	2af0 <rt_object_find+0x20>
    2b3e:	2704      	movs	r7, #4
    2b40:	2400      	movs	r4, #0
    2b42:	e7da      	b.n	2afa <rt_object_find+0x2a>
    2b44:	2714      	movs	r7, #20
    2b46:	2401      	movs	r4, #1
    2b48:	e7d7      	b.n	2afa <rt_object_find+0x2a>
    2b4a:	46c0      	nop			; (mov r8, r8)

00002b4c <rt_interrupt_enter>:
    2b4c:	b510      	push	{r4, lr}
    2b4e:	f001 ff93 	bl	4a78 <rt_hw_interrupt_disable>
    2b52:	f644 3250 	movw	r2, #19280	; 0x4b50
    2b56:	f2c2 0200 	movt	r2, #8192	; 0x2000
    2b5a:	7813      	ldrb	r3, [r2, #0]
    2b5c:	3301      	adds	r3, #1
    2b5e:	b2db      	uxtb	r3, r3
    2b60:	7013      	strb	r3, [r2, #0]
    2b62:	f001 ff8d 	bl	4a80 <rt_hw_interrupt_enable>
    2b66:	bd10      	pop	{r4, pc}

00002b68 <rt_interrupt_leave>:
    2b68:	b510      	push	{r4, lr}
    2b6a:	f001 ff85 	bl	4a78 <rt_hw_interrupt_disable>
    2b6e:	f644 3250 	movw	r2, #19280	; 0x4b50
    2b72:	f2c2 0200 	movt	r2, #8192	; 0x2000
    2b76:	7813      	ldrb	r3, [r2, #0]
    2b78:	3b01      	subs	r3, #1
    2b7a:	b2db      	uxtb	r3, r3
    2b7c:	7013      	strb	r3, [r2, #0]
    2b7e:	f001 ff7f 	bl	4a80 <rt_hw_interrupt_enable>
    2b82:	bd10      	pop	{r4, pc}

00002b84 <rt_interrupt_get_nest>:
    2b84:	b510      	push	{r4, lr}
    2b86:	f001 ff77 	bl	4a78 <rt_hw_interrupt_disable>
    2b8a:	f644 3350 	movw	r3, #19280	; 0x4b50
    2b8e:	f2c2 0300 	movt	r3, #8192	; 0x2000
    2b92:	781c      	ldrb	r4, [r3, #0]
    2b94:	f001 ff74 	bl	4a80 <rt_hw_interrupt_enable>
    2b98:	b2e4      	uxtb	r4, r4
    2b9a:	0020      	movs	r0, r4
    2b9c:	bd10      	pop	{r4, pc}
    2b9e:	46c0      	nop			; (mov r8, r8)

00002ba0 <rt_thread_timeout>:
    2ba0:	2302      	movs	r3, #2
    2ba2:	425b      	negs	r3, r3
    2ba4:	6303      	str	r3, [r0, #48]	; 0x30
    2ba6:	0003      	movs	r3, r0
    2ba8:	b510      	push	{r4, lr}
    2baa:	6941      	ldr	r1, [r0, #20]
    2bac:	6982      	ldr	r2, [r0, #24]
    2bae:	3314      	adds	r3, #20
    2bb0:	604a      	str	r2, [r1, #4]
    2bb2:	6011      	str	r1, [r2, #0]
    2bb4:	6183      	str	r3, [r0, #24]
    2bb6:	6143      	str	r3, [r0, #20]
    2bb8:	f000 fcaa 	bl	3510 <rt_schedule_insert_thread>
    2bbc:	f000 fc78 	bl	34b0 <rt_schedule>
    2bc0:	bd10      	pop	{r4, pc}
    2bc2:	46c0      	nop			; (mov r8, r8)

00002bc4 <rt_thread_exit>:
    2bc4:	f644 33a8 	movw	r3, #19368	; 0x4ba8
    2bc8:	b570      	push	{r4, r5, r6, lr}
    2bca:	f2c2 0300 	movt	r3, #8192	; 0x2000
    2bce:	681c      	ldr	r4, [r3, #0]
    2bd0:	f001 ff52 	bl	4a78 <rt_hw_interrupt_disable>
    2bd4:	0005      	movs	r5, r0
    2bd6:	f001 ff4f 	bl	4a78 <rt_hw_interrupt_disable>
    2bda:	6f23      	ldr	r3, [r4, #112]	; 0x70
    2bdc:	0006      	movs	r6, r0
    2bde:	b10b      	cbz	r3, 2be4 <rt_thread_exit+0x20>
    2be0:	0020      	movs	r0, r4
    2be2:	4798      	blx	r3
    2be4:	0030      	movs	r0, r6
    2be6:	f001 ff4b 	bl	4a80 <rt_hw_interrupt_enable>
    2bea:	0020      	movs	r0, r4
    2bec:	f000 fcb4 	bl	3558 <rt_schedule_remove_thread>
    2bf0:	2334      	movs	r3, #52	; 0x34
    2bf2:	2204      	movs	r2, #4
    2bf4:	0020      	movs	r0, r4
    2bf6:	54e2      	strb	r2, [r4, r3]
    2bf8:	3044      	adds	r0, #68	; 0x44
    2bfa:	f000 fae1 	bl	31c0 <rt_timer_detach>
    2bfe:	0020      	movs	r0, r4
    2c00:	f7ff ff5e 	bl	2ac0 <rt_object_is_systemobject>
    2c04:	2801      	cmp	r0, #1
    2c06:	d010      	beq.n	2c2a <rt_thread_exit+0x66>
    2c08:	f644 33b0 	movw	r3, #19376	; 0x4bb0
    2c0c:	0022      	movs	r2, r4
    2c0e:	f2c2 0300 	movt	r3, #8192	; 0x2000
    2c12:	6819      	ldr	r1, [r3, #0]
    2c14:	3214      	adds	r2, #20
    2c16:	604a      	str	r2, [r1, #4]
    2c18:	601a      	str	r2, [r3, #0]
    2c1a:	6161      	str	r1, [r4, #20]
    2c1c:	61a3      	str	r3, [r4, #24]
    2c1e:	f000 fc47 	bl	34b0 <rt_schedule>
    2c22:	0028      	movs	r0, r5
    2c24:	f001 ff2c 	bl	4a80 <rt_hw_interrupt_enable>
    2c28:	bd70      	pop	{r4, r5, r6, pc}
    2c2a:	0020      	movs	r0, r4
    2c2c:	f7ff ff36 	bl	2a9c <rt_object_detach>
    2c30:	e7f5      	b.n	2c1e <rt_thread_exit+0x5a>
    2c32:	46c0      	nop			; (mov r8, r8)

00002c34 <rt_thread_init>:
    2c34:	b5f0      	push	{r4, r5, r6, r7, lr}
    2c36:	0004      	movs	r4, r0
    2c38:	b083      	sub	sp, #12
    2c3a:	0016      	movs	r6, r2
    2c3c:	001d      	movs	r5, r3
    2c3e:	000a      	movs	r2, r1
    2c40:	ab0a      	add	r3, sp, #40	; 0x28
    2c42:	2101      	movs	r1, #1
    2c44:	781f      	ldrb	r7, [r3, #0]
    2c46:	f7ff fed7 	bl	29f8 <rt_object_init>
    2c4a:	0023      	movs	r3, r4
    2c4c:	3314      	adds	r3, #20
    2c4e:	61a3      	str	r3, [r4, #24]
    2c50:	6163      	str	r3, [r4, #20]
    2c52:	9b08      	ldr	r3, [sp, #32]
    2c54:	2123      	movs	r1, #35	; 0x23
    2c56:	62a3      	str	r3, [r4, #40]	; 0x28
    2c58:	9b09      	ldr	r3, [sp, #36]	; 0x24
    2c5a:	9808      	ldr	r0, [sp, #32]
    2c5c:	001a      	movs	r2, r3
    2c5e:	62e3      	str	r3, [r4, #44]	; 0x2c
    2c60:	6226      	str	r6, [r4, #32]
    2c62:	6265      	str	r5, [r4, #36]	; 0x24
    2c64:	f001 f8ee 	bl	3e44 <rt_memset>
    2c68:	6aa1      	ldr	r1, [r4, #40]	; 0x28
    2c6a:	f642 33c5 	movw	r3, #11205	; 0x2bc5
    2c6e:	468c      	mov	ip, r1
    2c70:	6ae2      	ldr	r2, [r4, #44]	; 0x2c
    2c72:	6a61      	ldr	r1, [r4, #36]	; 0x24
    2c74:	3a04      	subs	r2, #4
    2c76:	4462      	add	r2, ip
    2c78:	6a20      	ldr	r0, [r4, #32]
    2c7a:	f2c0 0300 	movt	r3, #0
    2c7e:	f001 fe83 	bl	4988 <rt_hw_stack_init>
    2c82:	2336      	movs	r3, #54	; 0x36
    2c84:	9a0b      	ldr	r2, [sp, #44]	; 0x2c
    2c86:	61e0      	str	r0, [r4, #28]
    2c88:	54e7      	strb	r7, [r4, r3]
    2c8a:	3b01      	subs	r3, #1
    2c8c:	54e7      	strb	r7, [r4, r3]
    2c8e:	2300      	movs	r3, #0
    2c90:	63e2      	str	r2, [r4, #60]	; 0x3c
    2c92:	6422      	str	r2, [r4, #64]	; 0x40
    2c94:	2234      	movs	r2, #52	; 0x34
    2c96:	63a3      	str	r3, [r4, #56]	; 0x38
    2c98:	6323      	str	r3, [r4, #48]	; 0x30
    2c9a:	0020      	movs	r0, r4
    2c9c:	54a3      	strb	r3, [r4, r2]
    2c9e:	f642 32a1 	movw	r2, #11169	; 0x2ba1
    2ca2:	6723      	str	r3, [r4, #112]	; 0x70
    2ca4:	6763      	str	r3, [r4, #116]	; 0x74
    2ca6:	9301      	str	r3, [sp, #4]
    2ca8:	9300      	str	r3, [sp, #0]
    2caa:	0021      	movs	r1, r4
    2cac:	0023      	movs	r3, r4
    2cae:	f2c0 0200 	movt	r2, #0
    2cb2:	3044      	adds	r0, #68	; 0x44
    2cb4:	f000 fa66 	bl	3184 <rt_timer_init>
    2cb8:	2000      	movs	r0, #0
    2cba:	b003      	add	sp, #12
    2cbc:	bdf0      	pop	{r4, r5, r6, r7, pc}
    2cbe:	46c0      	nop			; (mov r8, r8)

00002cc0 <rt_thread_self>:
    2cc0:	f644 33a8 	movw	r3, #19368	; 0x4ba8
    2cc4:	f2c2 0300 	movt	r3, #8192	; 0x2000
    2cc8:	6818      	ldr	r0, [r3, #0]
    2cca:	4770      	bx	lr

00002ccc <rt_thread_startup>:
    2ccc:	2336      	movs	r3, #54	; 0x36
    2cce:	b570      	push	{r4, r5, r6, lr}
    2cd0:	5cc2      	ldrb	r2, [r0, r3]
    2cd2:	3b01      	subs	r3, #1
    2cd4:	54c2      	strb	r2, [r0, r3]
    2cd6:	3b34      	subs	r3, #52	; 0x34
    2cd8:	4093      	lsls	r3, r2
    2cda:	2202      	movs	r2, #2
    2cdc:	6383      	str	r3, [r0, #56]	; 0x38
    2cde:	2334      	movs	r3, #52	; 0x34
    2ce0:	0004      	movs	r4, r0
    2ce2:	54c2      	strb	r2, [r0, r3]
    2ce4:	f001 fec8 	bl	4a78 <rt_hw_interrupt_disable>
    2ce8:	0023      	movs	r3, r4
    2cea:	0005      	movs	r5, r0
    2cec:	0020      	movs	r0, r4
    2cee:	6961      	ldr	r1, [r4, #20]
    2cf0:	69a2      	ldr	r2, [r4, #24]
    2cf2:	3314      	adds	r3, #20
    2cf4:	604a      	str	r2, [r1, #4]
    2cf6:	3044      	adds	r0, #68	; 0x44
    2cf8:	6011      	str	r1, [r2, #0]
    2cfa:	61a3      	str	r3, [r4, #24]
    2cfc:	6163      	str	r3, [r4, #20]
    2cfe:	f000 fac1 	bl	3284 <rt_timer_stop>
    2d02:	0028      	movs	r0, r5
    2d04:	f001 febc 	bl	4a80 <rt_hw_interrupt_enable>
    2d08:	0020      	movs	r0, r4
    2d0a:	f000 fc01 	bl	3510 <rt_schedule_insert_thread>
    2d0e:	f644 33a8 	movw	r3, #19368	; 0x4ba8
    2d12:	f2c2 0300 	movt	r3, #8192	; 0x2000
    2d16:	681b      	ldr	r3, [r3, #0]
    2d18:	b10b      	cbz	r3, 2d1e <rt_thread_startup+0x52>
    2d1a:	f000 fbc9 	bl	34b0 <rt_schedule>
    2d1e:	2000      	movs	r0, #0
    2d20:	bd70      	pop	{r4, r5, r6, pc}
    2d22:	46c0      	nop			; (mov r8, r8)

00002d24 <rt_thread_detach>:
    2d24:	2334      	movs	r3, #52	; 0x34
    2d26:	b570      	push	{r4, r5, r6, lr}
    2d28:	5cc2      	ldrb	r2, [r0, r3]
    2d2a:	3b25      	subs	r3, #37	; 0x25
    2d2c:	0004      	movs	r4, r0
    2d2e:	4013      	ands	r3, r2
    2d30:	2b04      	cmp	r3, #4
    2d32:	d025      	beq.n	2d80 <rt_thread_detach+0x5c>
    2d34:	bb53      	cbnz	r3, 2d8c <rt_thread_detach+0x68>
    2d36:	f001 fe9f 	bl	4a78 <rt_hw_interrupt_disable>
    2d3a:	6f23      	ldr	r3, [r4, #112]	; 0x70
    2d3c:	0005      	movs	r5, r0
    2d3e:	b10b      	cbz	r3, 2d44 <rt_thread_detach+0x20>
    2d40:	0020      	movs	r0, r4
    2d42:	4798      	blx	r3
    2d44:	0028      	movs	r0, r5
    2d46:	f001 fe9b 	bl	4a80 <rt_hw_interrupt_enable>
    2d4a:	0020      	movs	r0, r4
    2d4c:	3044      	adds	r0, #68	; 0x44
    2d4e:	f000 fa37 	bl	31c0 <rt_timer_detach>
    2d52:	2334      	movs	r3, #52	; 0x34
    2d54:	2204      	movs	r2, #4
    2d56:	0020      	movs	r0, r4
    2d58:	54e2      	strb	r2, [r4, r3]
    2d5a:	f7ff feb1 	bl	2ac0 <rt_object_is_systemobject>
    2d5e:	2801      	cmp	r0, #1
    2d60:	d010      	beq.n	2d84 <rt_thread_detach+0x60>
    2d62:	f001 fe89 	bl	4a78 <rt_hw_interrupt_disable>
    2d66:	f644 33b0 	movw	r3, #19376	; 0x4bb0
    2d6a:	0022      	movs	r2, r4
    2d6c:	f2c2 0300 	movt	r3, #8192	; 0x2000
    2d70:	6819      	ldr	r1, [r3, #0]
    2d72:	3214      	adds	r2, #20
    2d74:	604a      	str	r2, [r1, #4]
    2d76:	6161      	str	r1, [r4, #20]
    2d78:	61a3      	str	r3, [r4, #24]
    2d7a:	601a      	str	r2, [r3, #0]
    2d7c:	f001 fe80 	bl	4a80 <rt_hw_interrupt_enable>
    2d80:	2000      	movs	r0, #0
    2d82:	bd70      	pop	{r4, r5, r6, pc}
    2d84:	0020      	movs	r0, r4
    2d86:	f7ff fe89 	bl	2a9c <rt_object_detach>
    2d8a:	e7f9      	b.n	2d80 <rt_thread_detach+0x5c>
    2d8c:	f000 fbe4 	bl	3558 <rt_schedule_remove_thread>
    2d90:	e7d1      	b.n	2d36 <rt_thread_detach+0x12>
    2d92:	46c0      	nop			; (mov r8, r8)

00002d94 <rt_thread_yield>:
    2d94:	b510      	push	{r4, lr}
    2d96:	f001 fe6f 	bl	4a78 <rt_hw_interrupt_disable>
    2d9a:	f644 33a8 	movw	r3, #19368	; 0x4ba8
    2d9e:	2234      	movs	r2, #52	; 0x34
    2da0:	f2c2 0300 	movt	r3, #8192	; 0x2000
    2da4:	681b      	ldr	r3, [r3, #0]
    2da6:	5c99      	ldrb	r1, [r3, r2]
    2da8:	3a25      	subs	r2, #37	; 0x25
    2daa:	400a      	ands	r2, r1
    2dac:	2a01      	cmp	r2, #1
    2dae:	d103      	bne.n	2db8 <rt_thread_yield+0x24>
    2db0:	6959      	ldr	r1, [r3, #20]
    2db2:	699a      	ldr	r2, [r3, #24]
    2db4:	4291      	cmp	r1, r2
    2db6:	d103      	bne.n	2dc0 <rt_thread_yield+0x2c>
    2db8:	f001 fe62 	bl	4a80 <rt_hw_interrupt_enable>
    2dbc:	2000      	movs	r0, #0
    2dbe:	bd10      	pop	{r4, pc}
    2dc0:	604a      	str	r2, [r1, #4]
    2dc2:	6011      	str	r1, [r2, #0]
    2dc4:	f644 3164 	movw	r1, #19300	; 0x4b64
    2dc8:	001c      	movs	r4, r3
    2dca:	2235      	movs	r2, #53	; 0x35
    2dcc:	f2c2 0100 	movt	r1, #8192	; 0x2000
    2dd0:	468c      	mov	ip, r1
    2dd2:	3414      	adds	r4, #20
    2dd4:	619c      	str	r4, [r3, #24]
    2dd6:	615c      	str	r4, [r3, #20]
    2dd8:	5c9a      	ldrb	r2, [r3, r2]
    2dda:	00d2      	lsls	r2, r2, #3
    2ddc:	4462      	add	r2, ip
    2dde:	6851      	ldr	r1, [r2, #4]
    2de0:	600c      	str	r4, [r1, #0]
    2de2:	6199      	str	r1, [r3, #24]
    2de4:	6054      	str	r4, [r2, #4]
    2de6:	615a      	str	r2, [r3, #20]
    2de8:	f001 fe4a 	bl	4a80 <rt_hw_interrupt_enable>
    2dec:	f000 fb60 	bl	34b0 <rt_schedule>
    2df0:	e7e4      	b.n	2dbc <rt_thread_yield+0x28>
    2df2:	46c0      	nop			; (mov r8, r8)

00002df4 <rt_thread_sleep>:
    2df4:	b5f0      	push	{r4, r5, r6, r7, lr}
    2df6:	46c6      	mov	lr, r8
    2df8:	f240 080f 	movw	r8, #15
    2dfc:	b500      	push	{lr}
    2dfe:	b082      	sub	sp, #8
    2e00:	9001      	str	r0, [sp, #4]
    2e02:	f001 fe39 	bl	4a78 <rt_hw_interrupt_disable>
    2e06:	f644 33a8 	movw	r3, #19368	; 0x4ba8
    2e0a:	2634      	movs	r6, #52	; 0x34
    2e0c:	4642      	mov	r2, r8
    2e0e:	f2c2 0300 	movt	r3, #8192	; 0x2000
    2e12:	681c      	ldr	r4, [r3, #0]
    2e14:	0005      	movs	r5, r0
    2e16:	5da3      	ldrb	r3, [r4, r6]
    2e18:	4013      	ands	r3, r2
    2e1a:	2b01      	cmp	r3, #1
    2e1c:	d12a      	bne.n	2e74 <rt_thread_sleep+0x80>
    2e1e:	f001 fe2b 	bl	4a78 <rt_hw_interrupt_disable>
    2e22:	0007      	movs	r7, r0
    2e24:	0020      	movs	r0, r4
    2e26:	f000 fb97 	bl	3558 <rt_schedule_remove_thread>
    2e2a:	4642      	mov	r2, r8
    2e2c:	5da3      	ldrb	r3, [r4, r6]
    2e2e:	4393      	bics	r3, r2
    2e30:	2202      	movs	r2, #2
    2e32:	4313      	orrs	r3, r2
    2e34:	55a3      	strb	r3, [r4, r6]
    2e36:	0026      	movs	r6, r4
    2e38:	3644      	adds	r6, #68	; 0x44
    2e3a:	0030      	movs	r0, r6
    2e3c:	f000 fa22 	bl	3284 <rt_timer_stop>
    2e40:	0038      	movs	r0, r7
    2e42:	f001 fe1d 	bl	4a80 <rt_hw_interrupt_enable>
    2e46:	2100      	movs	r1, #0
    2e48:	aa01      	add	r2, sp, #4
    2e4a:	0030      	movs	r0, r6
    2e4c:	f000 fa34 	bl	32b8 <rt_timer_control>
    2e50:	0030      	movs	r0, r6
    2e52:	f000 f9cd 	bl	31f0 <rt_timer_start>
    2e56:	0028      	movs	r0, r5
    2e58:	f001 fe12 	bl	4a80 <rt_hw_interrupt_enable>
    2e5c:	f000 fb28 	bl	34b0 <rt_schedule>
    2e60:	6b23      	ldr	r3, [r4, #48]	; 0x30
    2e62:	3302      	adds	r3, #2
    2e64:	d101      	bne.n	2e6a <rt_thread_sleep+0x76>
    2e66:	2300      	movs	r3, #0
    2e68:	6323      	str	r3, [r4, #48]	; 0x30
    2e6a:	2000      	movs	r0, #0
    2e6c:	b002      	add	sp, #8
    2e6e:	bc80      	pop	{r7}
    2e70:	46b8      	mov	r8, r7
    2e72:	bdf0      	pop	{r4, r5, r6, r7, pc}
    2e74:	0026      	movs	r6, r4
    2e76:	3644      	adds	r6, #68	; 0x44
    2e78:	e7e5      	b.n	2e46 <rt_thread_sleep+0x52>
    2e7a:	46c0      	nop			; (mov r8, r8)

00002e7c <rt_thread_delay>:
    2e7c:	b5f0      	push	{r4, r5, r6, r7, lr}
    2e7e:	46c6      	mov	lr, r8
    2e80:	f240 080f 	movw	r8, #15
    2e84:	b500      	push	{lr}
    2e86:	b082      	sub	sp, #8
    2e88:	9001      	str	r0, [sp, #4]
    2e8a:	f001 fdf5 	bl	4a78 <rt_hw_interrupt_disable>
    2e8e:	f644 33a8 	movw	r3, #19368	; 0x4ba8
    2e92:	2634      	movs	r6, #52	; 0x34
    2e94:	4642      	mov	r2, r8
    2e96:	f2c2 0300 	movt	r3, #8192	; 0x2000
    2e9a:	681c      	ldr	r4, [r3, #0]
    2e9c:	0005      	movs	r5, r0
    2e9e:	5da3      	ldrb	r3, [r4, r6]
    2ea0:	4013      	ands	r3, r2
    2ea2:	2b01      	cmp	r3, #1
    2ea4:	d12a      	bne.n	2efc <rt_thread_delay+0x80>
    2ea6:	f001 fde7 	bl	4a78 <rt_hw_interrupt_disable>
    2eaa:	0007      	movs	r7, r0
    2eac:	0020      	movs	r0, r4
    2eae:	f000 fb53 	bl	3558 <rt_schedule_remove_thread>
    2eb2:	4642      	mov	r2, r8
    2eb4:	5da3      	ldrb	r3, [r4, r6]
    2eb6:	4393      	bics	r3, r2
    2eb8:	2202      	movs	r2, #2
    2eba:	4313      	orrs	r3, r2
    2ebc:	55a3      	strb	r3, [r4, r6]
    2ebe:	0026      	movs	r6, r4
    2ec0:	3644      	adds	r6, #68	; 0x44
    2ec2:	0030      	movs	r0, r6
    2ec4:	f000 f9de 	bl	3284 <rt_timer_stop>
    2ec8:	0038      	movs	r0, r7
    2eca:	f001 fdd9 	bl	4a80 <rt_hw_interrupt_enable>
    2ece:	2100      	movs	r1, #0
    2ed0:	aa01      	add	r2, sp, #4
    2ed2:	0030      	movs	r0, r6
    2ed4:	f000 f9f0 	bl	32b8 <rt_timer_control>
    2ed8:	0030      	movs	r0, r6
    2eda:	f000 f989 	bl	31f0 <rt_timer_start>
    2ede:	0028      	movs	r0, r5
    2ee0:	f001 fdce 	bl	4a80 <rt_hw_interrupt_enable>
    2ee4:	f000 fae4 	bl	34b0 <rt_schedule>
    2ee8:	6b23      	ldr	r3, [r4, #48]	; 0x30
    2eea:	3302      	adds	r3, #2
    2eec:	d101      	bne.n	2ef2 <rt_thread_delay+0x76>
    2eee:	2300      	movs	r3, #0
    2ef0:	6323      	str	r3, [r4, #48]	; 0x30
    2ef2:	2000      	movs	r0, #0
    2ef4:	b002      	add	sp, #8
    2ef6:	bc80      	pop	{r7}
    2ef8:	46b8      	mov	r8, r7
    2efa:	bdf0      	pop	{r4, r5, r6, r7, pc}
    2efc:	0026      	movs	r6, r4
    2efe:	3644      	adds	r6, #68	; 0x44
    2f00:	e7e5      	b.n	2ece <rt_thread_delay+0x52>
    2f02:	46c0      	nop			; (mov r8, r8)

00002f04 <rt_thread_delay_until>:
    2f04:	b5f8      	push	{r3, r4, r5, r6, r7, lr}
    2f06:	46ce      	mov	lr, r9
    2f08:	4647      	mov	r7, r8
    2f0a:	f644 33a8 	movw	r3, #19368	; 0x4ba8
    2f0e:	b580      	push	{r7, lr}
    2f10:	f2c2 0300 	movt	r3, #8192	; 0x2000
    2f14:	681e      	ldr	r6, [r3, #0]
    2f16:	0004      	movs	r4, r0
    2f18:	000d      	movs	r5, r1
    2f1a:	f001 fdad 	bl	4a78 <rt_hw_interrupt_disable>
    2f1e:	0007      	movs	r7, r0
    2f20:	f000 fcb4 	bl	388c <rt_tick_get>
    2f24:	6823      	ldr	r3, [r4, #0]
    2f26:	1ac0      	subs	r0, r0, r3
    2f28:	42a8      	cmp	r0, r5
    2f2a:	d233      	bcs.n	2f94 <rt_thread_delay_until+0x90>
    2f2c:	195d      	adds	r5, r3, r5
    2f2e:	f000 fcad 	bl	388c <rt_tick_get>
    2f32:	f240 090f 	movw	r9, #15
    2f36:	1a28      	subs	r0, r5, r0
    2f38:	2534      	movs	r5, #52	; 0x34
    2f3a:	464a      	mov	r2, r9
    2f3c:	6020      	str	r0, [r4, #0]
    2f3e:	5d73      	ldrb	r3, [r6, r5]
    2f40:	4013      	ands	r3, r2
    2f42:	2b01      	cmp	r3, #1
    2f44:	d131      	bne.n	2faa <rt_thread_delay_until+0xa6>
    2f46:	f001 fd97 	bl	4a78 <rt_hw_interrupt_disable>
    2f4a:	4680      	mov	r8, r0
    2f4c:	0030      	movs	r0, r6
    2f4e:	f000 fb03 	bl	3558 <rt_schedule_remove_thread>
    2f52:	464a      	mov	r2, r9
    2f54:	5d73      	ldrb	r3, [r6, r5]
    2f56:	4393      	bics	r3, r2
    2f58:	2202      	movs	r2, #2
    2f5a:	4313      	orrs	r3, r2
    2f5c:	5573      	strb	r3, [r6, r5]
    2f5e:	0035      	movs	r5, r6
    2f60:	3544      	adds	r5, #68	; 0x44
    2f62:	0028      	movs	r0, r5
    2f64:	f000 f98e 	bl	3284 <rt_timer_stop>
    2f68:	4640      	mov	r0, r8
    2f6a:	f001 fd89 	bl	4a80 <rt_hw_interrupt_enable>
    2f6e:	0022      	movs	r2, r4
    2f70:	2100      	movs	r1, #0
    2f72:	0028      	movs	r0, r5
    2f74:	f000 f9a0 	bl	32b8 <rt_timer_control>
    2f78:	0028      	movs	r0, r5
    2f7a:	f000 f939 	bl	31f0 <rt_timer_start>
    2f7e:	0038      	movs	r0, r7
    2f80:	f001 fd7e 	bl	4a80 <rt_hw_interrupt_enable>
    2f84:	f000 fa94 	bl	34b0 <rt_schedule>
    2f88:	6b33      	ldr	r3, [r6, #48]	; 0x30
    2f8a:	3302      	adds	r3, #2
    2f8c:	d105      	bne.n	2f9a <rt_thread_delay_until+0x96>
    2f8e:	2300      	movs	r3, #0
    2f90:	6333      	str	r3, [r6, #48]	; 0x30
    2f92:	e002      	b.n	2f9a <rt_thread_delay_until+0x96>
    2f94:	0038      	movs	r0, r7
    2f96:	f001 fd73 	bl	4a80 <rt_hw_interrupt_enable>
    2f9a:	f000 fc77 	bl	388c <rt_tick_get>
    2f9e:	6020      	str	r0, [r4, #0]
    2fa0:	2000      	movs	r0, #0
    2fa2:	bcc0      	pop	{r6, r7}
    2fa4:	46b9      	mov	r9, r7
    2fa6:	46b0      	mov	r8, r6
    2fa8:	bdf8      	pop	{r3, r4, r5, r6, r7, pc}
    2faa:	0035      	movs	r5, r6
    2fac:	3544      	adds	r5, #68	; 0x44
    2fae:	e7de      	b.n	2f6e <rt_thread_delay_until+0x6a>

00002fb0 <rt_thread_mdelay>:
    2fb0:	b5f0      	push	{r4, r5, r6, r7, lr}
    2fb2:	46c6      	mov	lr, r8
    2fb4:	b500      	push	{lr}
    2fb6:	b082      	sub	sp, #8
    2fb8:	f000 fc90 	bl	38dc <rt_tick_from_millisecond>
    2fbc:	f240 080f 	movw	r8, #15
    2fc0:	9001      	str	r0, [sp, #4]
    2fc2:	f001 fd59 	bl	4a78 <rt_hw_interrupt_disable>
    2fc6:	f644 33a8 	movw	r3, #19368	; 0x4ba8
    2fca:	2634      	movs	r6, #52	; 0x34
    2fcc:	4642      	mov	r2, r8
    2fce:	f2c2 0300 	movt	r3, #8192	; 0x2000
    2fd2:	681c      	ldr	r4, [r3, #0]
    2fd4:	0005      	movs	r5, r0
    2fd6:	5da3      	ldrb	r3, [r4, r6]
    2fd8:	4013      	ands	r3, r2
    2fda:	2b01      	cmp	r3, #1
    2fdc:	d12a      	bne.n	3034 <rt_thread_mdelay+0x84>
    2fde:	f001 fd4b 	bl	4a78 <rt_hw_interrupt_disable>
    2fe2:	0007      	movs	r7, r0
    2fe4:	0020      	movs	r0, r4
    2fe6:	f000 fab7 	bl	3558 <rt_schedule_remove_thread>
    2fea:	4642      	mov	r2, r8
    2fec:	5da3      	ldrb	r3, [r4, r6]
    2fee:	4393      	bics	r3, r2
    2ff0:	2202      	movs	r2, #2
    2ff2:	4313      	orrs	r3, r2
    2ff4:	55a3      	strb	r3, [r4, r6]
    2ff6:	0026      	movs	r6, r4
    2ff8:	3644      	adds	r6, #68	; 0x44
    2ffa:	0030      	movs	r0, r6
    2ffc:	f000 f942 	bl	3284 <rt_timer_stop>
    3000:	0038      	movs	r0, r7
    3002:	f001 fd3d 	bl	4a80 <rt_hw_interrupt_enable>
    3006:	2100      	movs	r1, #0
    3008:	aa01      	add	r2, sp, #4
    300a:	0030      	movs	r0, r6
    300c:	f000 f954 	bl	32b8 <rt_timer_control>
    3010:	0030      	movs	r0, r6
    3012:	f000 f8ed 	bl	31f0 <rt_timer_start>
    3016:	0028      	movs	r0, r5
    3018:	f001 fd32 	bl	4a80 <rt_hw_interrupt_enable>
    301c:	f000 fa48 	bl	34b0 <rt_schedule>
    3020:	6b23      	ldr	r3, [r4, #48]	; 0x30
    3022:	3302      	adds	r3, #2
    3024:	d101      	bne.n	302a <rt_thread_mdelay+0x7a>
    3026:	2300      	movs	r3, #0
    3028:	6323      	str	r3, [r4, #48]	; 0x30
    302a:	2000      	movs	r0, #0
    302c:	b002      	add	sp, #8
    302e:	bc80      	pop	{r7}
    3030:	46b8      	mov	r8, r7
    3032:	bdf0      	pop	{r4, r5, r6, r7, pc}
    3034:	0026      	movs	r6, r4
    3036:	3644      	adds	r6, #68	; 0x44
    3038:	e7e5      	b.n	3006 <rt_thread_mdelay+0x56>
    303a:	46c0      	nop			; (mov r8, r8)

0000303c <rt_thread_control>:
    303c:	b5f8      	push	{r3, r4, r5, r6, r7, lr}
    303e:	0004      	movs	r4, r0
    3040:	0015      	movs	r5, r2
    3042:	2901      	cmp	r1, #1
    3044:	d041      	beq.n	30ca <rt_thread_control+0x8e>
    3046:	2902      	cmp	r1, #2
    3048:	d02b      	beq.n	30a2 <rt_thread_control+0x66>
    304a:	b109      	cbz	r1, 3050 <rt_thread_control+0x14>
    304c:	2000      	movs	r0, #0
    304e:	bdf8      	pop	{r3, r4, r5, r6, r7, pc}
    3050:	2336      	movs	r3, #54	; 0x36
    3052:	5cc2      	ldrb	r2, [r0, r3]
    3054:	3b01      	subs	r3, #1
    3056:	54c2      	strb	r2, [r0, r3]
    3058:	3b34      	subs	r3, #52	; 0x34
    305a:	4093      	lsls	r3, r2
    305c:	2202      	movs	r2, #2
    305e:	6383      	str	r3, [r0, #56]	; 0x38
    3060:	2334      	movs	r3, #52	; 0x34
    3062:	54c2      	strb	r2, [r0, r3]
    3064:	f001 fd08 	bl	4a78 <rt_hw_interrupt_disable>
    3068:	0023      	movs	r3, r4
    306a:	0005      	movs	r5, r0
    306c:	0020      	movs	r0, r4
    306e:	6961      	ldr	r1, [r4, #20]
    3070:	69a2      	ldr	r2, [r4, #24]
    3072:	3314      	adds	r3, #20
    3074:	604a      	str	r2, [r1, #4]
    3076:	3044      	adds	r0, #68	; 0x44
    3078:	6011      	str	r1, [r2, #0]
    307a:	61a3      	str	r3, [r4, #24]
    307c:	6163      	str	r3, [r4, #20]
    307e:	f000 f901 	bl	3284 <rt_timer_stop>
    3082:	0028      	movs	r0, r5
    3084:	f001 fcfc 	bl	4a80 <rt_hw_interrupt_enable>
    3088:	0020      	movs	r0, r4
    308a:	f000 fa41 	bl	3510 <rt_schedule_insert_thread>
    308e:	f644 33a8 	movw	r3, #19368	; 0x4ba8
    3092:	f2c2 0300 	movt	r3, #8192	; 0x2000
    3096:	681b      	ldr	r3, [r3, #0]
    3098:	2b00      	cmp	r3, #0
    309a:	d0d7      	beq.n	304c <rt_thread_control+0x10>
    309c:	f000 fa08 	bl	34b0 <rt_schedule>
    30a0:	e7d4      	b.n	304c <rt_thread_control+0x10>
    30a2:	f001 fce9 	bl	4a78 <rt_hw_interrupt_disable>
    30a6:	2334      	movs	r3, #52	; 0x34
    30a8:	260f      	movs	r6, #15
    30aa:	5ce3      	ldrb	r3, [r4, r3]
    30ac:	0007      	movs	r7, r0
    30ae:	401e      	ands	r6, r3
    30b0:	2e01      	cmp	r6, #1
    30b2:	d012      	beq.n	30da <rt_thread_control+0x9e>
    30b4:	2335      	movs	r3, #53	; 0x35
    30b6:	782a      	ldrb	r2, [r5, #0]
    30b8:	54e2      	strb	r2, [r4, r3]
    30ba:	3b34      	subs	r3, #52	; 0x34
    30bc:	4093      	lsls	r3, r2
    30be:	63a3      	str	r3, [r4, #56]	; 0x38
    30c0:	0038      	movs	r0, r7
    30c2:	f001 fcdd 	bl	4a80 <rt_hw_interrupt_enable>
    30c6:	2000      	movs	r0, #0
    30c8:	e7c1      	b.n	304e <rt_thread_control+0x12>
    30ca:	f7ff fcf9 	bl	2ac0 <rt_object_is_systemobject>
    30ce:	2801      	cmp	r0, #1
    30d0:	d1bc      	bne.n	304c <rt_thread_control+0x10>
    30d2:	0020      	movs	r0, r4
    30d4:	f7ff fe26 	bl	2d24 <rt_thread_detach>
    30d8:	e7b9      	b.n	304e <rt_thread_control+0x12>
    30da:	0020      	movs	r0, r4
    30dc:	f000 fa3c 	bl	3558 <rt_schedule_remove_thread>
    30e0:	782b      	ldrb	r3, [r5, #0]
    30e2:	2235      	movs	r2, #53	; 0x35
    30e4:	409e      	lsls	r6, r3
    30e6:	54a3      	strb	r3, [r4, r2]
    30e8:	0020      	movs	r0, r4
    30ea:	63a6      	str	r6, [r4, #56]	; 0x38
    30ec:	f000 fa10 	bl	3510 <rt_schedule_insert_thread>
    30f0:	e7e6      	b.n	30c0 <rt_thread_control+0x84>
    30f2:	46c0      	nop			; (mov r8, r8)

000030f4 <rt_thread_suspend>:
    30f4:	b5f8      	push	{r3, r4, r5, r6, r7, lr}
    30f6:	2534      	movs	r5, #52	; 0x34
    30f8:	270f      	movs	r7, #15
    30fa:	5d43      	ldrb	r3, [r0, r5]
    30fc:	0004      	movs	r4, r0
    30fe:	403b      	ands	r3, r7
    3100:	2b01      	cmp	r3, #1
    3102:	d113      	bne.n	312c <rt_thread_suspend+0x38>
    3104:	f001 fcb8 	bl	4a78 <rt_hw_interrupt_disable>
    3108:	0006      	movs	r6, r0
    310a:	0020      	movs	r0, r4
    310c:	f000 fa24 	bl	3558 <rt_schedule_remove_thread>
    3110:	2202      	movs	r2, #2
    3112:	0020      	movs	r0, r4
    3114:	5d63      	ldrb	r3, [r4, r5]
    3116:	3044      	adds	r0, #68	; 0x44
    3118:	43bb      	bics	r3, r7
    311a:	4313      	orrs	r3, r2
    311c:	5563      	strb	r3, [r4, r5]
    311e:	f000 f8b1 	bl	3284 <rt_timer_stop>
    3122:	0030      	movs	r0, r6
    3124:	f001 fcac 	bl	4a80 <rt_hw_interrupt_enable>
    3128:	2000      	movs	r0, #0
    312a:	bdf8      	pop	{r3, r4, r5, r6, r7, pc}
    312c:	2001      	movs	r0, #1
    312e:	4240      	negs	r0, r0
    3130:	e7fb      	b.n	312a <rt_thread_suspend+0x36>
    3132:	46c0      	nop			; (mov r8, r8)

00003134 <rt_thread_resume>:
    3134:	2334      	movs	r3, #52	; 0x34
    3136:	b570      	push	{r4, r5, r6, lr}
    3138:	5cc2      	ldrb	r2, [r0, r3]
    313a:	3b25      	subs	r3, #37	; 0x25
    313c:	0004      	movs	r4, r0
    313e:	4013      	ands	r3, r2
    3140:	2b02      	cmp	r3, #2
    3142:	d116      	bne.n	3172 <rt_thread_resume+0x3e>
    3144:	f001 fc98 	bl	4a78 <rt_hw_interrupt_disable>
    3148:	0023      	movs	r3, r4
    314a:	0005      	movs	r5, r0
    314c:	0020      	movs	r0, r4
    314e:	6961      	ldr	r1, [r4, #20]
    3150:	69a2      	ldr	r2, [r4, #24]
    3152:	3314      	adds	r3, #20
    3154:	604a      	str	r2, [r1, #4]
    3156:	3044      	adds	r0, #68	; 0x44
    3158:	6011      	str	r1, [r2, #0]
    315a:	61a3      	str	r3, [r4, #24]
    315c:	6163      	str	r3, [r4, #20]
    315e:	f000 f891 	bl	3284 <rt_timer_stop>
    3162:	0028      	movs	r0, r5
    3164:	f001 fc8c 	bl	4a80 <rt_hw_interrupt_enable>
    3168:	0020      	movs	r0, r4
    316a:	f000 f9d1 	bl	3510 <rt_schedule_insert_thread>
    316e:	2000      	movs	r0, #0
    3170:	bd70      	pop	{r4, r5, r6, pc}
    3172:	2001      	movs	r0, #1
    3174:	4240      	negs	r0, r0
    3176:	e7fb      	b.n	3170 <rt_thread_resume+0x3c>

00003178 <rt_thread_find>:
    3178:	b510      	push	{r4, lr}
    317a:	2101      	movs	r1, #1
    317c:	f7ff fca8 	bl	2ad0 <rt_object_find>
    3180:	bd10      	pop	{r4, pc}
    3182:	46c0      	nop			; (mov r8, r8)

00003184 <rt_timer_init>:
    3184:	b5f0      	push	{r4, r5, r6, r7, lr}
    3186:	46c6      	mov	lr, r8
    3188:	b500      	push	{lr}
    318a:	001d      	movs	r5, r3
    318c:	ab06      	add	r3, sp, #24
    318e:	0016      	movs	r6, r2
    3190:	cb04      	ldmia	r3!, {r2}
    3192:	0004      	movs	r4, r0
    3194:	4690      	mov	r8, r2
    3196:	000a      	movs	r2, r1
    3198:	210a      	movs	r1, #10
    319a:	781f      	ldrb	r7, [r3, #0]
    319c:	f7ff fc2c 	bl	29f8 <rt_object_init>
    31a0:	2301      	movs	r3, #1
    31a2:	439f      	bics	r7, r3
    31a4:	2300      	movs	r3, #0
    31a6:	62a3      	str	r3, [r4, #40]	; 0x28
    31a8:	4643      	mov	r3, r8
    31aa:	6263      	str	r3, [r4, #36]	; 0x24
    31ac:	0023      	movs	r3, r4
    31ae:	3314      	adds	r3, #20
    31b0:	7267      	strb	r7, [r4, #9]
    31b2:	61e6      	str	r6, [r4, #28]
    31b4:	6225      	str	r5, [r4, #32]
    31b6:	61a3      	str	r3, [r4, #24]
    31b8:	6163      	str	r3, [r4, #20]
    31ba:	bc80      	pop	{r7}
    31bc:	46b8      	mov	r8, r7
    31be:	bdf0      	pop	{r4, r5, r6, r7, pc}

000031c0 <rt_timer_detach>:
    31c0:	b510      	push	{r4, lr}
    31c2:	0004      	movs	r4, r0
    31c4:	f001 fc58 	bl	4a78 <rt_hw_interrupt_disable>
    31c8:	0023      	movs	r3, r4
    31ca:	6961      	ldr	r1, [r4, #20]
    31cc:	69a2      	ldr	r2, [r4, #24]
    31ce:	3314      	adds	r3, #20
    31d0:	604a      	str	r2, [r1, #4]
    31d2:	6011      	str	r1, [r2, #0]
    31d4:	2201      	movs	r2, #1
    31d6:	61a3      	str	r3, [r4, #24]
    31d8:	6163      	str	r3, [r4, #20]
    31da:	7a63      	ldrb	r3, [r4, #9]
    31dc:	4393      	bics	r3, r2
    31de:	7263      	strb	r3, [r4, #9]
    31e0:	f001 fc4e 	bl	4a80 <rt_hw_interrupt_enable>
    31e4:	0020      	movs	r0, r4
    31e6:	f7ff fc59 	bl	2a9c <rt_object_detach>
    31ea:	2000      	movs	r0, #0
    31ec:	bd10      	pop	{r4, pc}
    31ee:	46c0      	nop			; (mov r8, r8)

000031f0 <rt_timer_start>:
    31f0:	b5f8      	push	{r3, r4, r5, r6, r7, lr}
    31f2:	46ce      	mov	lr, r9
    31f4:	4647      	mov	r7, r8
    31f6:	0004      	movs	r4, r0
    31f8:	b580      	push	{r7, lr}
    31fa:	f001 fc3d 	bl	4a78 <rt_hw_interrupt_disable>
    31fe:	6962      	ldr	r2, [r4, #20]
    3200:	69a3      	ldr	r3, [r4, #24]
    3202:	0025      	movs	r5, r4
    3204:	6053      	str	r3, [r2, #4]
    3206:	601a      	str	r2, [r3, #0]
    3208:	2201      	movs	r2, #1
    320a:	7a63      	ldrb	r3, [r4, #9]
    320c:	3514      	adds	r5, #20
    320e:	4393      	bics	r3, r2
    3210:	7263      	strb	r3, [r4, #9]
    3212:	f644 3854 	movw	r8, #19284	; 0x4b54
    3216:	61a5      	str	r5, [r4, #24]
    3218:	6165      	str	r5, [r4, #20]
    321a:	4681      	mov	r9, r0
    321c:	f000 fb36 	bl	388c <rt_tick_get>
    3220:	6a63      	ldr	r3, [r4, #36]	; 0x24
    3222:	f2c2 0800 	movt	r8, #8192	; 0x2000
    3226:	18c1      	adds	r1, r0, r3
    3228:	4643      	mov	r3, r8
    322a:	685f      	ldr	r7, [r3, #4]
    322c:	62a1      	str	r1, [r4, #40]	; 0x28
    322e:	4547      	cmp	r7, r8
    3230:	d024      	beq.n	327c <rt_timer_start+0x8c>
    3232:	f64f 76fe 	movw	r6, #65534	; 0xfffe
    3236:	f6c7 76ff 	movt	r6, #32767	; 0x7fff
    323a:	0018      	movs	r0, r3
    323c:	681b      	ldr	r3, [r3, #0]
    323e:	695a      	ldr	r2, [r3, #20]
    3240:	4291      	cmp	r1, r2
    3242:	d002      	beq.n	324a <rt_timer_start+0x5a>
    3244:	1a52      	subs	r2, r2, r1
    3246:	42b2      	cmp	r2, r6
    3248:	d903      	bls.n	3252 <rt_timer_start+0x62>
    324a:	42bb      	cmp	r3, r7
    324c:	d1f5      	bne.n	323a <rt_timer_start+0x4a>
    324e:	0018      	movs	r0, r3
    3250:	681b      	ldr	r3, [r3, #0]
    3252:	4642      	mov	r2, r8
    3254:	4641      	mov	r1, r8
    3256:	6892      	ldr	r2, [r2, #8]
    3258:	605d      	str	r5, [r3, #4]
    325a:	3201      	adds	r2, #1
    325c:	608a      	str	r2, [r1, #8]
    325e:	2201      	movs	r2, #1
    3260:	6163      	str	r3, [r4, #20]
    3262:	6005      	str	r5, [r0, #0]
    3264:	7a63      	ldrb	r3, [r4, #9]
    3266:	61a0      	str	r0, [r4, #24]
    3268:	4313      	orrs	r3, r2
    326a:	4648      	mov	r0, r9
    326c:	7263      	strb	r3, [r4, #9]
    326e:	f001 fc07 	bl	4a80 <rt_hw_interrupt_enable>
    3272:	2000      	movs	r0, #0
    3274:	bcc0      	pop	{r6, r7}
    3276:	46b9      	mov	r9, r7
    3278:	46b0      	mov	r8, r6
    327a:	bdf8      	pop	{r3, r4, r5, r6, r7, pc}
    327c:	4640      	mov	r0, r8
    327e:	681b      	ldr	r3, [r3, #0]
    3280:	e7e7      	b.n	3252 <rt_timer_start+0x62>
    3282:	46c0      	nop			; (mov r8, r8)

00003284 <rt_timer_stop>:
    3284:	b570      	push	{r4, r5, r6, lr}
    3286:	2501      	movs	r5, #1
    3288:	7a43      	ldrb	r3, [r0, #9]
    328a:	0004      	movs	r4, r0
    328c:	421d      	tst	r5, r3
    328e:	d010      	beq.n	32b2 <rt_timer_stop+0x2e>
    3290:	f001 fbf2 	bl	4a78 <rt_hw_interrupt_disable>
    3294:	0023      	movs	r3, r4
    3296:	6961      	ldr	r1, [r4, #20]
    3298:	69a2      	ldr	r2, [r4, #24]
    329a:	3314      	adds	r3, #20
    329c:	604a      	str	r2, [r1, #4]
    329e:	6011      	str	r1, [r2, #0]
    32a0:	61a3      	str	r3, [r4, #24]
    32a2:	6163      	str	r3, [r4, #20]
    32a4:	7a63      	ldrb	r3, [r4, #9]
    32a6:	43ab      	bics	r3, r5
    32a8:	7263      	strb	r3, [r4, #9]
    32aa:	f001 fbe9 	bl	4a80 <rt_hw_interrupt_enable>
    32ae:	2000      	movs	r0, #0
    32b0:	bd70      	pop	{r4, r5, r6, pc}
    32b2:	2001      	movs	r0, #1
    32b4:	4240      	negs	r0, r0
    32b6:	e7fb      	b.n	32b0 <rt_timer_stop+0x2c>

000032b8 <rt_timer_control>:
    32b8:	b570      	push	{r4, r5, r6, lr}
    32ba:	000c      	movs	r4, r1
    32bc:	0005      	movs	r5, r0
    32be:	0016      	movs	r6, r2
    32c0:	f001 fbda 	bl	4a78 <rt_hw_interrupt_disable>
    32c4:	2c04      	cmp	r4, #4
    32c6:	d805      	bhi.n	32d4 <rt_timer_control+0x1c>
    32c8:	4b10      	ldr	r3, [pc, #64]	; (330c <rt_timer_control+0x54>)
    32ca:	00a4      	lsls	r4, r4, #2
    32cc:	591b      	ldr	r3, [r3, r4]
    32ce:	469f      	mov	pc, r3
    32d0:	6a6b      	ldr	r3, [r5, #36]	; 0x24
    32d2:	6033      	str	r3, [r6, #0]
    32d4:	f001 fbd4 	bl	4a80 <rt_hw_interrupt_enable>
    32d8:	2000      	movs	r0, #0
    32da:	bd70      	pop	{r4, r5, r6, pc}
    32dc:	2202      	movs	r2, #2
    32de:	7a6b      	ldrb	r3, [r5, #9]
    32e0:	4313      	orrs	r3, r2
    32e2:	726b      	strb	r3, [r5, #9]
    32e4:	e7f6      	b.n	32d4 <rt_timer_control+0x1c>
    32e6:	2301      	movs	r3, #1
    32e8:	0019      	movs	r1, r3
    32ea:	7a6a      	ldrb	r2, [r5, #9]
    32ec:	4011      	ands	r1, r2
    32ee:	4213      	tst	r3, r2
    32f0:	d009      	beq.n	3306 <rt_timer_control+0x4e>
    32f2:	6033      	str	r3, [r6, #0]
    32f4:	e7ee      	b.n	32d4 <rt_timer_control+0x1c>
    32f6:	6833      	ldr	r3, [r6, #0]
    32f8:	626b      	str	r3, [r5, #36]	; 0x24
    32fa:	e7eb      	b.n	32d4 <rt_timer_control+0x1c>
    32fc:	2202      	movs	r2, #2
    32fe:	7a6b      	ldrb	r3, [r5, #9]
    3300:	4393      	bics	r3, r2
    3302:	726b      	strb	r3, [r5, #9]
    3304:	e7e6      	b.n	32d4 <rt_timer_control+0x1c>
    3306:	6031      	str	r1, [r6, #0]
    3308:	e7e4      	b.n	32d4 <rt_timer_control+0x1c>
    330a:	46c0      	nop			; (mov r8, r8)
    330c:	00006030 	andeq	r6, r0, r0, lsr r0

00003310 <rt_timer_check>:
    3310:	b5f0      	push	{r4, r5, r6, r7, lr}
    3312:	46de      	mov	lr, fp
    3314:	4657      	mov	r7, sl
    3316:	464e      	mov	r6, r9
    3318:	4645      	mov	r5, r8
    331a:	b5e0      	push	{r5, r6, r7, lr}
    331c:	b085      	sub	sp, #20
    331e:	ae02      	add	r6, sp, #8
    3320:	f644 3854 	movw	r8, #19284	; 0x4b54
    3324:	6076      	str	r6, [r6, #4]
    3326:	9602      	str	r6, [sp, #8]
    3328:	f000 fab0 	bl	388c <rt_tick_get>
    332c:	f2c2 0800 	movt	r8, #8192	; 0x2000
    3330:	0007      	movs	r7, r0
    3332:	f001 fba1 	bl	4a78 <rt_hw_interrupt_disable>
    3336:	4643      	mov	r3, r8
    3338:	681c      	ldr	r4, [r3, #0]
    333a:	9001      	str	r0, [sp, #4]
    333c:	4544      	cmp	r4, r8
    333e:	d04d      	beq.n	33dc <rt_timer_check+0xcc>
    3340:	0025      	movs	r5, r4
    3342:	696b      	ldr	r3, [r5, #20]
    3344:	3d14      	subs	r5, #20
    3346:	1aff      	subs	r7, r7, r3
    3348:	f64f 73fe 	movw	r3, #65534	; 0xfffe
    334c:	f6c7 73ff 	movt	r3, #32767	; 0x7fff
    3350:	429f      	cmp	r7, r3
    3352:	d843      	bhi.n	33dc <rt_timer_check+0xcc>
    3354:	f240 0902 	movw	r9, #2
    3358:	f240 0b01 	movw	fp, #1
    335c:	f240 0a03 	movw	sl, #3
    3360:	e00d      	b.n	337e <rt_timer_check+0x6e>
    3362:	4643      	mov	r3, r8
    3364:	681c      	ldr	r4, [r3, #0]
    3366:	4544      	cmp	r4, r8
    3368:	d038      	beq.n	33dc <rt_timer_check+0xcc>
    336a:	0025      	movs	r5, r4
    336c:	696b      	ldr	r3, [r5, #20]
    336e:	3d14      	subs	r5, #20
    3370:	1aff      	subs	r7, r7, r3
    3372:	f64f 73fe 	movw	r3, #65534	; 0xfffe
    3376:	f6c7 73ff 	movt	r3, #32767	; 0x7fff
    337a:	429f      	cmp	r7, r3
    337c:	d82e      	bhi.n	33dc <rt_timer_check+0xcc>
    337e:	696a      	ldr	r2, [r5, #20]
    3380:	69ab      	ldr	r3, [r5, #24]
    3382:	6053      	str	r3, [r2, #4]
    3384:	601a      	str	r2, [r3, #0]
    3386:	464a      	mov	r2, r9
    3388:	7a6b      	ldrb	r3, [r5, #9]
    338a:	616c      	str	r4, [r5, #20]
    338c:	421a      	tst	r2, r3
    338e:	d102      	bne.n	3396 <rt_timer_check+0x86>
    3390:	465a      	mov	r2, fp
    3392:	4393      	bics	r3, r2
    3394:	726b      	strb	r3, [r5, #9]
    3396:	6833      	ldr	r3, [r6, #0]
    3398:	6a28      	ldr	r0, [r5, #32]
    339a:	605c      	str	r4, [r3, #4]
    339c:	6023      	str	r3, [r4, #0]
    339e:	6066      	str	r6, [r4, #4]
    33a0:	69eb      	ldr	r3, [r5, #28]
    33a2:	6034      	str	r4, [r6, #0]
    33a4:	4798      	blx	r3
    33a6:	f000 fa71 	bl	388c <rt_tick_get>
    33aa:	6833      	ldr	r3, [r6, #0]
    33ac:	0007      	movs	r7, r0
    33ae:	42b3      	cmp	r3, r6
    33b0:	d0d7      	beq.n	3362 <rt_timer_check+0x52>
    33b2:	6822      	ldr	r2, [r4, #0]
    33b4:	6863      	ldr	r3, [r4, #4]
    33b6:	6053      	str	r3, [r2, #4]
    33b8:	601a      	str	r2, [r3, #0]
    33ba:	4652      	mov	r2, sl
    33bc:	6064      	str	r4, [r4, #4]
    33be:	6024      	str	r4, [r4, #0]
    33c0:	7a6b      	ldrb	r3, [r5, #9]
    33c2:	401a      	ands	r2, r3
    33c4:	2a03      	cmp	r2, #3
    33c6:	d1cc      	bne.n	3362 <rt_timer_check+0x52>
    33c8:	465a      	mov	r2, fp
    33ca:	4393      	bics	r3, r2
    33cc:	726b      	strb	r3, [r5, #9]
    33ce:	0028      	movs	r0, r5
    33d0:	f7ff ff0e 	bl	31f0 <rt_timer_start>
    33d4:	4643      	mov	r3, r8
    33d6:	681c      	ldr	r4, [r3, #0]
    33d8:	4544      	cmp	r4, r8
    33da:	d1c6      	bne.n	336a <rt_timer_check+0x5a>
    33dc:	9801      	ldr	r0, [sp, #4]
    33de:	f001 fb4f 	bl	4a80 <rt_hw_interrupt_enable>
    33e2:	b005      	add	sp, #20
    33e4:	bcf0      	pop	{r4, r5, r6, r7}
    33e6:	46bb      	mov	fp, r7
    33e8:	46b2      	mov	sl, r6
    33ea:	46a9      	mov	r9, r5
    33ec:	46a0      	mov	r8, r4
    33ee:	bdf0      	pop	{r4, r5, r6, r7, pc}

000033f0 <rt_timer_next_timeout_tick>:
    33f0:	b510      	push	{r4, lr}
    33f2:	f001 fb41 	bl	4a78 <rt_hw_interrupt_disable>
    33f6:	f644 3354 	movw	r3, #19284	; 0x4b54
    33fa:	f2c2 0300 	movt	r3, #8192	; 0x2000
    33fe:	681a      	ldr	r2, [r3, #0]
    3400:	429a      	cmp	r2, r3
    3402:	d004      	beq.n	340e <rt_timer_next_timeout_tick+0x1e>
    3404:	6954      	ldr	r4, [r2, #20]
    3406:	f001 fb3b 	bl	4a80 <rt_hw_interrupt_enable>
    340a:	0020      	movs	r0, r4
    340c:	bd10      	pop	{r4, pc}
    340e:	2401      	movs	r4, #1
    3410:	4264      	negs	r4, r4
    3412:	e7f8      	b.n	3406 <rt_timer_next_timeout_tick+0x16>

00003414 <rt_system_timer_init>:
    3414:	f644 3354 	movw	r3, #19284	; 0x4b54
    3418:	f2c2 0300 	movt	r3, #8192	; 0x2000
    341c:	605b      	str	r3, [r3, #4]
    341e:	601b      	str	r3, [r3, #0]
    3420:	4770      	bx	lr
    3422:	46c0      	nop			; (mov r8, r8)

00003424 <rt_system_timer_thread_init>:
    3424:	4770      	bx	lr
    3426:	46c0      	nop			; (mov r8, r8)

00003428 <rt_system_scheduler_init>:
    3428:	f644 3360 	movw	r3, #19296	; 0x4b60
    342c:	f2c2 0300 	movt	r3, #8192	; 0x2000
    3430:	1d19      	adds	r1, r3, #4
    3432:	6099      	str	r1, [r3, #8]
    3434:	6059      	str	r1, [r3, #4]
    3436:	0019      	movs	r1, r3
    3438:	310c      	adds	r1, #12
    343a:	6119      	str	r1, [r3, #16]
    343c:	60d9      	str	r1, [r3, #12]
    343e:	0019      	movs	r1, r3
    3440:	3114      	adds	r1, #20
    3442:	6199      	str	r1, [r3, #24]
    3444:	6159      	str	r1, [r3, #20]
    3446:	0019      	movs	r1, r3
    3448:	311c      	adds	r1, #28
    344a:	6219      	str	r1, [r3, #32]
    344c:	61d9      	str	r1, [r3, #28]
    344e:	0019      	movs	r1, r3
    3450:	3124      	adds	r1, #36	; 0x24
    3452:	6299      	str	r1, [r3, #40]	; 0x28
    3454:	6259      	str	r1, [r3, #36]	; 0x24
    3456:	0019      	movs	r1, r3
    3458:	312c      	adds	r1, #44	; 0x2c
    345a:	6319      	str	r1, [r3, #48]	; 0x30
    345c:	62d9      	str	r1, [r3, #44]	; 0x2c
    345e:	0019      	movs	r1, r3
    3460:	3134      	adds	r1, #52	; 0x34
    3462:	2200      	movs	r2, #0
    3464:	6399      	str	r1, [r3, #56]	; 0x38
    3466:	6359      	str	r1, [r3, #52]	; 0x34
    3468:	0019      	movs	r1, r3
    346a:	801a      	strh	r2, [r3, #0]
    346c:	313c      	adds	r1, #60	; 0x3c
    346e:	649a      	str	r2, [r3, #72]	; 0x48
    3470:	64da      	str	r2, [r3, #76]	; 0x4c
    3472:	001a      	movs	r2, r3
    3474:	2007      	movs	r0, #7
    3476:	6419      	str	r1, [r3, #64]	; 0x40
    3478:	63d9      	str	r1, [r3, #60]	; 0x3c
    347a:	2144      	movs	r1, #68	; 0x44
    347c:	3250      	adds	r2, #80	; 0x50
    347e:	5458      	strb	r0, [r3, r1]
    3480:	655a      	str	r2, [r3, #84]	; 0x54
    3482:	651a      	str	r2, [r3, #80]	; 0x50
    3484:	4770      	bx	lr
    3486:	46c0      	nop			; (mov r8, r8)

00003488 <rt_system_scheduler_start>:
    3488:	b510      	push	{r4, lr}
    348a:	f644 3460 	movw	r4, #19296	; 0x4b60
    348e:	f2c2 0400 	movt	r4, #8192	; 0x2000
    3492:	6ce0      	ldr	r0, [r4, #76]	; 0x4c
    3494:	f001 f970 	bl	4778 <__rt_ffs>
    3498:	46a4      	mov	ip, r4
    349a:	3801      	subs	r0, #1
    349c:	00c0      	lsls	r0, r0, #3
    349e:	4460      	add	r0, ip
    34a0:	6840      	ldr	r0, [r0, #4]
    34a2:	0003      	movs	r3, r0
    34a4:	3008      	adds	r0, #8
    34a6:	3b14      	subs	r3, #20
    34a8:	64a3      	str	r3, [r4, #72]	; 0x48
    34aa:	f001 fb24 	bl	4af6 <rt_hw_context_switch_to>
    34ae:	bd10      	pop	{r4, pc}

000034b0 <rt_schedule>:
    34b0:	b570      	push	{r4, r5, r6, lr}
    34b2:	f644 3460 	movw	r4, #19296	; 0x4b60
    34b6:	f001 fadf 	bl	4a78 <rt_hw_interrupt_disable>
    34ba:	f2c2 0400 	movt	r4, #8192	; 0x2000
    34be:	2200      	movs	r2, #0
    34c0:	5ea3      	ldrsh	r3, [r4, r2]
    34c2:	0005      	movs	r5, r0
    34c4:	b9d3      	cbnz	r3, 34fc <rt_schedule+0x4c>
    34c6:	6ce0      	ldr	r0, [r4, #76]	; 0x4c
    34c8:	f001 f956 	bl	4778 <__rt_ffs>
    34cc:	46a4      	mov	ip, r4
    34ce:	3801      	subs	r0, #1
    34d0:	00c3      	lsls	r3, r0, #3
    34d2:	4463      	add	r3, ip
    34d4:	6859      	ldr	r1, [r3, #4]
    34d6:	6ca3      	ldr	r3, [r4, #72]	; 0x48
    34d8:	000a      	movs	r2, r1
    34da:	3a14      	subs	r2, #20
    34dc:	4293      	cmp	r3, r2
    34de:	d00d      	beq.n	34fc <rt_schedule+0x4c>
    34e0:	64a2      	str	r2, [r4, #72]	; 0x48
    34e2:	f644 3250 	movw	r2, #19280	; 0x4b50
    34e6:	2644      	movs	r6, #68	; 0x44
    34e8:	f2c2 0200 	movt	r2, #8192	; 0x2000
    34ec:	7812      	ldrb	r2, [r2, #0]
    34ee:	331c      	adds	r3, #28
    34f0:	55a0      	strb	r0, [r4, r6]
    34f2:	3108      	adds	r1, #8
    34f4:	0018      	movs	r0, r3
    34f6:	b12a      	cbz	r2, 3504 <rt_schedule+0x54>
    34f8:	f001 fac5 	bl	4a86 <rt_hw_context_switch>
    34fc:	0028      	movs	r0, r5
    34fe:	f001 fabf 	bl	4a80 <rt_hw_interrupt_enable>
    3502:	bd70      	pop	{r4, r5, r6, pc}
    3504:	f001 fabf 	bl	4a86 <rt_hw_context_switch>
    3508:	0028      	movs	r0, r5
    350a:	f001 fab9 	bl	4a80 <rt_hw_interrupt_enable>
    350e:	e7f8      	b.n	3502 <rt_schedule+0x52>

00003510 <rt_schedule_insert_thread>:
    3510:	b570      	push	{r4, r5, r6, lr}
    3512:	0004      	movs	r4, r0
    3514:	f001 fab0 	bl	4a78 <rt_hw_interrupt_disable>
    3518:	2234      	movs	r2, #52	; 0x34
    351a:	210f      	movs	r1, #15
    351c:	5ca3      	ldrb	r3, [r4, r2]
    351e:	0025      	movs	r5, r4
    3520:	438b      	bics	r3, r1
    3522:	2101      	movs	r1, #1
    3524:	430b      	orrs	r3, r1
    3526:	54a3      	strb	r3, [r4, r2]
    3528:	2335      	movs	r3, #53	; 0x35
    352a:	5ce2      	ldrb	r2, [r4, r3]
    352c:	f644 3360 	movw	r3, #19296	; 0x4b60
    3530:	00d2      	lsls	r2, r2, #3
    3532:	f2c2 0300 	movt	r3, #8192	; 0x2000
    3536:	18d1      	adds	r1, r2, r3
    3538:	688e      	ldr	r6, [r1, #8]
    353a:	3514      	adds	r5, #20
    353c:	6035      	str	r5, [r6, #0]
    353e:	61a6      	str	r6, [r4, #24]
    3540:	608d      	str	r5, [r1, #8]
    3542:	1d19      	adds	r1, r3, #4
    3544:	188a      	adds	r2, r1, r2
    3546:	6162      	str	r2, [r4, #20]
    3548:	6cd9      	ldr	r1, [r3, #76]	; 0x4c
    354a:	6ba2      	ldr	r2, [r4, #56]	; 0x38
    354c:	430a      	orrs	r2, r1
    354e:	64da      	str	r2, [r3, #76]	; 0x4c
    3550:	f001 fa96 	bl	4a80 <rt_hw_interrupt_enable>
    3554:	bd70      	pop	{r4, r5, r6, pc}
    3556:	46c0      	nop			; (mov r8, r8)

00003558 <rt_schedule_remove_thread>:
    3558:	b570      	push	{r4, r5, r6, lr}
    355a:	0004      	movs	r4, r0
    355c:	f001 fa8c 	bl	4a78 <rt_hw_interrupt_disable>
    3560:	0023      	movs	r3, r4
    3562:	6961      	ldr	r1, [r4, #20]
    3564:	69a2      	ldr	r2, [r4, #24]
    3566:	3314      	adds	r3, #20
    3568:	604a      	str	r2, [r1, #4]
    356a:	6011      	str	r1, [r2, #0]
    356c:	f644 3260 	movw	r2, #19296	; 0x4b60
    3570:	61a3      	str	r3, [r4, #24]
    3572:	6163      	str	r3, [r4, #20]
    3574:	2335      	movs	r3, #53	; 0x35
    3576:	f2c2 0200 	movt	r2, #8192	; 0x2000
    357a:	4694      	mov	ip, r2
    357c:	5ce3      	ldrb	r3, [r4, r3]
    357e:	1d11      	adds	r1, r2, #4
    3580:	00db      	lsls	r3, r3, #3
    3582:	18c9      	adds	r1, r1, r3
    3584:	4463      	add	r3, ip
    3586:	685b      	ldr	r3, [r3, #4]
    3588:	428b      	cmp	r3, r1
    358a:	d002      	beq.n	3592 <rt_schedule_remove_thread+0x3a>
    358c:	f001 fa78 	bl	4a80 <rt_hw_interrupt_enable>
    3590:	bd70      	pop	{r4, r5, r6, pc}
    3592:	6cd1      	ldr	r1, [r2, #76]	; 0x4c
    3594:	6ba3      	ldr	r3, [r4, #56]	; 0x38
    3596:	4399      	bics	r1, r3
    3598:	64d1      	str	r1, [r2, #76]	; 0x4c
    359a:	e7f7      	b.n	358c <rt_schedule_remove_thread+0x34>

0000359c <rt_enter_critical>:
    359c:	b510      	push	{r4, lr}
    359e:	f001 fa6b 	bl	4a78 <rt_hw_interrupt_disable>
    35a2:	f644 3360 	movw	r3, #19296	; 0x4b60
    35a6:	f2c2 0300 	movt	r3, #8192	; 0x2000
    35aa:	881a      	ldrh	r2, [r3, #0]
    35ac:	3201      	adds	r2, #1
    35ae:	801a      	strh	r2, [r3, #0]
    35b0:	f001 fa66 	bl	4a80 <rt_hw_interrupt_enable>
    35b4:	bd10      	pop	{r4, pc}
    35b6:	46c0      	nop			; (mov r8, r8)

000035b8 <rt_exit_critical>:
    35b8:	b510      	push	{r4, lr}
    35ba:	f644 3460 	movw	r4, #19296	; 0x4b60
    35be:	f2c2 0400 	movt	r4, #8192	; 0x2000
    35c2:	f001 fa59 	bl	4a78 <rt_hw_interrupt_disable>
    35c6:	8823      	ldrh	r3, [r4, #0]
    35c8:	3b01      	subs	r3, #1
    35ca:	b21b      	sxth	r3, r3
    35cc:	8023      	strh	r3, [r4, #0]
    35ce:	2b00      	cmp	r3, #0
    35d0:	dd02      	ble.n	35d8 <rt_exit_critical+0x20>
    35d2:	f001 fa55 	bl	4a80 <rt_hw_interrupt_enable>
    35d6:	bd10      	pop	{r4, pc}
    35d8:	2300      	movs	r3, #0
    35da:	8023      	strh	r3, [r4, #0]
    35dc:	f001 fa50 	bl	4a80 <rt_hw_interrupt_enable>
    35e0:	6ca3      	ldr	r3, [r4, #72]	; 0x48
    35e2:	2b00      	cmp	r3, #0
    35e4:	d0f7      	beq.n	35d6 <rt_exit_critical+0x1e>
    35e6:	f7ff ff63 	bl	34b0 <rt_schedule>
    35ea:	e7f4      	b.n	35d6 <rt_exit_critical+0x1e>

000035ec <rt_critical_level>:
    35ec:	f644 3360 	movw	r3, #19296	; 0x4b60
    35f0:	f2c2 0300 	movt	r3, #8192	; 0x2000
    35f4:	8818      	ldrh	r0, [r3, #0]
    35f6:	4770      	bx	lr

000035f8 <rt_sem_init>:
    35f8:	b570      	push	{r4, r5, r6, lr}
    35fa:	0004      	movs	r4, r0
    35fc:	0016      	movs	r6, r2
    35fe:	000a      	movs	r2, r1
    3600:	2102      	movs	r1, #2
    3602:	001d      	movs	r5, r3
    3604:	f7ff f9f8 	bl	29f8 <rt_object_init>
    3608:	0023      	movs	r3, r4
    360a:	3314      	adds	r3, #20
    360c:	2000      	movs	r0, #0
    360e:	83a6      	strh	r6, [r4, #28]
    3610:	7265      	strb	r5, [r4, #9]
    3612:	61a3      	str	r3, [r4, #24]
    3614:	6163      	str	r3, [r4, #20]
    3616:	bd70      	pop	{r4, r5, r6, pc}

00003618 <rt_sem_detach>:
    3618:	b5f8      	push	{r3, r4, r5, r6, r7, lr}
    361a:	0006      	movs	r6, r0
    361c:	6943      	ldr	r3, [r0, #20]
    361e:	3614      	adds	r6, #20
    3620:	0005      	movs	r5, r0
    3622:	429e      	cmp	r6, r3
    3624:	d00f      	beq.n	3646 <rt_sem_detach+0x2e>
    3626:	2701      	movs	r7, #1
    3628:	427f      	negs	r7, r7
    362a:	f001 fa25 	bl	4a78 <rt_hw_interrupt_disable>
    362e:	0004      	movs	r4, r0
    3630:	6968      	ldr	r0, [r5, #20]
    3632:	3814      	subs	r0, #20
    3634:	6307      	str	r7, [r0, #48]	; 0x30
    3636:	f7ff fd7d 	bl	3134 <rt_thread_resume>
    363a:	0020      	movs	r0, r4
    363c:	f001 fa20 	bl	4a80 <rt_hw_interrupt_enable>
    3640:	696b      	ldr	r3, [r5, #20]
    3642:	429e      	cmp	r6, r3
    3644:	d1f1      	bne.n	362a <rt_sem_detach+0x12>
    3646:	0028      	movs	r0, r5
    3648:	f7ff fa28 	bl	2a9c <rt_object_detach>
    364c:	2000      	movs	r0, #0
    364e:	bdf8      	pop	{r3, r4, r5, r6, r7, pc}

00003650 <rt_sem_take>:
    3650:	b5f0      	push	{r4, r5, r6, r7, lr}
    3652:	46c6      	mov	lr, r8
    3654:	b500      	push	{lr}
    3656:	0004      	movs	r4, r0
    3658:	b082      	sub	sp, #8
    365a:	9101      	str	r1, [sp, #4]
    365c:	f001 fa0c 	bl	4a78 <rt_hw_interrupt_disable>
    3660:	8ba7      	ldrh	r7, [r4, #28]
    3662:	0006      	movs	r6, r0
    3664:	2f00      	cmp	r7, #0
    3666:	d14a      	bne.n	36fe <rt_sem_take+0xae>
    3668:	9b01      	ldr	r3, [sp, #4]
    366a:	2b00      	cmp	r3, #0
    366c:	d04d      	beq.n	370a <rt_sem_take+0xba>
    366e:	f7ff fb27 	bl	2cc0 <rt_thread_self>
    3672:	6307      	str	r7, [r0, #48]	; 0x30
    3674:	7a63      	ldrb	r3, [r4, #9]
    3676:	0005      	movs	r5, r0
    3678:	4698      	mov	r8, r3
    367a:	0027      	movs	r7, r4
    367c:	f7ff fd3a 	bl	30f4 <rt_thread_suspend>
    3680:	4643      	mov	r3, r8
    3682:	3714      	adds	r7, #20
    3684:	2b00      	cmp	r3, #0
    3686:	d02f      	beq.n	36e8 <rt_sem_take+0x98>
    3688:	2b01      	cmp	r3, #1
    368a:	d115      	bne.n	36b8 <rt_sem_take+0x68>
    368c:	6963      	ldr	r3, [r4, #20]
    368e:	429f      	cmp	r7, r3
    3690:	d02a      	beq.n	36e8 <rt_sem_take+0x98>
    3692:	2235      	movs	r2, #53	; 0x35
    3694:	2135      	movs	r1, #53	; 0x35
    3696:	5ca8      	ldrb	r0, [r5, r2]
    3698:	e002      	b.n	36a0 <rt_sem_take+0x50>
    369a:	681b      	ldr	r3, [r3, #0]
    369c:	429f      	cmp	r7, r3
    369e:	d023      	beq.n	36e8 <rt_sem_take+0x98>
    36a0:	001a      	movs	r2, r3
    36a2:	3a14      	subs	r2, #20
    36a4:	5c52      	ldrb	r2, [r2, r1]
    36a6:	4282      	cmp	r2, r0
    36a8:	d9f7      	bls.n	369a <rt_sem_take+0x4a>
    36aa:	002a      	movs	r2, r5
    36ac:	6859      	ldr	r1, [r3, #4]
    36ae:	3214      	adds	r2, #20
    36b0:	600a      	str	r2, [r1, #0]
    36b2:	61a9      	str	r1, [r5, #24]
    36b4:	605a      	str	r2, [r3, #4]
    36b6:	616b      	str	r3, [r5, #20]
    36b8:	9b01      	ldr	r3, [sp, #4]
    36ba:	2b00      	cmp	r3, #0
    36bc:	dc09      	bgt.n	36d2 <rt_sem_take+0x82>
    36be:	0030      	movs	r0, r6
    36c0:	f001 f9de 	bl	4a80 <rt_hw_interrupt_enable>
    36c4:	f7ff fef4 	bl	34b0 <rt_schedule>
    36c8:	6b28      	ldr	r0, [r5, #48]	; 0x30
    36ca:	b002      	add	sp, #8
    36cc:	bc80      	pop	{r7}
    36ce:	46b8      	mov	r8, r7
    36d0:	bdf0      	pop	{r4, r5, r6, r7, pc}
    36d2:	002c      	movs	r4, r5
    36d4:	3444      	adds	r4, #68	; 0x44
    36d6:	2100      	movs	r1, #0
    36d8:	0020      	movs	r0, r4
    36da:	aa01      	add	r2, sp, #4
    36dc:	f7ff fdec 	bl	32b8 <rt_timer_control>
    36e0:	0020      	movs	r0, r4
    36e2:	f7ff fd85 	bl	31f0 <rt_timer_start>
    36e6:	e7ea      	b.n	36be <rt_sem_take+0x6e>
    36e8:	002b      	movs	r3, r5
    36ea:	69a2      	ldr	r2, [r4, #24]
    36ec:	3314      	adds	r3, #20
    36ee:	6013      	str	r3, [r2, #0]
    36f0:	61aa      	str	r2, [r5, #24]
    36f2:	61a3      	str	r3, [r4, #24]
    36f4:	9b01      	ldr	r3, [sp, #4]
    36f6:	616f      	str	r7, [r5, #20]
    36f8:	2b00      	cmp	r3, #0
    36fa:	dde0      	ble.n	36be <rt_sem_take+0x6e>
    36fc:	e7e9      	b.n	36d2 <rt_sem_take+0x82>
    36fe:	3f01      	subs	r7, #1
    3700:	83a7      	strh	r7, [r4, #28]
    3702:	f001 f9bd 	bl	4a80 <rt_hw_interrupt_enable>
    3706:	2000      	movs	r0, #0
    3708:	e7df      	b.n	36ca <rt_sem_take+0x7a>
    370a:	f001 f9b9 	bl	4a80 <rt_hw_interrupt_enable>
    370e:	2002      	movs	r0, #2
    3710:	4240      	negs	r0, r0
    3712:	e7da      	b.n	36ca <rt_sem_take+0x7a>

00003714 <rt_sem_trytake>:
    3714:	b5f0      	push	{r4, r5, r6, r7, lr}
    3716:	46c6      	mov	lr, r8
    3718:	2300      	movs	r3, #0
    371a:	b500      	push	{lr}
    371c:	0004      	movs	r4, r0
    371e:	b082      	sub	sp, #8
    3720:	9301      	str	r3, [sp, #4]
    3722:	f001 f9a9 	bl	4a78 <rt_hw_interrupt_disable>
    3726:	8ba7      	ldrh	r7, [r4, #28]
    3728:	0006      	movs	r6, r0
    372a:	2f00      	cmp	r7, #0
    372c:	d14a      	bne.n	37c4 <rt_sem_trytake+0xb0>
    372e:	9b01      	ldr	r3, [sp, #4]
    3730:	2b00      	cmp	r3, #0
    3732:	d04d      	beq.n	37d0 <rt_sem_trytake+0xbc>
    3734:	f7ff fac4 	bl	2cc0 <rt_thread_self>
    3738:	6307      	str	r7, [r0, #48]	; 0x30
    373a:	7a63      	ldrb	r3, [r4, #9]
    373c:	0005      	movs	r5, r0
    373e:	4698      	mov	r8, r3
    3740:	0027      	movs	r7, r4
    3742:	f7ff fcd7 	bl	30f4 <rt_thread_suspend>
    3746:	4643      	mov	r3, r8
    3748:	3714      	adds	r7, #20
    374a:	2b00      	cmp	r3, #0
    374c:	d02f      	beq.n	37ae <rt_sem_trytake+0x9a>
    374e:	2b01      	cmp	r3, #1
    3750:	d115      	bne.n	377e <rt_sem_trytake+0x6a>
    3752:	6963      	ldr	r3, [r4, #20]
    3754:	429f      	cmp	r7, r3
    3756:	d02a      	beq.n	37ae <rt_sem_trytake+0x9a>
    3758:	2235      	movs	r2, #53	; 0x35
    375a:	2135      	movs	r1, #53	; 0x35
    375c:	5ca8      	ldrb	r0, [r5, r2]
    375e:	e002      	b.n	3766 <rt_sem_trytake+0x52>
    3760:	681b      	ldr	r3, [r3, #0]
    3762:	429f      	cmp	r7, r3
    3764:	d023      	beq.n	37ae <rt_sem_trytake+0x9a>
    3766:	001a      	movs	r2, r3
    3768:	3a14      	subs	r2, #20
    376a:	5c52      	ldrb	r2, [r2, r1]
    376c:	4282      	cmp	r2, r0
    376e:	d9f7      	bls.n	3760 <rt_sem_trytake+0x4c>
    3770:	002a      	movs	r2, r5
    3772:	6859      	ldr	r1, [r3, #4]
    3774:	3214      	adds	r2, #20
    3776:	600a      	str	r2, [r1, #0]
    3778:	61a9      	str	r1, [r5, #24]
    377a:	605a      	str	r2, [r3, #4]
    377c:	616b      	str	r3, [r5, #20]
    377e:	9b01      	ldr	r3, [sp, #4]
    3780:	2b00      	cmp	r3, #0
    3782:	dc09      	bgt.n	3798 <rt_sem_trytake+0x84>
    3784:	0030      	movs	r0, r6
    3786:	f001 f97b 	bl	4a80 <rt_hw_interrupt_enable>
    378a:	f7ff fe91 	bl	34b0 <rt_schedule>
    378e:	6b28      	ldr	r0, [r5, #48]	; 0x30
    3790:	b002      	add	sp, #8
    3792:	bc80      	pop	{r7}
    3794:	46b8      	mov	r8, r7
    3796:	bdf0      	pop	{r4, r5, r6, r7, pc}
    3798:	002c      	movs	r4, r5
    379a:	3444      	adds	r4, #68	; 0x44
    379c:	2100      	movs	r1, #0
    379e:	0020      	movs	r0, r4
    37a0:	aa01      	add	r2, sp, #4
    37a2:	f7ff fd89 	bl	32b8 <rt_timer_control>
    37a6:	0020      	movs	r0, r4
    37a8:	f7ff fd22 	bl	31f0 <rt_timer_start>
    37ac:	e7ea      	b.n	3784 <rt_sem_trytake+0x70>
    37ae:	002b      	movs	r3, r5
    37b0:	69a2      	ldr	r2, [r4, #24]
    37b2:	3314      	adds	r3, #20
    37b4:	6013      	str	r3, [r2, #0]
    37b6:	61aa      	str	r2, [r5, #24]
    37b8:	61a3      	str	r3, [r4, #24]
    37ba:	9b01      	ldr	r3, [sp, #4]
    37bc:	616f      	str	r7, [r5, #20]
    37be:	2b00      	cmp	r3, #0
    37c0:	dde0      	ble.n	3784 <rt_sem_trytake+0x70>
    37c2:	e7e9      	b.n	3798 <rt_sem_trytake+0x84>
    37c4:	3f01      	subs	r7, #1
    37c6:	83a7      	strh	r7, [r4, #28]
    37c8:	f001 f95a 	bl	4a80 <rt_hw_interrupt_enable>
    37cc:	2000      	movs	r0, #0
    37ce:	e7df      	b.n	3790 <rt_sem_trytake+0x7c>
    37d0:	f001 f956 	bl	4a80 <rt_hw_interrupt_enable>
    37d4:	2002      	movs	r0, #2
    37d6:	4240      	negs	r0, r0
    37d8:	e7da      	b.n	3790 <rt_sem_trytake+0x7c>
    37da:	46c0      	nop			; (mov r8, r8)

000037dc <rt_sem_release>:
    37dc:	b570      	push	{r4, r5, r6, lr}
    37de:	0004      	movs	r4, r0
    37e0:	f001 f94a 	bl	4a78 <rt_hw_interrupt_disable>
    37e4:	0023      	movs	r3, r4
    37e6:	0005      	movs	r5, r0
    37e8:	6960      	ldr	r0, [r4, #20]
    37ea:	3314      	adds	r3, #20
    37ec:	4298      	cmp	r0, r3
    37ee:	d009      	beq.n	3804 <rt_sem_release+0x28>
    37f0:	3814      	subs	r0, #20
    37f2:	f7ff fc9f 	bl	3134 <rt_thread_resume>
    37f6:	0028      	movs	r0, r5
    37f8:	f001 f942 	bl	4a80 <rt_hw_interrupt_enable>
    37fc:	f7ff fe58 	bl	34b0 <rt_schedule>
    3800:	2000      	movs	r0, #0
    3802:	bd70      	pop	{r4, r5, r6, pc}
    3804:	f64f 72ff 	movw	r2, #65535	; 0xffff
    3808:	8ba3      	ldrh	r3, [r4, #28]
    380a:	4293      	cmp	r3, r2
    380c:	d006      	beq.n	381c <rt_sem_release+0x40>
    380e:	3301      	adds	r3, #1
    3810:	0028      	movs	r0, r5
    3812:	83a3      	strh	r3, [r4, #28]
    3814:	f001 f934 	bl	4a80 <rt_hw_interrupt_enable>
    3818:	2000      	movs	r0, #0
    381a:	e7f2      	b.n	3802 <rt_sem_release+0x26>
    381c:	0028      	movs	r0, r5
    381e:	f001 f92f 	bl	4a80 <rt_hw_interrupt_enable>
    3822:	2003      	movs	r0, #3
    3824:	4240      	negs	r0, r0
    3826:	e7ec      	b.n	3802 <rt_sem_release+0x26>

00003828 <rt_sem_control>:
    3828:	b5f8      	push	{r3, r4, r5, r6, r7, lr}
    382a:	4647      	mov	r7, r8
    382c:	46ce      	mov	lr, r9
    382e:	0005      	movs	r5, r0
    3830:	4690      	mov	r8, r2
    3832:	b580      	push	{r7, lr}
    3834:	2901      	cmp	r1, #1
    3836:	d123      	bne.n	3880 <rt_sem_control+0x58>
    3838:	002e      	movs	r6, r5
    383a:	f001 f91d 	bl	4a78 <rt_hw_interrupt_disable>
    383e:	696b      	ldr	r3, [r5, #20]
    3840:	3614      	adds	r6, #20
    3842:	4681      	mov	r9, r0
    3844:	429e      	cmp	r6, r3
    3846:	d00f      	beq.n	3868 <rt_sem_control+0x40>
    3848:	2701      	movs	r7, #1
    384a:	427f      	negs	r7, r7
    384c:	f001 f914 	bl	4a78 <rt_hw_interrupt_disable>
    3850:	0004      	movs	r4, r0
    3852:	6968      	ldr	r0, [r5, #20]
    3854:	3814      	subs	r0, #20
    3856:	6307      	str	r7, [r0, #48]	; 0x30
    3858:	f7ff fc6c 	bl	3134 <rt_thread_resume>
    385c:	0020      	movs	r0, r4
    385e:	f001 f90f 	bl	4a80 <rt_hw_interrupt_enable>
    3862:	696b      	ldr	r3, [r5, #20]
    3864:	429e      	cmp	r6, r3
    3866:	d1f1      	bne.n	384c <rt_sem_control+0x24>
    3868:	4643      	mov	r3, r8
    386a:	4648      	mov	r0, r9
    386c:	83ab      	strh	r3, [r5, #28]
    386e:	f001 f907 	bl	4a80 <rt_hw_interrupt_enable>
    3872:	f7ff fe1d 	bl	34b0 <rt_schedule>
    3876:	2000      	movs	r0, #0
    3878:	bcc0      	pop	{r6, r7}
    387a:	46b9      	mov	r9, r7
    387c:	46b0      	mov	r8, r6
    387e:	bdf8      	pop	{r3, r4, r5, r6, r7, pc}
    3880:	2001      	movs	r0, #1
    3882:	4240      	negs	r0, r0
    3884:	e7f8      	b.n	3878 <rt_sem_control+0x50>
    3886:	46c0      	nop			; (mov r8, r8)

00003888 <rt_system_tick_init>:
    3888:	4770      	bx	lr
    388a:	46c0      	nop			; (mov r8, r8)

0000388c <rt_tick_get>:
    388c:	f644 33b8 	movw	r3, #19384	; 0x4bb8
    3890:	f2c2 0300 	movt	r3, #8192	; 0x2000
    3894:	6818      	ldr	r0, [r3, #0]
    3896:	4770      	bx	lr

00003898 <rt_tick_set>:
    3898:	b510      	push	{r4, lr}
    389a:	0004      	movs	r4, r0
    389c:	f001 f8ec 	bl	4a78 <rt_hw_interrupt_disable>
    38a0:	f644 33b8 	movw	r3, #19384	; 0x4bb8
    38a4:	f2c2 0300 	movt	r3, #8192	; 0x2000
    38a8:	601c      	str	r4, [r3, #0]
    38aa:	f001 f8e9 	bl	4a80 <rt_hw_interrupt_enable>
    38ae:	bd10      	pop	{r4, pc}

000038b0 <rt_tick_increase>:
    38b0:	f644 33b8 	movw	r3, #19384	; 0x4bb8
    38b4:	f2c2 0300 	movt	r3, #8192	; 0x2000
    38b8:	681a      	ldr	r2, [r3, #0]
    38ba:	b510      	push	{r4, lr}
    38bc:	3201      	adds	r2, #1
    38be:	601a      	str	r2, [r3, #0]
    38c0:	f7ff f9fe 	bl	2cc0 <rt_thread_self>
    38c4:	6c03      	ldr	r3, [r0, #64]	; 0x40
    38c6:	3b01      	subs	r3, #1
    38c8:	6403      	str	r3, [r0, #64]	; 0x40
    38ca:	b113      	cbz	r3, 38d2 <rt_tick_increase+0x22>
    38cc:	f7ff fd20 	bl	3310 <rt_timer_check>
    38d0:	bd10      	pop	{r4, pc}
    38d2:	6bc3      	ldr	r3, [r0, #60]	; 0x3c
    38d4:	6403      	str	r3, [r0, #64]	; 0x40
    38d6:	f7ff fa5d 	bl	2d94 <rt_thread_yield>
    38da:	e7f7      	b.n	38cc <rt_tick_increase+0x1c>

000038dc <rt_tick_from_millisecond>:
    38dc:	4643      	mov	r3, r8
    38de:	b408      	push	{r3}
    38e0:	2800      	cmp	r0, #0
    38e2:	db17      	blt.n	3914 <rt_tick_from_millisecond+0x38>
    38e4:	f240 3ce8 	movw	ip, #1000	; 0x3e8
    38e8:	fb90 f2fc 	sdiv	r2, r0, ip
    38ec:	f240 38e7 	movw	r8, #999	; 0x3e7
    38f0:	0153      	lsls	r3, r2, #5
    38f2:	1a9b      	subs	r3, r3, r2
    38f4:	0099      	lsls	r1, r3, #2
    38f6:	1889      	adds	r1, r1, r2
    38f8:	00c9      	lsls	r1, r1, #3
    38fa:	1a42      	subs	r2, r0, r1
    38fc:	0153      	lsls	r3, r2, #5
    38fe:	1a9b      	subs	r3, r3, r2
    3900:	0098      	lsls	r0, r3, #2
    3902:	1880      	adds	r0, r0, r2
    3904:	00c0      	lsls	r0, r0, #3
    3906:	4440      	add	r0, r8
    3908:	fb90 f0fc 	sdiv	r0, r0, ip
    390c:	1840      	adds	r0, r0, r1
    390e:	bc08      	pop	{r3}
    3910:	4698      	mov	r8, r3
    3912:	4770      	bx	lr
    3914:	2001      	movs	r0, #1
    3916:	4240      	negs	r0, r0
    3918:	e7f9      	b.n	390e <rt_tick_from_millisecond+0x32>
    391a:	46c0      	nop			; (mov r8, r8)

0000391c <rt_thread_idle_entry>:
    391c:	e7fe      	b.n	391c <rt_thread_idle_entry>
    391e:	46c0      	nop			; (mov r8, r8)

00003920 <rt_thread_idle_excute>:
    3920:	4770      	bx	lr
    3922:	46c0      	nop			; (mov r8, r8)

00003924 <rt_thread_idle_init>:
    3924:	2320      	movs	r3, #32
    3926:	b510      	push	{r4, lr}
    3928:	b084      	sub	sp, #16
    392a:	9303      	str	r3, [sp, #12]
    392c:	3b19      	subs	r3, #25
    392e:	9302      	str	r3, [sp, #8]
    3930:	3379      	adds	r3, #121	; 0x79
    3932:	9301      	str	r3, [sp, #4]
    3934:	f644 34bc 	movw	r4, #19388	; 0x4bbc
    3938:	f644 4334 	movw	r3, #19508	; 0x4c34
    393c:	f643 121d 	movw	r2, #14621	; 0x391d
    3940:	f246 0144 	movw	r1, #24644	; 0x6044
    3944:	f2c2 0400 	movt	r4, #8192	; 0x2000
    3948:	f2c2 0300 	movt	r3, #8192	; 0x2000
    394c:	f2c0 0200 	movt	r2, #0
    3950:	f2c0 0100 	movt	r1, #0
    3954:	9300      	str	r3, [sp, #0]
    3956:	0020      	movs	r0, r4
    3958:	2300      	movs	r3, #0
    395a:	f7ff f96b 	bl	2c34 <rt_thread_init>
    395e:	0020      	movs	r0, r4
    3960:	f7ff f9b4 	bl	2ccc <rt_thread_startup>
    3964:	b004      	add	sp, #16
    3966:	bd10      	pop	{r4, pc}

00003968 <rt_thread_idle_gethandler>:
    3968:	f644 30bc 	movw	r0, #19388	; 0x4bbc
    396c:	f2c2 0000 	movt	r0, #8192	; 0x2000
    3970:	4770      	bx	lr
    3972:	46c0      	nop			; (mov r8, r8)

00003974 <print_number>:
    3974:	b5f0      	push	{r4, r5, r6, r7, lr}
    3976:	464e      	mov	r6, r9
    3978:	46de      	mov	lr, fp
    397a:	4657      	mov	r7, sl
    397c:	4645      	mov	r5, r8
    397e:	b5e0      	push	{r5, r6, r7, lr}
    3980:	b089      	sub	sp, #36	; 0x24
    3982:	9e14      	ldr	r6, [sp, #80]	; 0x50
    3984:	0674      	lsls	r4, r6, #25
    3986:	d500      	bpl.n	398a <print_number+0x16>
    3988:	e0cd      	b.n	3b26 <print_number+0x1b2>
    398a:	2510      	movs	r5, #16
    398c:	f246 1460 	movw	r4, #24928	; 0x6160
    3990:	002f      	movs	r7, r5
    3992:	f2c0 0400 	movt	r4, #0
    3996:	4037      	ands	r7, r6
    3998:	3414      	adds	r4, #20
    399a:	9701      	str	r7, [sp, #4]
    399c:	4235      	tst	r5, r6
    399e:	d100      	bne.n	39a2 <print_number+0x2e>
    39a0:	e0cc      	b.n	3b3c <print_number+0x1c8>
    39a2:	46bb      	mov	fp, r7
    39a4:	f240 0c20 	movw	ip, #32
    39a8:	3d0f      	subs	r5, #15
    39aa:	43ae      	bics	r6, r5
    39ac:	07b7      	lsls	r7, r6, #30
    39ae:	d400      	bmi.n	39b2 <print_number+0x3e>
    39b0:	e0cf      	b.n	3b52 <print_number+0x1de>
    39b2:	2a00      	cmp	r2, #0
    39b4:	da00      	bge.n	39b8 <print_number+0x44>
    39b6:	e132      	b.n	3c1e <print_number+0x2aa>
    39b8:	f240 082b 	movw	r8, #43	; 0x2b
    39bc:	0775      	lsls	r5, r6, #29
    39be:	d400      	bmi.n	39c2 <print_number+0x4e>
    39c0:	e1e2      	b.n	3d88 <print_number+0x414>
    39c2:	2a00      	cmp	r2, #0
    39c4:	d000      	beq.n	39c8 <print_number+0x54>
    39c6:	e0c9      	b.n	3b5c <print_number+0x1e8>
    39c8:	2330      	movs	r3, #48	; 0x30
    39ca:	ae04      	add	r6, sp, #16
    39cc:	7033      	strb	r3, [r6, #0]
    39ce:	3b2f      	subs	r3, #47	; 0x2f
    39d0:	9c13      	ldr	r4, [sp, #76]	; 0x4c
    39d2:	001f      	movs	r7, r3
    39d4:	42a3      	cmp	r3, r4
    39d6:	da00      	bge.n	39da <print_number+0x66>
    39d8:	0027      	movs	r7, r4
    39da:	465d      	mov	r5, fp
    39dc:	9c12      	ldr	r4, [sp, #72]	; 0x48
    39de:	1be4      	subs	r4, r4, r7
    39e0:	bb15      	cbnz	r5, 3a28 <print_number+0xb4>
    39e2:	4645      	mov	r5, r8
    39e4:	2d00      	cmp	r5, #0
    39e6:	d000      	beq.n	39ea <print_number+0x76>
    39e8:	e0f3      	b.n	3bd2 <print_number+0x25e>
    39ea:	1e65      	subs	r5, r4, #1
    39ec:	46aa      	mov	sl, r5
    39ee:	2c00      	cmp	r4, #0
    39f0:	dc00      	bgt.n	39f4 <print_number+0x80>
    39f2:	e1e9      	b.n	3dc8 <print_number+0x454>
    39f4:	1c45      	adds	r5, r0, #1
    39f6:	4455      	add	r5, sl
    39f8:	469b      	mov	fp, r3
    39fa:	0004      	movs	r4, r0
    39fc:	f240 0920 	movw	r9, #32
    3a00:	002b      	movs	r3, r5
    3a02:	42a1      	cmp	r1, r4
    3a04:	d901      	bls.n	3a0a <print_number+0x96>
    3a06:	464d      	mov	r5, r9
    3a08:	7025      	strb	r5, [r4, #0]
    3a0a:	3401      	adds	r4, #1
    3a0c:	1b1d      	subs	r5, r3, r4
    3a0e:	2d00      	cmp	r5, #0
    3a10:	dcf7      	bgt.n	3a02 <print_number+0x8e>
    3a12:	4654      	mov	r4, sl
    3a14:	43e4      	mvns	r4, r4
    3a16:	4655      	mov	r5, sl
    3a18:	17e4      	asrs	r4, r4, #31
    3a1a:	402c      	ands	r4, r5
    3a1c:	1c65      	adds	r5, r4, #1
    3a1e:	1940      	adds	r0, r0, r5
    3a20:	4655      	mov	r5, sl
    3a22:	465b      	mov	r3, fp
    3a24:	3d01      	subs	r5, #1
    3a26:	1b2c      	subs	r4, r5, r4
    3a28:	4645      	mov	r5, r8
    3a2a:	2d00      	cmp	r5, #0
    3a2c:	d000      	beq.n	3a30 <print_number+0xbc>
    3a2e:	e0d4      	b.n	3bda <print_number+0x266>
    3a30:	9d01      	ldr	r5, [sp, #4]
    3a32:	b96d      	cbnz	r5, 3a50 <print_number+0xdc>
    3a34:	1e65      	subs	r5, r4, #1
    3a36:	2c00      	cmp	r4, #0
    3a38:	dc00      	bgt.n	3a3c <print_number+0xc8>
    3a3a:	e1aa      	b.n	3d92 <print_number+0x41e>
    3a3c:	4665      	mov	r5, ip
    3a3e:	1904      	adds	r4, r0, r4
    3a40:	4281      	cmp	r1, r0
    3a42:	d900      	bls.n	3a46 <print_number+0xd2>
    3a44:	7005      	strb	r5, [r0, #0]
    3a46:	3001      	adds	r0, #1
    3a48:	42a0      	cmp	r0, r4
    3a4a:	d1f9      	bne.n	3a40 <print_number+0xcc>
    3a4c:	2401      	movs	r4, #1
    3a4e:	4264      	negs	r4, r4
    3a50:	1afd      	subs	r5, r7, r3
    3a52:	f240 0c30 	movw	ip, #48	; 0x30
    3a56:	1945      	adds	r5, r0, r5
    3a58:	42bb      	cmp	r3, r7
    3a5a:	db00      	blt.n	3a5e <print_number+0xea>
    3a5c:	e19d      	b.n	3d9a <print_number+0x426>
    3a5e:	4281      	cmp	r1, r0
    3a60:	d901      	bls.n	3a66 <print_number+0xf2>
    3a62:	4663      	mov	r3, ip
    3a64:	7003      	strb	r3, [r0, #0]
    3a66:	3001      	adds	r0, #1
    3a68:	42a8      	cmp	r0, r5
    3a6a:	d1f8      	bne.n	3a5e <print_number+0xea>
    3a6c:	9b13      	ldr	r3, [sp, #76]	; 0x4c
    3a6e:	2b00      	cmp	r3, #0
    3a70:	d047      	beq.n	3b02 <print_number+0x18e>
    3a72:	42a9      	cmp	r1, r5
    3a74:	d900      	bls.n	3a78 <print_number+0x104>
    3a76:	e0b7      	b.n	3be8 <print_number+0x274>
    3a78:	1c68      	adds	r0, r5, #1
    3a7a:	1e53      	subs	r3, r2, #1
    3a7c:	b3fa      	cbz	r2, 3afe <print_number+0x18a>
    3a7e:	4288      	cmp	r0, r1
    3a80:	d200      	bcs.n	3a84 <print_number+0x110>
    3a82:	e0b4      	b.n	3bee <print_number+0x27a>
    3a84:	1caf      	adds	r7, r5, #2
    3a86:	1e90      	subs	r0, r2, #2
    3a88:	2b00      	cmp	r3, #0
    3a8a:	dd38      	ble.n	3afe <print_number+0x18a>
    3a8c:	428f      	cmp	r7, r1
    3a8e:	d200      	bcs.n	3a92 <print_number+0x11e>
    3a90:	e0b0      	b.n	3bf4 <print_number+0x280>
    3a92:	1cef      	adds	r7, r5, #3
    3a94:	1ed3      	subs	r3, r2, #3
    3a96:	2800      	cmp	r0, #0
    3a98:	dd31      	ble.n	3afe <print_number+0x18a>
    3a9a:	42b9      	cmp	r1, r7
    3a9c:	d900      	bls.n	3aa0 <print_number+0x12c>
    3a9e:	e0ac      	b.n	3bfa <print_number+0x286>
    3aa0:	1d2f      	adds	r7, r5, #4
    3aa2:	1f10      	subs	r0, r2, #4
    3aa4:	2b00      	cmp	r3, #0
    3aa6:	dd2a      	ble.n	3afe <print_number+0x18a>
    3aa8:	42b9      	cmp	r1, r7
    3aaa:	d900      	bls.n	3aae <print_number+0x13a>
    3aac:	e0a8      	b.n	3c00 <print_number+0x28c>
    3aae:	1d6f      	adds	r7, r5, #5
    3ab0:	1f53      	subs	r3, r2, #5
    3ab2:	2800      	cmp	r0, #0
    3ab4:	dd23      	ble.n	3afe <print_number+0x18a>
    3ab6:	42b9      	cmp	r1, r7
    3ab8:	d900      	bls.n	3abc <print_number+0x148>
    3aba:	e0a4      	b.n	3c06 <print_number+0x292>
    3abc:	1daf      	adds	r7, r5, #6
    3abe:	1f90      	subs	r0, r2, #6
    3ac0:	2b00      	cmp	r3, #0
    3ac2:	dd1c      	ble.n	3afe <print_number+0x18a>
    3ac4:	42b9      	cmp	r1, r7
    3ac6:	d900      	bls.n	3aca <print_number+0x156>
    3ac8:	e0a0      	b.n	3c0c <print_number+0x298>
    3aca:	1def      	adds	r7, r5, #7
    3acc:	1fd3      	subs	r3, r2, #7
    3ace:	2800      	cmp	r0, #0
    3ad0:	dd15      	ble.n	3afe <print_number+0x18a>
    3ad2:	42b9      	cmp	r1, r7
    3ad4:	d900      	bls.n	3ad8 <print_number+0x164>
    3ad6:	e09c      	b.n	3c12 <print_number+0x29e>
    3ad8:	002f      	movs	r7, r5
    3ada:	0010      	movs	r0, r2
    3adc:	3708      	adds	r7, #8
    3ade:	3808      	subs	r0, #8
    3ae0:	2b00      	cmp	r3, #0
    3ae2:	dd0c      	ble.n	3afe <print_number+0x18a>
    3ae4:	42b9      	cmp	r1, r7
    3ae6:	d900      	bls.n	3aea <print_number+0x176>
    3ae8:	e096      	b.n	3c18 <print_number+0x2a4>
    3aea:	002b      	movs	r3, r5
    3aec:	0017      	movs	r7, r2
    3aee:	3309      	adds	r3, #9
    3af0:	3f09      	subs	r7, #9
    3af2:	2801      	cmp	r0, #1
    3af4:	d103      	bne.n	3afe <print_number+0x18a>
    3af6:	4299      	cmp	r1, r3
    3af8:	d901      	bls.n	3afe <print_number+0x18a>
    3afa:	5df3      	ldrb	r3, [r6, r7]
    3afc:	726b      	strb	r3, [r5, #9]
    3afe:	3201      	adds	r2, #1
    3b00:	18ad      	adds	r5, r5, r2
    3b02:	2c00      	cmp	r4, #0
    3b04:	dc00      	bgt.n	3b08 <print_number+0x194>
    3b06:	e146      	b.n	3d96 <print_number+0x422>
    3b08:	2320      	movs	r3, #32
    3b0a:	1928      	adds	r0, r5, r4
    3b0c:	42a9      	cmp	r1, r5
    3b0e:	d900      	bls.n	3b12 <print_number+0x19e>
    3b10:	702b      	strb	r3, [r5, #0]
    3b12:	3501      	adds	r5, #1
    3b14:	4285      	cmp	r5, r0
    3b16:	d1f9      	bne.n	3b0c <print_number+0x198>
    3b18:	b009      	add	sp, #36	; 0x24
    3b1a:	bcf0      	pop	{r4, r5, r6, r7}
    3b1c:	46bb      	mov	fp, r7
    3b1e:	46b2      	mov	sl, r6
    3b20:	46a9      	mov	r9, r5
    3b22:	46a0      	mov	r8, r4
    3b24:	bdf0      	pop	{r4, r5, r6, r7, pc}
    3b26:	2510      	movs	r5, #16
    3b28:	002f      	movs	r7, r5
    3b2a:	f246 1460 	movw	r4, #24928	; 0x6160
    3b2e:	4037      	ands	r7, r6
    3b30:	f2c0 0400 	movt	r4, #0
    3b34:	9701      	str	r7, [sp, #4]
    3b36:	4235      	tst	r5, r6
    3b38:	d000      	beq.n	3b3c <print_number+0x1c8>
    3b3a:	e732      	b.n	39a2 <print_number+0x2e>
    3b3c:	2511      	movs	r5, #17
    3b3e:	4035      	ands	r5, r6
    3b40:	46ab      	mov	fp, r5
    3b42:	07f5      	lsls	r5, r6, #31
    3b44:	d400      	bmi.n	3b48 <print_number+0x1d4>
    3b46:	e147      	b.n	3dd8 <print_number+0x464>
    3b48:	f240 0c30 	movw	ip, #48	; 0x30
    3b4c:	07b7      	lsls	r7, r6, #30
    3b4e:	d500      	bpl.n	3b52 <print_number+0x1de>
    3b50:	e72f      	b.n	39b2 <print_number+0x3e>
    3b52:	f240 0800 	movw	r8, #0
    3b56:	2a00      	cmp	r2, #0
    3b58:	d100      	bne.n	3b5c <print_number+0x1e8>
    3b5a:	e735      	b.n	39c8 <print_number+0x54>
    3b5c:	2b0a      	cmp	r3, #10
    3b5e:	d063      	beq.n	3c28 <print_number+0x2b4>
    3b60:	230f      	movs	r3, #15
    3b62:	001d      	movs	r5, r3
    3b64:	4015      	ands	r5, r2
    3b66:	5d65      	ldrb	r5, [r4, r5]
    3b68:	ae04      	add	r6, sp, #16
    3b6a:	0917      	lsrs	r7, r2, #4
    3b6c:	7035      	strb	r5, [r6, #0]
    3b6e:	2f00      	cmp	r7, #0
    3b70:	d100      	bne.n	3b74 <print_number+0x200>
    3b72:	e114      	b.n	3d9e <print_number+0x42a>
    3b74:	401f      	ands	r7, r3
    3b76:	5de7      	ldrb	r7, [r4, r7]
    3b78:	0a15      	lsrs	r5, r2, #8
    3b7a:	7077      	strb	r7, [r6, #1]
    3b7c:	2d00      	cmp	r5, #0
    3b7e:	d100      	bne.n	3b82 <print_number+0x20e>
    3b80:	e110      	b.n	3da4 <print_number+0x430>
    3b82:	401d      	ands	r5, r3
    3b84:	5d65      	ldrb	r5, [r4, r5]
    3b86:	0b17      	lsrs	r7, r2, #12
    3b88:	70b5      	strb	r5, [r6, #2]
    3b8a:	2f00      	cmp	r7, #0
    3b8c:	d100      	bne.n	3b90 <print_number+0x21c>
    3b8e:	e10f      	b.n	3db0 <print_number+0x43c>
    3b90:	401f      	ands	r7, r3
    3b92:	5de7      	ldrb	r7, [r4, r7]
    3b94:	0c15      	lsrs	r5, r2, #16
    3b96:	70f7      	strb	r7, [r6, #3]
    3b98:	2d00      	cmp	r5, #0
    3b9a:	d100      	bne.n	3b9e <print_number+0x22a>
    3b9c:	e105      	b.n	3daa <print_number+0x436>
    3b9e:	401d      	ands	r5, r3
    3ba0:	5d65      	ldrb	r5, [r4, r5]
    3ba2:	0d17      	lsrs	r7, r2, #20
    3ba4:	7135      	strb	r5, [r6, #4]
    3ba6:	2f00      	cmp	r7, #0
    3ba8:	d100      	bne.n	3bac <print_number+0x238>
    3baa:	e104      	b.n	3db6 <print_number+0x442>
    3bac:	401f      	ands	r7, r3
    3bae:	5de7      	ldrb	r7, [r4, r7]
    3bb0:	0e15      	lsrs	r5, r2, #24
    3bb2:	7177      	strb	r7, [r6, #5]
    3bb4:	2d00      	cmp	r5, #0
    3bb6:	d100      	bne.n	3bba <print_number+0x246>
    3bb8:	e100      	b.n	3dbc <print_number+0x448>
    3bba:	402b      	ands	r3, r5
    3bbc:	5ce3      	ldrb	r3, [r4, r3]
    3bbe:	0f12      	lsrs	r2, r2, #28
    3bc0:	71b3      	strb	r3, [r6, #6]
    3bc2:	2a00      	cmp	r2, #0
    3bc4:	d100      	bne.n	3bc8 <print_number+0x254>
    3bc6:	e0fc      	b.n	3dc2 <print_number+0x44e>
    3bc8:	5ca3      	ldrb	r3, [r4, r2]
    3bca:	2207      	movs	r2, #7
    3bcc:	71f3      	strb	r3, [r6, #7]
    3bce:	2308      	movs	r3, #8
    3bd0:	e6fe      	b.n	39d0 <print_number+0x5c>
    3bd2:	2c00      	cmp	r4, #0
    3bd4:	dd00      	ble.n	3bd8 <print_number+0x264>
    3bd6:	e0d0      	b.n	3d7a <print_number+0x406>
    3bd8:	3c01      	subs	r4, #1
    3bda:	4288      	cmp	r0, r1
    3bdc:	d201      	bcs.n	3be2 <print_number+0x26e>
    3bde:	4645      	mov	r5, r8
    3be0:	7005      	strb	r5, [r0, #0]
    3be2:	3c01      	subs	r4, #1
    3be4:	3001      	adds	r0, #1
    3be6:	e723      	b.n	3a30 <print_number+0xbc>
    3be8:	5cb3      	ldrb	r3, [r6, r2]
    3bea:	702b      	strb	r3, [r5, #0]
    3bec:	e744      	b.n	3a78 <print_number+0x104>
    3bee:	5cf0      	ldrb	r0, [r6, r3]
    3bf0:	7068      	strb	r0, [r5, #1]
    3bf2:	e747      	b.n	3a84 <print_number+0x110>
    3bf4:	5c33      	ldrb	r3, [r6, r0]
    3bf6:	70ab      	strb	r3, [r5, #2]
    3bf8:	e74b      	b.n	3a92 <print_number+0x11e>
    3bfa:	5cf0      	ldrb	r0, [r6, r3]
    3bfc:	70e8      	strb	r0, [r5, #3]
    3bfe:	e74f      	b.n	3aa0 <print_number+0x12c>
    3c00:	5c33      	ldrb	r3, [r6, r0]
    3c02:	712b      	strb	r3, [r5, #4]
    3c04:	e753      	b.n	3aae <print_number+0x13a>
    3c06:	5cf0      	ldrb	r0, [r6, r3]
    3c08:	7168      	strb	r0, [r5, #5]
    3c0a:	e757      	b.n	3abc <print_number+0x148>
    3c0c:	5c33      	ldrb	r3, [r6, r0]
    3c0e:	71ab      	strb	r3, [r5, #6]
    3c10:	e75b      	b.n	3aca <print_number+0x156>
    3c12:	5cf0      	ldrb	r0, [r6, r3]
    3c14:	71e8      	strb	r0, [r5, #7]
    3c16:	e75f      	b.n	3ad8 <print_number+0x164>
    3c18:	5c33      	ldrb	r3, [r6, r0]
    3c1a:	722b      	strb	r3, [r5, #8]
    3c1c:	e765      	b.n	3aea <print_number+0x176>
    3c1e:	f240 082d 	movw	r8, #45	; 0x2d
    3c22:	4252      	negs	r2, r2
    3c24:	2b0a      	cmp	r3, #10
    3c26:	d19b      	bne.n	3b60 <print_number+0x1ec>
    3c28:	fbb2 f7f3 	udiv	r7, r2, r3
    3c2c:	00bd      	lsls	r5, r7, #2
    3c2e:	46a9      	mov	r9, r5
    3c30:	44b9      	add	r9, r7
    3c32:	464d      	mov	r5, r9
    3c34:	006d      	lsls	r5, r5, #1
    3c36:	1b55      	subs	r5, r2, r5
    3c38:	5d65      	ldrb	r5, [r4, r5]
    3c3a:	ae04      	add	r6, sp, #16
    3c3c:	7035      	strb	r5, [r6, #0]
    3c3e:	2a09      	cmp	r2, #9
    3c40:	d800      	bhi.n	3c44 <print_number+0x2d0>
    3c42:	e0ac      	b.n	3d9e <print_number+0x42a>
    3c44:	fbb7 f5f3 	udiv	r5, r7, r3
    3c48:	9502      	str	r5, [sp, #8]
    3c4a:	00ad      	lsls	r5, r5, #2
    3c4c:	46aa      	mov	sl, r5
    3c4e:	9d02      	ldr	r5, [sp, #8]
    3c50:	46a9      	mov	r9, r5
    3c52:	44ca      	add	sl, r9
    3c54:	4655      	mov	r5, sl
    3c56:	006d      	lsls	r5, r5, #1
    3c58:	1b7f      	subs	r7, r7, r5
    3c5a:	5de7      	ldrb	r7, [r4, r7]
    3c5c:	7077      	strb	r7, [r6, #1]
    3c5e:	2a63      	cmp	r2, #99	; 0x63
    3c60:	d800      	bhi.n	3c64 <print_number+0x2f0>
    3c62:	e09f      	b.n	3da4 <print_number+0x430>
    3c64:	fbb9 f7f3 	udiv	r7, r9, r3
    3c68:	00bd      	lsls	r5, r7, #2
    3c6a:	46b9      	mov	r9, r7
    3c6c:	46aa      	mov	sl, r5
    3c6e:	44ca      	add	sl, r9
    3c70:	4655      	mov	r5, sl
    3c72:	006d      	lsls	r5, r5, #1
    3c74:	46aa      	mov	sl, r5
    3c76:	9703      	str	r7, [sp, #12]
    3c78:	4657      	mov	r7, sl
    3c7a:	f240 39e7 	movw	r9, #999	; 0x3e7
    3c7e:	9d02      	ldr	r5, [sp, #8]
    3c80:	1bed      	subs	r5, r5, r7
    3c82:	5d65      	ldrb	r5, [r4, r5]
    3c84:	70b5      	strb	r5, [r6, #2]
    3c86:	454a      	cmp	r2, r9
    3c88:	d800      	bhi.n	3c8c <print_number+0x318>
    3c8a:	e091      	b.n	3db0 <print_number+0x43c>
    3c8c:	9f03      	ldr	r7, [sp, #12]
    3c8e:	fbb7 f5f3 	udiv	r5, r7, r3
    3c92:	9502      	str	r5, [sp, #8]
    3c94:	00ad      	lsls	r5, r5, #2
    3c96:	46aa      	mov	sl, r5
    3c98:	9d02      	ldr	r5, [sp, #8]
    3c9a:	46a9      	mov	r9, r5
    3c9c:	44ca      	add	sl, r9
    3c9e:	4655      	mov	r5, sl
    3ca0:	006d      	lsls	r5, r5, #1
    3ca2:	1b7f      	subs	r7, r7, r5
    3ca4:	5de7      	ldrb	r7, [r4, r7]
    3ca6:	70f7      	strb	r7, [r6, #3]
    3ca8:	f242 770f 	movw	r7, #9999	; 0x270f
    3cac:	42ba      	cmp	r2, r7
    3cae:	d97c      	bls.n	3daa <print_number+0x436>
    3cb0:	fbb9 f7f3 	udiv	r7, r9, r3
    3cb4:	00bd      	lsls	r5, r7, #2
    3cb6:	46b9      	mov	r9, r7
    3cb8:	46aa      	mov	sl, r5
    3cba:	44ca      	add	sl, r9
    3cbc:	4655      	mov	r5, sl
    3cbe:	006d      	lsls	r5, r5, #1
    3cc0:	46aa      	mov	sl, r5
    3cc2:	9703      	str	r7, [sp, #12]
    3cc4:	4657      	mov	r7, sl
    3cc6:	f248 699f 	movw	r9, #34463	; 0x869f
    3cca:	9d02      	ldr	r5, [sp, #8]
    3ccc:	f2c0 0901 	movt	r9, #1
    3cd0:	1bed      	subs	r5, r5, r7
    3cd2:	5d65      	ldrb	r5, [r4, r5]
    3cd4:	7135      	strb	r5, [r6, #4]
    3cd6:	454a      	cmp	r2, r9
    3cd8:	d96d      	bls.n	3db6 <print_number+0x442>
    3cda:	9f03      	ldr	r7, [sp, #12]
    3cdc:	fbb7 f5f3 	udiv	r5, r7, r3
    3ce0:	9502      	str	r5, [sp, #8]
    3ce2:	00ad      	lsls	r5, r5, #2
    3ce4:	46aa      	mov	sl, r5
    3ce6:	9d02      	ldr	r5, [sp, #8]
    3ce8:	46a9      	mov	r9, r5
    3cea:	44ca      	add	sl, r9
    3cec:	4655      	mov	r5, sl
    3cee:	006d      	lsls	r5, r5, #1
    3cf0:	1b7f      	subs	r7, r7, r5
    3cf2:	5de7      	ldrb	r7, [r4, r7]
    3cf4:	7177      	strb	r7, [r6, #5]
    3cf6:	f244 273f 	movw	r7, #16959	; 0x423f
    3cfa:	f2c0 070f 	movt	r7, #15
    3cfe:	42ba      	cmp	r2, r7
    3d00:	d95c      	bls.n	3dbc <print_number+0x448>
    3d02:	fbb9 f7f3 	udiv	r7, r9, r3
    3d06:	00bd      	lsls	r5, r7, #2
    3d08:	46b9      	mov	r9, r7
    3d0a:	46aa      	mov	sl, r5
    3d0c:	44ca      	add	sl, r9
    3d0e:	4655      	mov	r5, sl
    3d10:	006d      	lsls	r5, r5, #1
    3d12:	46aa      	mov	sl, r5
    3d14:	9703      	str	r7, [sp, #12]
    3d16:	4657      	mov	r7, sl
    3d18:	f249 697f 	movw	r9, #38527	; 0x967f
    3d1c:	9d02      	ldr	r5, [sp, #8]
    3d1e:	f2c0 0998 	movt	r9, #152	; 0x98
    3d22:	1bed      	subs	r5, r5, r7
    3d24:	5d65      	ldrb	r5, [r4, r5]
    3d26:	71b5      	strb	r5, [r6, #6]
    3d28:	454a      	cmp	r2, r9
    3d2a:	d94a      	bls.n	3dc2 <print_number+0x44e>
    3d2c:	9f03      	ldr	r7, [sp, #12]
    3d2e:	fbb7 f9f3 	udiv	r9, r7, r3
    3d32:	464d      	mov	r5, r9
    3d34:	00ad      	lsls	r5, r5, #2
    3d36:	46aa      	mov	sl, r5
    3d38:	44ca      	add	sl, r9
    3d3a:	4655      	mov	r5, sl
    3d3c:	006d      	lsls	r5, r5, #1
    3d3e:	1b7f      	subs	r7, r7, r5
    3d40:	5de7      	ldrb	r7, [r4, r7]
    3d42:	71f7      	strb	r7, [r6, #7]
    3d44:	f24e 07ff 	movw	r7, #57599	; 0xe0ff
    3d48:	f2c0 57f5 	movt	r7, #1525	; 0x5f5
    3d4c:	42ba      	cmp	r2, r7
    3d4e:	d93d      	bls.n	3dcc <print_number+0x458>
    3d50:	fbb9 faf3 	udiv	sl, r9, r3
    3d54:	4655      	mov	r5, sl
    3d56:	00af      	lsls	r7, r5, #2
    3d58:	464d      	mov	r5, r9
    3d5a:	4457      	add	r7, sl
    3d5c:	007f      	lsls	r7, r7, #1
    3d5e:	1bef      	subs	r7, r5, r7
    3d60:	5de7      	ldrb	r7, [r4, r7]
    3d62:	7237      	strb	r7, [r6, #8]
    3d64:	f64c 17ff 	movw	r7, #51711	; 0xc9ff
    3d68:	f6c3 379a 	movt	r7, #15258	; 0x3b9a
    3d6c:	42ba      	cmp	r2, r7
    3d6e:	d930      	bls.n	3dd2 <print_number+0x45e>
    3d70:	4652      	mov	r2, sl
    3d72:	5ca2      	ldrb	r2, [r4, r2]
    3d74:	7272      	strb	r2, [r6, #9]
    3d76:	2209      	movs	r2, #9
    3d78:	e62a      	b.n	39d0 <print_number+0x5c>
    3d7a:	1ea5      	subs	r5, r4, #2
    3d7c:	46aa      	mov	sl, r5
    3d7e:	2c01      	cmp	r4, #1
    3d80:	d000      	beq.n	3d84 <print_number+0x410>
    3d82:	e637      	b.n	39f4 <print_number+0x80>
    3d84:	002c      	movs	r4, r5
    3d86:	e728      	b.n	3bda <print_number+0x266>
    3d88:	0736      	lsls	r6, r6, #28
    3d8a:	0ff6      	lsrs	r6, r6, #31
    3d8c:	0175      	lsls	r5, r6, #5
    3d8e:	46a8      	mov	r8, r5
    3d90:	e617      	b.n	39c2 <print_number+0x4e>
    3d92:	002c      	movs	r4, r5
    3d94:	e65c      	b.n	3a50 <print_number+0xdc>
    3d96:	0028      	movs	r0, r5
    3d98:	e6be      	b.n	3b18 <print_number+0x1a4>
    3d9a:	0005      	movs	r5, r0
    3d9c:	e666      	b.n	3a6c <print_number+0xf8>
    3d9e:	2200      	movs	r2, #0
    3da0:	2301      	movs	r3, #1
    3da2:	e615      	b.n	39d0 <print_number+0x5c>
    3da4:	2201      	movs	r2, #1
    3da6:	2302      	movs	r3, #2
    3da8:	e612      	b.n	39d0 <print_number+0x5c>
    3daa:	2203      	movs	r2, #3
    3dac:	2304      	movs	r3, #4
    3dae:	e60f      	b.n	39d0 <print_number+0x5c>
    3db0:	2202      	movs	r2, #2
    3db2:	2303      	movs	r3, #3
    3db4:	e60c      	b.n	39d0 <print_number+0x5c>
    3db6:	2204      	movs	r2, #4
    3db8:	2305      	movs	r3, #5
    3dba:	e609      	b.n	39d0 <print_number+0x5c>
    3dbc:	2205      	movs	r2, #5
    3dbe:	2306      	movs	r3, #6
    3dc0:	e606      	b.n	39d0 <print_number+0x5c>
    3dc2:	2206      	movs	r2, #6
    3dc4:	2307      	movs	r3, #7
    3dc6:	e603      	b.n	39d0 <print_number+0x5c>
    3dc8:	002c      	movs	r4, r5
    3dca:	e631      	b.n	3a30 <print_number+0xbc>
    3dcc:	2207      	movs	r2, #7
    3dce:	2308      	movs	r3, #8
    3dd0:	e5fe      	b.n	39d0 <print_number+0x5c>
    3dd2:	2208      	movs	r2, #8
    3dd4:	2309      	movs	r3, #9
    3dd6:	e5fb      	b.n	39d0 <print_number+0x5c>
    3dd8:	f240 0c20 	movw	ip, #32
    3ddc:	e5e6      	b.n	39ac <print_number+0x38>
    3dde:	46c0      	nop			; (mov r8, r8)

00003de0 <rt_get_errno>:
    3de0:	b510      	push	{r4, lr}
    3de2:	f7fe fecf 	bl	2b84 <rt_interrupt_get_nest>
    3de6:	b128      	cbz	r0, 3df4 <rt_get_errno+0x14>
    3de8:	f644 43b4 	movw	r3, #19636	; 0x4cb4
    3dec:	f2c2 0300 	movt	r3, #8192	; 0x2000
    3df0:	6818      	ldr	r0, [r3, #0]
    3df2:	bd10      	pop	{r4, pc}
    3df4:	f7fe ff64 	bl	2cc0 <rt_thread_self>
    3df8:	2800      	cmp	r0, #0
    3dfa:	d0f5      	beq.n	3de8 <rt_get_errno+0x8>
    3dfc:	6b00      	ldr	r0, [r0, #48]	; 0x30
    3dfe:	e7f8      	b.n	3df2 <rt_get_errno+0x12>

00003e00 <rt_set_errno>:
    3e00:	b510      	push	{r4, lr}
    3e02:	0004      	movs	r4, r0
    3e04:	f7fe febe 	bl	2b84 <rt_interrupt_get_nest>
    3e08:	b128      	cbz	r0, 3e16 <rt_set_errno+0x16>
    3e0a:	f644 43b4 	movw	r3, #19636	; 0x4cb4
    3e0e:	f2c2 0300 	movt	r3, #8192	; 0x2000
    3e12:	601c      	str	r4, [r3, #0]
    3e14:	bd10      	pop	{r4, pc}
    3e16:	f7fe ff53 	bl	2cc0 <rt_thread_self>
    3e1a:	2800      	cmp	r0, #0
    3e1c:	d0f5      	beq.n	3e0a <rt_set_errno+0xa>
    3e1e:	6304      	str	r4, [r0, #48]	; 0x30
    3e20:	e7f8      	b.n	3e14 <rt_set_errno+0x14>
    3e22:	46c0      	nop			; (mov r8, r8)

00003e24 <_rt_errno>:
    3e24:	b510      	push	{r4, lr}
    3e26:	f7fe fead 	bl	2b84 <rt_interrupt_get_nest>
    3e2a:	b120      	cbz	r0, 3e36 <_rt_errno+0x12>
    3e2c:	f644 40b4 	movw	r0, #19636	; 0x4cb4
    3e30:	f2c2 0000 	movt	r0, #8192	; 0x2000
    3e34:	bd10      	pop	{r4, pc}
    3e36:	f7fe ff43 	bl	2cc0 <rt_thread_self>
    3e3a:	2800      	cmp	r0, #0
    3e3c:	d0f6      	beq.n	3e2c <_rt_errno+0x8>
    3e3e:	3030      	adds	r0, #48	; 0x30
    3e40:	e7f8      	b.n	3e34 <_rt_errno+0x10>
    3e42:	46c0      	nop			; (mov r8, r8)

00003e44 <rt_memset>:
    3e44:	b5f8      	push	{r3, r4, r5, r6, r7, lr}
    3e46:	0005      	movs	r5, r0
    3e48:	000f      	movs	r7, r1
    3e4a:	2a03      	cmp	r2, #3
    3e4c:	d936      	bls.n	3ebc <rt_memset+0x78>
    3e4e:	2103      	movs	r1, #3
    3e50:	0003      	movs	r3, r0
    3e52:	0008      	movs	r0, r1
    3e54:	4028      	ands	r0, r5
    3e56:	420d      	tst	r5, r1
    3e58:	d139      	bne.n	3ece <rt_memset+0x8a>
    3e5a:	21ff      	movs	r1, #255	; 0xff
    3e5c:	4039      	ands	r1, r7
    3e5e:	020c      	lsls	r4, r1, #8
    3e60:	430c      	orrs	r4, r1
    3e62:	0421      	lsls	r1, r4, #16
    3e64:	430c      	orrs	r4, r1
    3e66:	2a0f      	cmp	r2, #15
    3e68:	d940      	bls.n	3eec <rt_memset+0xa8>
    3e6a:	0016      	movs	r6, r2
    3e6c:	3e10      	subs	r6, #16
    3e6e:	0769      	lsls	r1, r5, #29
    3e70:	d130      	bne.n	3ed4 <rt_memset+0x90>
    3e72:	2e4f      	cmp	r6, #79	; 0x4f
    3e74:	d92e      	bls.n	3ed4 <rt_memset+0x90>
    3e76:	0936      	lsrs	r6, r6, #4
    3e78:	1c71      	adds	r1, r6, #1
    3e7a:	3001      	adds	r0, #1
    3e7c:	601c      	str	r4, [r3, #0]
    3e7e:	605c      	str	r4, [r3, #4]
    3e80:	609c      	str	r4, [r3, #8]
    3e82:	60dc      	str	r4, [r3, #12]
    3e84:	3310      	adds	r3, #16
    3e86:	4281      	cmp	r1, r0
    3e88:	d8f7      	bhi.n	3e7a <rt_memset+0x36>
    3e8a:	210f      	movs	r1, #15
    3e8c:	230c      	movs	r3, #12
    3e8e:	3601      	adds	r6, #1
    3e90:	0130      	lsls	r0, r6, #4
    3e92:	4011      	ands	r1, r2
    3e94:	4013      	ands	r3, r2
    3e96:	1828      	adds	r0, r5, r0
    3e98:	000a      	movs	r2, r1
    3e9a:	b17b      	cbz	r3, 3ebc <rt_memset+0x78>
    3e9c:	1f0b      	subs	r3, r1, #4
    3e9e:	6004      	str	r4, [r0, #0]
    3ea0:	2b03      	cmp	r3, #3
    3ea2:	d905      	bls.n	3eb0 <rt_memset+0x6c>
    3ea4:	000a      	movs	r2, r1
    3ea6:	3a08      	subs	r2, #8
    3ea8:	6044      	str	r4, [r0, #4]
    3eaa:	2a03      	cmp	r2, #3
    3eac:	d900      	bls.n	3eb0 <rt_memset+0x6c>
    3eae:	6084      	str	r4, [r0, #8]
    3eb0:	2203      	movs	r2, #3
    3eb2:	089b      	lsrs	r3, r3, #2
    3eb4:	3301      	adds	r3, #1
    3eb6:	009b      	lsls	r3, r3, #2
    3eb8:	18c0      	adds	r0, r0, r3
    3eba:	400a      	ands	r2, r1
    3ebc:	1e53      	subs	r3, r2, #1
    3ebe:	b122      	cbz	r2, 3eca <rt_memset+0x86>
    3ec0:	21ff      	movs	r1, #255	; 0xff
    3ec2:	1c5a      	adds	r2, r3, #1
    3ec4:	4039      	ands	r1, r7
    3ec6:	f000 fecf 	bl	4c68 <memset>
    3eca:	0028      	movs	r0, r5
    3ecc:	bdf8      	pop	{r3, r4, r5, r6, r7, pc}
    3ece:	0028      	movs	r0, r5
    3ed0:	1e53      	subs	r3, r2, #1
    3ed2:	e7f5      	b.n	3ec0 <rt_memset+0x7c>
    3ed4:	0936      	lsrs	r6, r6, #4
    3ed6:	0130      	lsls	r0, r6, #4
    3ed8:	1828      	adds	r0, r5, r0
    3eda:	0019      	movs	r1, r3
    3edc:	601c      	str	r4, [r3, #0]
    3ede:	605c      	str	r4, [r3, #4]
    3ee0:	609c      	str	r4, [r3, #8]
    3ee2:	60dc      	str	r4, [r3, #12]
    3ee4:	3310      	adds	r3, #16
    3ee6:	4281      	cmp	r1, r0
    3ee8:	d1f7      	bne.n	3eda <rt_memset+0x96>
    3eea:	e7ce      	b.n	3e8a <rt_memset+0x46>
    3eec:	0028      	movs	r0, r5
    3eee:	0011      	movs	r1, r2
    3ef0:	e7d4      	b.n	3e9c <rt_memset+0x58>
    3ef2:	46c0      	nop			; (mov r8, r8)

00003ef4 <rt_memcpy>:
    3ef4:	b5f0      	push	{r4, r5, r6, r7, lr}
    3ef6:	4645      	mov	r5, r8
    3ef8:	46de      	mov	lr, fp
    3efa:	4657      	mov	r7, sl
    3efc:	464e      	mov	r6, r9
    3efe:	b5e0      	push	{r5, r6, r7, lr}
    3f00:	4690      	mov	r8, r2
    3f02:	0004      	movs	r4, r0
    3f04:	b083      	sub	sp, #12
    3f06:	2a0f      	cmp	r2, #15
    3f08:	d90b      	bls.n	3f22 <rt_memcpy+0x2e>
    3f0a:	f240 0c03 	movw	ip, #3
    3f0e:	000d      	movs	r5, r1
    3f10:	4667      	mov	r7, ip
    3f12:	4305      	orrs	r5, r0
    3f14:	402f      	ands	r7, r5
    3f16:	46ba      	mov	sl, r7
    3f18:	4667      	mov	r7, ip
    3f1a:	000e      	movs	r6, r1
    3f1c:	0003      	movs	r3, r0
    3f1e:	422f      	tst	r7, r5
    3f20:	d033      	beq.n	3f8a <rt_memcpy+0x96>
    3f22:	1e56      	subs	r6, r2, #1
    3f24:	b352      	cbz	r2, 3f7c <rt_memcpy+0x88>
    3f26:	000d      	movs	r5, r1
    3f28:	2303      	movs	r3, #3
    3f2a:	4325      	orrs	r5, r4
    3f2c:	402b      	ands	r3, r5
    3f2e:	425d      	negs	r5, r3
    3f30:	416b      	adcs	r3, r5
    3f32:	2502      	movs	r5, #2
    3f34:	1c4f      	adds	r7, r1, #1
    3f36:	1be7      	subs	r7, r4, r7
    3f38:	42bd      	cmp	r5, r7
    3f3a:	41ad      	sbcs	r5, r5
    3f3c:	426d      	negs	r5, r5
    3f3e:	421d      	tst	r5, r3
    3f40:	d100      	bne.n	3f44 <rt_memcpy+0x50>
    3f42:	e071      	b.n	4028 <rt_memcpy+0x134>
    3f44:	2e08      	cmp	r6, #8
    3f46:	d800      	bhi.n	3f4a <rt_memcpy+0x56>
    3f48:	e06e      	b.n	4028 <rt_memcpy+0x134>
    3f4a:	2300      	movs	r3, #0
    3f4c:	0895      	lsrs	r5, r2, #2
    3f4e:	00ad      	lsls	r5, r5, #2
    3f50:	58cf      	ldr	r7, [r1, r3]
    3f52:	50e7      	str	r7, [r4, r3]
    3f54:	3304      	adds	r3, #4
    3f56:	42ab      	cmp	r3, r5
    3f58:	d1fa      	bne.n	3f50 <rt_memcpy+0x5c>
    3f5a:	2303      	movs	r3, #3
    3f5c:	0015      	movs	r5, r2
    3f5e:	439d      	bics	r5, r3
    3f60:	1964      	adds	r4, r4, r5
    3f62:	1949      	adds	r1, r1, r5
    3f64:	1b76      	subs	r6, r6, r5
    3f66:	42aa      	cmp	r2, r5
    3f68:	d008      	beq.n	3f7c <rt_memcpy+0x88>
    3f6a:	780b      	ldrb	r3, [r1, #0]
    3f6c:	7023      	strb	r3, [r4, #0]
    3f6e:	b12e      	cbz	r6, 3f7c <rt_memcpy+0x88>
    3f70:	784b      	ldrb	r3, [r1, #1]
    3f72:	7063      	strb	r3, [r4, #1]
    3f74:	2e01      	cmp	r6, #1
    3f76:	d001      	beq.n	3f7c <rt_memcpy+0x88>
    3f78:	788b      	ldrb	r3, [r1, #2]
    3f7a:	70a3      	strb	r3, [r4, #2]
    3f7c:	b003      	add	sp, #12
    3f7e:	bcf0      	pop	{r4, r5, r6, r7}
    3f80:	46bb      	mov	fp, r7
    3f82:	46b2      	mov	sl, r6
    3f84:	46a9      	mov	r9, r5
    3f86:	46a0      	mov	r8, r4
    3f88:	bdf0      	pop	{r4, r5, r6, r7, pc}
    3f8a:	f240 0c07 	movw	ip, #7
    3f8e:	4667      	mov	r7, ip
    3f90:	402f      	ands	r7, r5
    3f92:	003d      	movs	r5, r7
    3f94:	426f      	negs	r7, r5
    3f96:	416f      	adcs	r7, r5
    3f98:	0005      	movs	r5, r0
    3f9a:	350f      	adds	r5, #15
    3f9c:	1a6d      	subs	r5, r5, r1
    3f9e:	46a9      	mov	r9, r5
    3fa0:	251e      	movs	r5, #30
    3fa2:	454d      	cmp	r5, r9
    3fa4:	41ad      	sbcs	r5, r5
    3fa6:	0014      	movs	r4, r2
    3fa8:	426d      	negs	r5, r5
    3faa:	3c10      	subs	r4, #16
    3fac:	423d      	tst	r5, r7
    3fae:	d042      	beq.n	4036 <rt_memcpy+0x142>
    3fb0:	2c1f      	cmp	r4, #31
    3fb2:	d940      	bls.n	4036 <rt_memcpy+0x142>
    3fb4:	0924      	lsrs	r4, r4, #4
    3fb6:	46a4      	mov	ip, r4
    3fb8:	2401      	movs	r4, #1
    3fba:	4464      	add	r4, ip
    3fbc:	46a1      	mov	r9, r4
    3fbe:	68b4      	ldr	r4, [r6, #8]
    3fc0:	68f5      	ldr	r5, [r6, #12]
    3fc2:	f240 0b01 	movw	fp, #1
    3fc6:	9400      	str	r4, [sp, #0]
    3fc8:	9501      	str	r5, [sp, #4]
    3fca:	6834      	ldr	r4, [r6, #0]
    3fcc:	6875      	ldr	r5, [r6, #4]
    3fce:	44da      	add	sl, fp
    3fd0:	601c      	str	r4, [r3, #0]
    3fd2:	605d      	str	r5, [r3, #4]
    3fd4:	9c00      	ldr	r4, [sp, #0]
    3fd6:	9d01      	ldr	r5, [sp, #4]
    3fd8:	3610      	adds	r6, #16
    3fda:	609c      	str	r4, [r3, #8]
    3fdc:	60dd      	str	r5, [r3, #12]
    3fde:	3310      	adds	r3, #16
    3fe0:	45d1      	cmp	r9, sl
    3fe2:	d8ec      	bhi.n	3fbe <rt_memcpy+0xca>
    3fe4:	4664      	mov	r4, ip
    3fe6:	230f      	movs	r3, #15
    3fe8:	250c      	movs	r5, #12
    3fea:	4646      	mov	r6, r8
    3fec:	3401      	adds	r4, #1
    3fee:	0124      	lsls	r4, r4, #4
    3ff0:	4013      	ands	r3, r2
    3ff2:	1909      	adds	r1, r1, r4
    3ff4:	001a      	movs	r2, r3
    3ff6:	1904      	adds	r4, r0, r4
    3ff8:	4235      	tst	r5, r6
    3ffa:	d100      	bne.n	3ffe <rt_memcpy+0x10a>
    3ffc:	e791      	b.n	3f22 <rt_memcpy+0x2e>
    3ffe:	680d      	ldr	r5, [r1, #0]
    4000:	6025      	str	r5, [r4, #0]
    4002:	1f1d      	subs	r5, r3, #4
    4004:	2d03      	cmp	r5, #3
    4006:	d906      	bls.n	4016 <rt_memcpy+0x122>
    4008:	684e      	ldr	r6, [r1, #4]
    400a:	3a08      	subs	r2, #8
    400c:	6066      	str	r6, [r4, #4]
    400e:	2a03      	cmp	r2, #3
    4010:	d901      	bls.n	4016 <rt_memcpy+0x122>
    4012:	688a      	ldr	r2, [r1, #8]
    4014:	60a2      	str	r2, [r4, #8]
    4016:	08aa      	lsrs	r2, r5, #2
    4018:	1c55      	adds	r5, r2, #1
    401a:	0092      	lsls	r2, r2, #2
    401c:	00ad      	lsls	r5, r5, #2
    401e:	1a9a      	subs	r2, r3, r2
    4020:	1964      	adds	r4, r4, r5
    4022:	1949      	adds	r1, r1, r5
    4024:	3a04      	subs	r2, #4
    4026:	e77c      	b.n	3f22 <rt_memcpy+0x2e>
    4028:	2300      	movs	r3, #0
    402a:	5ccd      	ldrb	r5, [r1, r3]
    402c:	54e5      	strb	r5, [r4, r3]
    402e:	3301      	adds	r3, #1
    4030:	4293      	cmp	r3, r2
    4032:	d1fa      	bne.n	402a <rt_memcpy+0x136>
    4034:	e7a2      	b.n	3f7c <rt_memcpy+0x88>
    4036:	0924      	lsrs	r4, r4, #4
    4038:	46a4      	mov	ip, r4
    403a:	0125      	lsls	r5, r4, #4
    403c:	1945      	adds	r5, r0, r5
    403e:	6837      	ldr	r7, [r6, #0]
    4040:	001c      	movs	r4, r3
    4042:	601f      	str	r7, [r3, #0]
    4044:	6877      	ldr	r7, [r6, #4]
    4046:	605f      	str	r7, [r3, #4]
    4048:	68b7      	ldr	r7, [r6, #8]
    404a:	609f      	str	r7, [r3, #8]
    404c:	68f7      	ldr	r7, [r6, #12]
    404e:	3610      	adds	r6, #16
    4050:	60df      	str	r7, [r3, #12]
    4052:	3310      	adds	r3, #16
    4054:	42ac      	cmp	r4, r5
    4056:	d1f2      	bne.n	403e <rt_memcpy+0x14a>
    4058:	e7c4      	b.n	3fe4 <rt_memcpy+0xf0>
    405a:	46c0      	nop			; (mov r8, r8)

0000405c <rt_memmove>:
    405c:	b570      	push	{r4, r5, r6, lr}
    405e:	4288      	cmp	r0, r1
    4060:	d902      	bls.n	4068 <rt_memmove+0xc>
    4062:	188b      	adds	r3, r1, r2
    4064:	4298      	cmp	r0, r3
    4066:	d32c      	bcc.n	40c2 <rt_memmove+0x66>
    4068:	1e55      	subs	r5, r2, #1
    406a:	b34a      	cbz	r2, 40c0 <rt_memmove+0x64>
    406c:	2302      	movs	r3, #2
    406e:	1c4c      	adds	r4, r1, #1
    4070:	1b04      	subs	r4, r0, r4
    4072:	42a3      	cmp	r3, r4
    4074:	419b      	sbcs	r3, r3
    4076:	2408      	movs	r4, #8
    4078:	42ac      	cmp	r4, r5
    407a:	41a4      	sbcs	r4, r4
    407c:	425b      	negs	r3, r3
    407e:	4264      	negs	r4, r4
    4080:	421c      	tst	r4, r3
    4082:	d026      	beq.n	40d2 <rt_memmove+0x76>
    4084:	0003      	movs	r3, r0
    4086:	430b      	orrs	r3, r1
    4088:	079b      	lsls	r3, r3, #30
    408a:	d122      	bne.n	40d2 <rt_memmove+0x76>
    408c:	2300      	movs	r3, #0
    408e:	0894      	lsrs	r4, r2, #2
    4090:	00a4      	lsls	r4, r4, #2
    4092:	58ce      	ldr	r6, [r1, r3]
    4094:	50c6      	str	r6, [r0, r3]
    4096:	3304      	adds	r3, #4
    4098:	42a3      	cmp	r3, r4
    409a:	d1fa      	bne.n	4092 <rt_memmove+0x36>
    409c:	2303      	movs	r3, #3
    409e:	0014      	movs	r4, r2
    40a0:	439c      	bics	r4, r3
    40a2:	0023      	movs	r3, r4
    40a4:	1904      	adds	r4, r0, r4
    40a6:	18c9      	adds	r1, r1, r3
    40a8:	1aed      	subs	r5, r5, r3
    40aa:	429a      	cmp	r2, r3
    40ac:	d008      	beq.n	40c0 <rt_memmove+0x64>
    40ae:	780b      	ldrb	r3, [r1, #0]
    40b0:	7023      	strb	r3, [r4, #0]
    40b2:	b12d      	cbz	r5, 40c0 <rt_memmove+0x64>
    40b4:	784b      	ldrb	r3, [r1, #1]
    40b6:	7063      	strb	r3, [r4, #1]
    40b8:	2d01      	cmp	r5, #1
    40ba:	d001      	beq.n	40c0 <rt_memmove+0x64>
    40bc:	788b      	ldrb	r3, [r1, #2]
    40be:	70a3      	strb	r3, [r4, #2]
    40c0:	bd70      	pop	{r4, r5, r6, pc}
    40c2:	1e53      	subs	r3, r2, #1
    40c4:	2a00      	cmp	r2, #0
    40c6:	d0fb      	beq.n	40c0 <rt_memmove+0x64>
    40c8:	5cca      	ldrb	r2, [r1, r3]
    40ca:	54c2      	strb	r2, [r0, r3]
    40cc:	3b01      	subs	r3, #1
    40ce:	d2fb      	bcs.n	40c8 <rt_memmove+0x6c>
    40d0:	e7f6      	b.n	40c0 <rt_memmove+0x64>
    40d2:	2300      	movs	r3, #0
    40d4:	5ccc      	ldrb	r4, [r1, r3]
    40d6:	54c4      	strb	r4, [r0, r3]
    40d8:	3301      	adds	r3, #1
    40da:	429a      	cmp	r2, r3
    40dc:	d1fa      	bne.n	40d4 <rt_memmove+0x78>
    40de:	e7ef      	b.n	40c0 <rt_memmove+0x64>

000040e0 <rt_memcmp>:
    40e0:	b570      	push	{r4, r5, r6, lr}
    40e2:	0006      	movs	r6, r0
    40e4:	b152      	cbz	r2, 40fc <rt_memcmp+0x1c>
    40e6:	2300      	movs	r3, #0
    40e8:	e002      	b.n	40f0 <rt_memcmp+0x10>
    40ea:	3301      	adds	r3, #1
    40ec:	429a      	cmp	r2, r3
    40ee:	d004      	beq.n	40fa <rt_memcmp+0x1a>
    40f0:	5cf5      	ldrb	r5, [r6, r3]
    40f2:	5ccc      	ldrb	r4, [r1, r3]
    40f4:	1b28      	subs	r0, r5, r4
    40f6:	42a5      	cmp	r5, r4
    40f8:	d0f7      	beq.n	40ea <rt_memcmp+0xa>
    40fa:	bd70      	pop	{r4, r5, r6, pc}
    40fc:	2000      	movs	r0, #0
    40fe:	e7fc      	b.n	40fa <rt_memcmp+0x1a>

00004100 <rt_strstr>:
    4100:	780b      	ldrb	r3, [r1, #0]
    4102:	b5f0      	push	{r4, r5, r6, r7, lr}
    4104:	0007      	movs	r7, r0
    4106:	b1eb      	cbz	r3, 4144 <rt_strstr+0x44>
    4108:	000b      	movs	r3, r1
    410a:	785a      	ldrb	r2, [r3, #1]
    410c:	3301      	adds	r3, #1
    410e:	2a00      	cmp	r2, #0
    4110:	d1fb      	bne.n	410a <rt_strstr+0xa>
    4112:	0038      	movs	r0, r7
    4114:	1a5d      	subs	r5, r3, r1
    4116:	428b      	cmp	r3, r1
    4118:	d014      	beq.n	4144 <rt_strstr+0x44>
    411a:	783b      	ldrb	r3, [r7, #0]
    411c:	b1bb      	cbz	r3, 414e <rt_strstr+0x4e>
    411e:	003e      	movs	r6, r7
    4120:	7873      	ldrb	r3, [r6, #1]
    4122:	3601      	adds	r6, #1
    4124:	2b00      	cmp	r3, #0
    4126:	d1fb      	bne.n	4120 <rt_strstr+0x20>
    4128:	1bf6      	subs	r6, r6, r7
    412a:	42b5      	cmp	r5, r6
    412c:	dc0d      	bgt.n	414a <rt_strstr+0x4a>
    412e:	19bf      	adds	r7, r7, r6
    4130:	2300      	movs	r3, #0
    4132:	1bb8      	subs	r0, r7, r6
    4134:	3e01      	subs	r6, #1
    4136:	5cc4      	ldrb	r4, [r0, r3]
    4138:	5cca      	ldrb	r2, [r1, r3]
    413a:	4294      	cmp	r4, r2
    413c:	d103      	bne.n	4146 <rt_strstr+0x46>
    413e:	3301      	adds	r3, #1
    4140:	429d      	cmp	r5, r3
    4142:	d1f8      	bne.n	4136 <rt_strstr+0x36>
    4144:	bdf0      	pop	{r4, r5, r6, r7, pc}
    4146:	42ae      	cmp	r6, r5
    4148:	daf2      	bge.n	4130 <rt_strstr+0x30>
    414a:	2000      	movs	r0, #0
    414c:	e7fa      	b.n	4144 <rt_strstr+0x44>
    414e:	2600      	movs	r6, #0
    4150:	e7eb      	b.n	412a <rt_strstr+0x2a>
    4152:	46c0      	nop			; (mov r8, r8)

00004154 <rt_strcasecmp>:
    4154:	2200      	movs	r2, #0
    4156:	b570      	push	{r4, r5, r6, lr}
    4158:	e001      	b.n	415e <rt_strcasecmp+0xa>
    415a:	3201      	adds	r2, #1
    415c:	b17b      	cbz	r3, 417e <rt_strcasecmp+0x2a>
    415e:	5c83      	ldrb	r3, [r0, r2]
    4160:	5c8c      	ldrb	r4, [r1, r2]
    4162:	001e      	movs	r6, r3
    4164:	3e41      	subs	r6, #65	; 0x41
    4166:	0025      	movs	r5, r4
    4168:	2e19      	cmp	r6, #25
    416a:	d800      	bhi.n	416e <rt_strcasecmp+0x1a>
    416c:	3320      	adds	r3, #32
    416e:	0026      	movs	r6, r4
    4170:	3e41      	subs	r6, #65	; 0x41
    4172:	2e19      	cmp	r6, #25
    4174:	d801      	bhi.n	417a <rt_strcasecmp+0x26>
    4176:	3420      	adds	r4, #32
    4178:	0025      	movs	r5, r4
    417a:	42ab      	cmp	r3, r5
    417c:	d0ed      	beq.n	415a <rt_strcasecmp+0x6>
    417e:	1b58      	subs	r0, r3, r5
    4180:	bd70      	pop	{r4, r5, r6, pc}
    4182:	46c0      	nop			; (mov r8, r8)

00004184 <rt_strncpy>:
    4184:	b570      	push	{r4, r5, r6, lr}
    4186:	0005      	movs	r5, r0
    4188:	b192      	cbz	r2, 41b0 <rt_strncpy+0x2c>
    418a:	0013      	movs	r3, r2
    418c:	1c46      	adds	r6, r0, #1
    418e:	2200      	movs	r2, #0
    4190:	18f6      	adds	r6, r6, r3
    4192:	e002      	b.n	419a <rt_strncpy+0x16>
    4194:	3b01      	subs	r3, #1
    4196:	3201      	adds	r2, #1
    4198:	b153      	cbz	r3, 41b0 <rt_strncpy+0x2c>
    419a:	5c8c      	ldrb	r4, [r1, r2]
    419c:	1af0      	subs	r0, r6, r3
    419e:	54ac      	strb	r4, [r5, r2]
    41a0:	2c00      	cmp	r4, #0
    41a2:	d1f7      	bne.n	4194 <rt_strncpy+0x10>
    41a4:	1e5a      	subs	r2, r3, #1
    41a6:	2b01      	cmp	r3, #1
    41a8:	d002      	beq.n	41b0 <rt_strncpy+0x2c>
    41aa:	2100      	movs	r1, #0
    41ac:	f000 fd5c 	bl	4c68 <memset>
    41b0:	0028      	movs	r0, r5
    41b2:	bd70      	pop	{r4, r5, r6, pc}

000041b4 <rt_strncmp>:
    41b4:	b530      	push	{r4, r5, lr}
    41b6:	b16a      	cbz	r2, 41d4 <rt_strncmp+0x20>
    41b8:	2400      	movs	r4, #0
    41ba:	e003      	b.n	41c4 <rt_strncmp+0x10>
    41bc:	b155      	cbz	r5, 41d4 <rt_strncmp+0x20>
    41be:	3401      	adds	r4, #1
    41c0:	42a2      	cmp	r2, r4
    41c2:	d007      	beq.n	41d4 <rt_strncmp+0x20>
    41c4:	5d05      	ldrb	r5, [r0, r4]
    41c6:	5d0b      	ldrb	r3, [r1, r4]
    41c8:	1aeb      	subs	r3, r5, r3
    41ca:	b25b      	sxtb	r3, r3
    41cc:	2b00      	cmp	r3, #0
    41ce:	d0f5      	beq.n	41bc <rt_strncmp+0x8>
    41d0:	0018      	movs	r0, r3
    41d2:	e000      	b.n	41d6 <rt_strncmp+0x22>
    41d4:	2000      	movs	r0, #0
    41d6:	bd30      	pop	{r4, r5, pc}

000041d8 <rt_strcmp>:
    41d8:	7803      	ldrb	r3, [r0, #0]
    41da:	b92b      	cbnz	r3, 41e8 <rt_strcmp+0x10>
    41dc:	e00b      	b.n	41f6 <rt_strcmp+0x1e>
    41de:	7843      	ldrb	r3, [r0, #1]
    41e0:	3001      	adds	r0, #1
    41e2:	1c4a      	adds	r2, r1, #1
    41e4:	b12b      	cbz	r3, 41f2 <rt_strcmp+0x1a>
    41e6:	0011      	movs	r1, r2
    41e8:	780a      	ldrb	r2, [r1, #0]
    41ea:	429a      	cmp	r2, r3
    41ec:	d0f7      	beq.n	41de <rt_strcmp+0x6>
    41ee:	1a98      	subs	r0, r3, r2
    41f0:	4770      	bx	lr
    41f2:	784a      	ldrb	r2, [r1, #1]
    41f4:	e7fb      	b.n	41ee <rt_strcmp+0x16>
    41f6:	780a      	ldrb	r2, [r1, #0]
    41f8:	e7f9      	b.n	41ee <rt_strcmp+0x16>
    41fa:	46c0      	nop			; (mov r8, r8)

000041fc <rt_strnlen>:
    41fc:	b510      	push	{r4, lr}
    41fe:	7803      	ldrb	r3, [r0, #0]
    4200:	0004      	movs	r4, r0
    4202:	b153      	cbz	r3, 421a <rt_strnlen+0x1e>
    4204:	b149      	cbz	r1, 421a <rt_strnlen+0x1e>
    4206:	0003      	movs	r3, r0
    4208:	e001      	b.n	420e <rt_strnlen+0x12>
    420a:	4288      	cmp	r0, r1
    420c:	d204      	bcs.n	4218 <rt_strnlen+0x1c>
    420e:	785a      	ldrb	r2, [r3, #1]
    4210:	3301      	adds	r3, #1
    4212:	1b18      	subs	r0, r3, r4
    4214:	2a00      	cmp	r2, #0
    4216:	d1f8      	bne.n	420a <rt_strnlen+0xe>
    4218:	bd10      	pop	{r4, pc}
    421a:	2000      	movs	r0, #0
    421c:	e7fc      	b.n	4218 <rt_strnlen+0x1c>
    421e:	46c0      	nop			; (mov r8, r8)

00004220 <rt_strlen>:
    4220:	7803      	ldrb	r3, [r0, #0]
    4222:	b133      	cbz	r3, 4232 <rt_strlen+0x12>
    4224:	0003      	movs	r3, r0
    4226:	785a      	ldrb	r2, [r3, #1]
    4228:	3301      	adds	r3, #1
    422a:	2a00      	cmp	r2, #0
    422c:	d1fb      	bne.n	4226 <rt_strlen+0x6>
    422e:	1a18      	subs	r0, r3, r0
    4230:	4770      	bx	lr
    4232:	2000      	movs	r0, #0
    4234:	e7fc      	b.n	4230 <rt_strlen+0x10>
    4236:	46c0      	nop			; (mov r8, r8)

00004238 <rt_vsnprintf>:
    4238:	b5f0      	push	{r4, r5, r6, r7, lr}
    423a:	464e      	mov	r6, r9
    423c:	4645      	mov	r5, r8
    423e:	46de      	mov	lr, fp
    4240:	4657      	mov	r7, sl
    4242:	4681      	mov	r9, r0
    4244:	001c      	movs	r4, r3
    4246:	000b      	movs	r3, r1
    4248:	b5e0      	push	{r5, r6, r7, lr}
    424a:	444b      	add	r3, r9
    424c:	b08b      	sub	sp, #44	; 0x2c
    424e:	4698      	mov	r8, r3
    4250:	9104      	str	r1, [sp, #16]
    4252:	4298      	cmp	r0, r3
    4254:	d904      	bls.n	4260 <rt_vsnprintf+0x28>
    4256:	43c3      	mvns	r3, r0
    4258:	9304      	str	r3, [sp, #16]
    425a:	2301      	movs	r3, #1
    425c:	425b      	negs	r3, r3
    425e:	4698      	mov	r8, r3
    4260:	7811      	ldrb	r1, [r2, #0]
    4262:	4648      	mov	r0, r9
    4264:	2900      	cmp	r1, #0
    4266:	d100      	bne.n	426a <rt_vsnprintf+0x32>
    4268:	e200      	b.n	466c <rt_vsnprintf+0x434>
    426a:	4645      	mov	r5, r8
    426c:	46a0      	mov	r8, r4
    426e:	2925      	cmp	r1, #37	; 0x25
    4270:	d019      	beq.n	42a6 <rt_vsnprintf+0x6e>
    4272:	4285      	cmp	r5, r0
    4274:	d900      	bls.n	4278 <rt_vsnprintf+0x40>
    4276:	7001      	strb	r1, [r0, #0]
    4278:	7851      	ldrb	r1, [r2, #1]
    427a:	3001      	adds	r0, #1
    427c:	3201      	adds	r2, #1
    427e:	2900      	cmp	r1, #0
    4280:	d1f5      	bne.n	426e <rt_vsnprintf+0x36>
    4282:	46a8      	mov	r8, r5
    4284:	464b      	mov	r3, r9
    4286:	1ac2      	subs	r2, r0, r3
    4288:	9b04      	ldr	r3, [sp, #16]
    428a:	b123      	cbz	r3, 4296 <rt_vsnprintf+0x5e>
    428c:	4580      	cmp	r8, r0
    428e:	d800      	bhi.n	4292 <rt_vsnprintf+0x5a>
    4290:	e094      	b.n	43bc <rt_vsnprintf+0x184>
    4292:	2300      	movs	r3, #0
    4294:	7003      	strb	r3, [r0, #0]
    4296:	0010      	movs	r0, r2
    4298:	b00b      	add	sp, #44	; 0x2c
    429a:	bcf0      	pop	{r4, r5, r6, r7}
    429c:	46bb      	mov	fp, r7
    429e:	46b2      	mov	sl, r6
    42a0:	46a9      	mov	r9, r5
    42a2:	46a0      	mov	r8, r4
    42a4:	bdf0      	pop	{r4, r5, r6, r7, pc}
    42a6:	2301      	movs	r3, #1
    42a8:	469c      	mov	ip, r3
    42aa:	2320      	movs	r3, #32
    42ac:	469b      	mov	fp, r3
    42ae:	2308      	movs	r3, #8
    42b0:	7856      	ldrb	r6, [r2, #1]
    42b2:	469a      	mov	sl, r3
    42b4:	2700      	movs	r7, #0
    42b6:	2104      	movs	r1, #4
    42b8:	2310      	movs	r3, #16
    42ba:	1c54      	adds	r4, r2, #1
    42bc:	2e2d      	cmp	r6, #45	; 0x2d
    42be:	d00f      	beq.n	42e0 <rt_vsnprintf+0xa8>
    42c0:	2e2b      	cmp	r6, #43	; 0x2b
    42c2:	d011      	beq.n	42e8 <rt_vsnprintf+0xb0>
    42c4:	2e20      	cmp	r6, #32
    42c6:	d013      	beq.n	42f0 <rt_vsnprintf+0xb8>
    42c8:	2e23      	cmp	r6, #35	; 0x23
    42ca:	d016      	beq.n	42fa <rt_vsnprintf+0xc2>
    42cc:	2e30      	cmp	r6, #48	; 0x30
    42ce:	d119      	bne.n	4304 <rt_vsnprintf+0xcc>
    42d0:	4662      	mov	r2, ip
    42d2:	4317      	orrs	r7, r2
    42d4:	0022      	movs	r2, r4
    42d6:	b2ff      	uxtb	r7, r7
    42d8:	7856      	ldrb	r6, [r2, #1]
    42da:	1c54      	adds	r4, r2, #1
    42dc:	2e2d      	cmp	r6, #45	; 0x2d
    42de:	d1ef      	bne.n	42c0 <rt_vsnprintf+0x88>
    42e0:	431f      	orrs	r7, r3
    42e2:	0022      	movs	r2, r4
    42e4:	b2ff      	uxtb	r7, r7
    42e6:	e7f7      	b.n	42d8 <rt_vsnprintf+0xa0>
    42e8:	430f      	orrs	r7, r1
    42ea:	0022      	movs	r2, r4
    42ec:	b2ff      	uxtb	r7, r7
    42ee:	e7f3      	b.n	42d8 <rt_vsnprintf+0xa0>
    42f0:	4652      	mov	r2, sl
    42f2:	4317      	orrs	r7, r2
    42f4:	b2ff      	uxtb	r7, r7
    42f6:	0022      	movs	r2, r4
    42f8:	e7ee      	b.n	42d8 <rt_vsnprintf+0xa0>
    42fa:	465a      	mov	r2, fp
    42fc:	4317      	orrs	r7, r2
    42fe:	b2ff      	uxtb	r7, r7
    4300:	0022      	movs	r2, r4
    4302:	e7e9      	b.n	42d8 <rt_vsnprintf+0xa0>
    4304:	0031      	movs	r1, r6
    4306:	3930      	subs	r1, #48	; 0x30
    4308:	2909      	cmp	r1, #9
    430a:	d92c      	bls.n	4366 <rt_vsnprintf+0x12e>
    430c:	2e2a      	cmp	r6, #42	; 0x2a
    430e:	d03a      	beq.n	4386 <rt_vsnprintf+0x14e>
    4310:	2101      	movs	r1, #1
    4312:	4249      	negs	r1, r1
    4314:	2e2e      	cmp	r6, #46	; 0x2e
    4316:	d018      	beq.n	434a <rt_vsnprintf+0x112>
    4318:	2301      	movs	r3, #1
    431a:	425b      	negs	r3, r3
    431c:	469c      	mov	ip, r3
    431e:	2304      	movs	r3, #4
    4320:	0032      	movs	r2, r6
    4322:	439a      	bics	r2, r3
    4324:	0013      	movs	r3, r2
    4326:	2200      	movs	r2, #0
    4328:	2b68      	cmp	r3, #104	; 0x68
    432a:	d103      	bne.n	4334 <rt_vsnprintf+0xfc>
    432c:	7863      	ldrb	r3, [r4, #1]
    432e:	0032      	movs	r2, r6
    4330:	001e      	movs	r6, r3
    4332:	3401      	adds	r4, #1
    4334:	2e25      	cmp	r6, #37	; 0x25
    4336:	d100      	bne.n	433a <rt_vsnprintf+0x102>
    4338:	e12c      	b.n	4594 <rt_vsnprintf+0x35c>
    433a:	3e58      	subs	r6, #88	; 0x58
    433c:	b2f6      	uxtb	r6, r6
    433e:	2e20      	cmp	r6, #32
    4340:	d829      	bhi.n	4396 <rt_vsnprintf+0x15e>
    4342:	4bc0      	ldr	r3, [pc, #768]	; (4644 <rt_vsnprintf+0x40c>)
    4344:	00b6      	lsls	r6, r6, #2
    4346:	599b      	ldr	r3, [r3, r6]
    4348:	469f      	mov	pc, r3
    434a:	7863      	ldrb	r3, [r4, #1]
    434c:	1c62      	adds	r2, r4, #1
    434e:	001e      	movs	r6, r3
    4350:	3b30      	subs	r3, #48	; 0x30
    4352:	2b09      	cmp	r3, #9
    4354:	d800      	bhi.n	4358 <rt_vsnprintf+0x120>
    4356:	e127      	b.n	45a8 <rt_vsnprintf+0x370>
    4358:	2e2a      	cmp	r6, #42	; 0x2a
    435a:	d100      	bne.n	435e <rt_vsnprintf+0x126>
    435c:	e13d      	b.n	45da <rt_vsnprintf+0x3a2>
    435e:	0014      	movs	r4, r2
    4360:	f240 0c00 	movw	ip, #0
    4364:	e7db      	b.n	431e <rt_vsnprintf+0xe6>
    4366:	2100      	movs	r1, #0
    4368:	0032      	movs	r2, r6
    436a:	008b      	lsls	r3, r1, #2
    436c:	185b      	adds	r3, r3, r1
    436e:	3401      	adds	r4, #1
    4370:	005b      	lsls	r3, r3, #1
    4372:	189b      	adds	r3, r3, r2
    4374:	7822      	ldrb	r2, [r4, #0]
    4376:	3b30      	subs	r3, #48	; 0x30
    4378:	0019      	movs	r1, r3
    437a:	0013      	movs	r3, r2
    437c:	3b30      	subs	r3, #48	; 0x30
    437e:	0016      	movs	r6, r2
    4380:	2b09      	cmp	r3, #9
    4382:	d9f2      	bls.n	436a <rt_vsnprintf+0x132>
    4384:	e7c6      	b.n	4314 <rt_vsnprintf+0xdc>
    4386:	4643      	mov	r3, r8
    4388:	cb02      	ldmia	r3!, {r1}
    438a:	1c94      	adds	r4, r2, #2
    438c:	2900      	cmp	r1, #0
    438e:	db1a      	blt.n	43c6 <rt_vsnprintf+0x18e>
    4390:	4698      	mov	r8, r3
    4392:	7896      	ldrb	r6, [r2, #2]
    4394:	e7be      	b.n	4314 <rt_vsnprintf+0xdc>
    4396:	4285      	cmp	r5, r0
    4398:	d901      	bls.n	439e <rt_vsnprintf+0x166>
    439a:	2325      	movs	r3, #37	; 0x25
    439c:	7003      	strb	r3, [r0, #0]
    439e:	7823      	ldrb	r3, [r4, #0]
    43a0:	1c42      	adds	r2, r0, #1
    43a2:	2b00      	cmp	r3, #0
    43a4:	d100      	bne.n	43a8 <rt_vsnprintf+0x170>
    43a6:	e12e      	b.n	4606 <rt_vsnprintf+0x3ce>
    43a8:	42aa      	cmp	r2, r5
    43aa:	d200      	bcs.n	43ae <rt_vsnprintf+0x176>
    43ac:	7043      	strb	r3, [r0, #1]
    43ae:	7861      	ldrb	r1, [r4, #1]
    43b0:	3002      	adds	r0, #2
    43b2:	1c62      	adds	r2, r4, #1
    43b4:	2900      	cmp	r1, #0
    43b6:	d000      	beq.n	43ba <rt_vsnprintf+0x182>
    43b8:	e759      	b.n	426e <rt_vsnprintf+0x36>
    43ba:	e762      	b.n	4282 <rt_vsnprintf+0x4a>
    43bc:	4643      	mov	r3, r8
    43be:	2100      	movs	r1, #0
    43c0:	3b01      	subs	r3, #1
    43c2:	7019      	strb	r1, [r3, #0]
    43c4:	e767      	b.n	4296 <rt_vsnprintf+0x5e>
    43c6:	2610      	movs	r6, #16
    43c8:	4698      	mov	r8, r3
    43ca:	4337      	orrs	r7, r6
    43cc:	4249      	negs	r1, r1
    43ce:	7896      	ldrb	r6, [r2, #2]
    43d0:	e7a0      	b.n	4314 <rt_vsnprintf+0xdc>
    43d2:	2302      	movs	r3, #2
    43d4:	260a      	movs	r6, #10
    43d6:	431f      	orrs	r7, r3
    43d8:	2a6c      	cmp	r2, #108	; 0x6c
    43da:	d002      	beq.n	43e2 <rt_vsnprintf+0x1aa>
    43dc:	2a68      	cmp	r2, #104	; 0x68
    43de:	d100      	bne.n	43e2 <rt_vsnprintf+0x1aa>
    43e0:	e0d0      	b.n	4584 <rt_vsnprintf+0x34c>
    43e2:	4643      	mov	r3, r8
    43e4:	cb04      	ldmia	r3!, {r2}
    43e6:	4698      	mov	r8, r3
    43e8:	4663      	mov	r3, ip
    43ea:	9100      	str	r1, [sp, #0]
    43ec:	9301      	str	r3, [sp, #4]
    43ee:	0029      	movs	r1, r5
    43f0:	0033      	movs	r3, r6
    43f2:	9702      	str	r7, [sp, #8]
    43f4:	f7ff fabe 	bl	3974 <print_number>
    43f8:	7861      	ldrb	r1, [r4, #1]
    43fa:	1c62      	adds	r2, r4, #1
    43fc:	2900      	cmp	r1, #0
    43fe:	d000      	beq.n	4402 <rt_vsnprintf+0x1ca>
    4400:	e735      	b.n	426e <rt_vsnprintf+0x36>
    4402:	e73e      	b.n	4282 <rt_vsnprintf+0x4a>
    4404:	2340      	movs	r3, #64	; 0x40
    4406:	431f      	orrs	r7, r3
    4408:	2610      	movs	r6, #16
    440a:	e7e5      	b.n	43d8 <rt_vsnprintf+0x1a0>
    440c:	260a      	movs	r6, #10
    440e:	e7e3      	b.n	43d8 <rt_vsnprintf+0x1a0>
    4410:	4643      	mov	r3, r8
    4412:	cb04      	ldmia	r3!, {r2}
    4414:	9205      	str	r2, [sp, #20]
    4416:	9306      	str	r3, [sp, #24]
    4418:	2a00      	cmp	r2, #0
    441a:	d100      	bne.n	441e <rt_vsnprintf+0x1e6>
    441c:	e0fe      	b.n	461c <rt_vsnprintf+0x3e4>
    441e:	2200      	movs	r2, #0
    4420:	b141      	cbz	r1, 4434 <rt_vsnprintf+0x1fc>
    4422:	9e05      	ldr	r6, [sp, #20]
    4424:	e002      	b.n	442c <rt_vsnprintf+0x1f4>
    4426:	3201      	adds	r2, #1
    4428:	4291      	cmp	r1, r2
    442a:	d002      	beq.n	4432 <rt_vsnprintf+0x1fa>
    442c:	5cb3      	ldrb	r3, [r6, r2]
    442e:	2b00      	cmp	r3, #0
    4430:	d1f9      	bne.n	4426 <rt_vsnprintf+0x1ee>
    4432:	9605      	str	r6, [sp, #20]
    4434:	4663      	mov	r3, ip
    4436:	2b00      	cmp	r3, #0
    4438:	dd02      	ble.n	4440 <rt_vsnprintf+0x208>
    443a:	4562      	cmp	r2, ip
    443c:	dd00      	ble.n	4440 <rt_vsnprintf+0x208>
    443e:	4662      	mov	r2, ip
    4440:	06fb      	lsls	r3, r7, #27
    4442:	d400      	bmi.n	4446 <rt_vsnprintf+0x20e>
    4444:	e100      	b.n	4648 <rt_vsnprintf+0x410>
    4446:	2a00      	cmp	r2, #0
    4448:	d100      	bne.n	444c <rt_vsnprintf+0x214>
    444a:	e12d      	b.n	46a8 <rt_vsnprintf+0x470>
    444c:	1883      	adds	r3, r0, r2
    444e:	469b      	mov	fp, r3
    4450:	42a8      	cmp	r0, r5
    4452:	d25c      	bcs.n	450e <rt_vsnprintf+0x2d6>
    4454:	469c      	mov	ip, r3
    4456:	42ab      	cmp	r3, r5
    4458:	d900      	bls.n	445c <rt_vsnprintf+0x224>
    445a:	e0d9      	b.n	4610 <rt_vsnprintf+0x3d8>
    445c:	4666      	mov	r6, ip
    445e:	f240 0802 	movw	r8, #2
    4462:	1a37      	subs	r7, r6, r0
    4464:	9e05      	ldr	r6, [sp, #20]
    4466:	9707      	str	r7, [sp, #28]
    4468:	3601      	adds	r6, #1
    446a:	9609      	str	r6, [sp, #36]	; 0x24
    446c:	1b86      	subs	r6, r0, r6
    446e:	45b0      	cmp	r8, r6
    4470:	41b6      	sbcs	r6, r6
    4472:	f240 0800 	movw	r8, #0
    4476:	4276      	negs	r6, r6
    4478:	46b2      	mov	sl, r6
    447a:	4667      	mov	r7, ip
    447c:	4646      	mov	r6, r8
    447e:	1c43      	adds	r3, r0, #1
    4480:	429f      	cmp	r7, r3
    4482:	4176      	adcs	r6, r6
    4484:	46b0      	mov	r8, r6
    4486:	4656      	mov	r6, sl
    4488:	4647      	mov	r7, r8
    448a:	403e      	ands	r6, r7
    448c:	46b0      	mov	r8, r6
    448e:	0006      	movs	r6, r0
    4490:	f240 0a03 	movw	sl, #3
    4494:	9308      	str	r3, [sp, #32]
    4496:	9b05      	ldr	r3, [sp, #20]
    4498:	4647      	mov	r7, r8
    449a:	431e      	orrs	r6, r3
    449c:	0033      	movs	r3, r6
    449e:	4656      	mov	r6, sl
    44a0:	401e      	ands	r6, r3
    44a2:	4273      	negs	r3, r6
    44a4:	415e      	adcs	r6, r3
    44a6:	423e      	tst	r6, r7
    44a8:	d100      	bne.n	44ac <rt_vsnprintf+0x274>
    44aa:	e0e1      	b.n	4670 <rt_vsnprintf+0x438>
    44ac:	9b07      	ldr	r3, [sp, #28]
    44ae:	1e5e      	subs	r6, r3, #1
    44b0:	2e08      	cmp	r6, #8
    44b2:	d800      	bhi.n	44b6 <rt_vsnprintf+0x27e>
    44b4:	e0dc      	b.n	4670 <rt_vsnprintf+0x438>
    44b6:	9f08      	ldr	r7, [sp, #32]
    44b8:	2301      	movs	r3, #1
    44ba:	45bc      	cmp	ip, r7
    44bc:	d300      	bcc.n	44c0 <rt_vsnprintf+0x288>
    44be:	9b07      	ldr	r3, [sp, #28]
    44c0:	089f      	lsrs	r7, r3, #2
    44c2:	00be      	lsls	r6, r7, #2
    44c4:	46b2      	mov	sl, r6
    44c6:	4698      	mov	r8, r3
    44c8:	2700      	movs	r7, #0
    44ca:	4653      	mov	r3, sl
    44cc:	9e05      	ldr	r6, [sp, #20]
    44ce:	9205      	str	r2, [sp, #20]
    44d0:	59f2      	ldr	r2, [r6, r7]
    44d2:	51c2      	str	r2, [r0, r7]
    44d4:	3704      	adds	r7, #4
    44d6:	42bb      	cmp	r3, r7
    44d8:	d1fa      	bne.n	44d0 <rt_vsnprintf+0x298>
    44da:	4643      	mov	r3, r8
    44dc:	f240 0803 	movw	r8, #3
    44e0:	46b2      	mov	sl, r6
    44e2:	4647      	mov	r7, r8
    44e4:	001e      	movs	r6, r3
    44e6:	43be      	bics	r6, r7
    44e8:	46b0      	mov	r8, r6
    44ea:	4656      	mov	r6, sl
    44ec:	9a05      	ldr	r2, [sp, #20]
    44ee:	4440      	add	r0, r8
    44f0:	4446      	add	r6, r8
    44f2:	4598      	cmp	r8, r3
    44f4:	d00b      	beq.n	450e <rt_vsnprintf+0x2d6>
    44f6:	7837      	ldrb	r7, [r6, #0]
    44f8:	7007      	strb	r7, [r0, #0]
    44fa:	1c47      	adds	r7, r0, #1
    44fc:	45bc      	cmp	ip, r7
    44fe:	d906      	bls.n	450e <rt_vsnprintf+0x2d6>
    4500:	7877      	ldrb	r7, [r6, #1]
    4502:	7047      	strb	r7, [r0, #1]
    4504:	1c87      	adds	r7, r0, #2
    4506:	45bc      	cmp	ip, r7
    4508:	d901      	bls.n	450e <rt_vsnprintf+0x2d6>
    450a:	78b6      	ldrb	r6, [r6, #2]
    450c:	7086      	strb	r6, [r0, #2]
    450e:	465e      	mov	r6, fp
    4510:	1a88      	subs	r0, r1, r2
    4512:	1830      	adds	r0, r6, r0
    4514:	428a      	cmp	r2, r1
    4516:	db00      	blt.n	451a <rt_vsnprintf+0x2e2>
    4518:	e0bd      	b.n	4696 <rt_vsnprintf+0x45e>
    451a:	42b5      	cmp	r5, r6
    451c:	d901      	bls.n	4522 <rt_vsnprintf+0x2ea>
    451e:	2320      	movs	r3, #32
    4520:	7033      	strb	r3, [r6, #0]
    4522:	3601      	adds	r6, #1
    4524:	42b0      	cmp	r0, r6
    4526:	d1f8      	bne.n	451a <rt_vsnprintf+0x2e2>
    4528:	9b06      	ldr	r3, [sp, #24]
    452a:	7861      	ldrb	r1, [r4, #1]
    452c:	4698      	mov	r8, r3
    452e:	1c62      	adds	r2, r4, #1
    4530:	2900      	cmp	r1, #0
    4532:	d000      	beq.n	4536 <rt_vsnprintf+0x2fe>
    4534:	e69b      	b.n	426e <rt_vsnprintf+0x36>
    4536:	e6a4      	b.n	4282 <rt_vsnprintf+0x4a>
    4538:	1c4b      	adds	r3, r1, #1
    453a:	d06b      	beq.n	4614 <rt_vsnprintf+0x3dc>
    453c:	4663      	mov	r3, ip
    453e:	4646      	mov	r6, r8
    4540:	ce04      	ldmia	r6!, {r2}
    4542:	9301      	str	r3, [sp, #4]
    4544:	9100      	str	r1, [sp, #0]
    4546:	2310      	movs	r3, #16
    4548:	0029      	movs	r1, r5
    454a:	9702      	str	r7, [sp, #8]
    454c:	f7ff fa12 	bl	3974 <print_number>
    4550:	7861      	ldrb	r1, [r4, #1]
    4552:	46b0      	mov	r8, r6
    4554:	1c62      	adds	r2, r4, #1
    4556:	2900      	cmp	r1, #0
    4558:	d000      	beq.n	455c <rt_vsnprintf+0x324>
    455a:	e688      	b.n	426e <rt_vsnprintf+0x36>
    455c:	e691      	b.n	4282 <rt_vsnprintf+0x4a>
    455e:	06fb      	lsls	r3, r7, #27
    4560:	d562      	bpl.n	4628 <rt_vsnprintf+0x3f0>
    4562:	4643      	mov	r3, r8
    4564:	1d1e      	adds	r6, r3, #4
    4566:	42a8      	cmp	r0, r5
    4568:	d34a      	bcc.n	4600 <rt_vsnprintf+0x3c8>
    456a:	1c43      	adds	r3, r0, #1
    456c:	1840      	adds	r0, r0, r1
    456e:	2901      	cmp	r1, #1
    4570:	dc00      	bgt.n	4574 <rt_vsnprintf+0x33c>
    4572:	e088      	b.n	4686 <rt_vsnprintf+0x44e>
    4574:	429d      	cmp	r5, r3
    4576:	d901      	bls.n	457c <rt_vsnprintf+0x344>
    4578:	2220      	movs	r2, #32
    457a:	701a      	strb	r2, [r3, #0]
    457c:	3301      	adds	r3, #1
    457e:	4283      	cmp	r3, r0
    4580:	d1f8      	bne.n	4574 <rt_vsnprintf+0x33c>
    4582:	e7e5      	b.n	4550 <rt_vsnprintf+0x318>
    4584:	4643      	mov	r3, r8
    4586:	cb04      	ldmia	r3!, {r2}
    4588:	469a      	mov	sl, r3
    458a:	07bb      	lsls	r3, r7, #30
    458c:	d531      	bpl.n	45f2 <rt_vsnprintf+0x3ba>
    458e:	46d0      	mov	r8, sl
    4590:	b212      	sxth	r2, r2
    4592:	e729      	b.n	43e8 <rt_vsnprintf+0x1b0>
    4594:	4285      	cmp	r5, r0
    4596:	d900      	bls.n	459a <rt_vsnprintf+0x362>
    4598:	7006      	strb	r6, [r0, #0]
    459a:	7861      	ldrb	r1, [r4, #1]
    459c:	3001      	adds	r0, #1
    459e:	1c62      	adds	r2, r4, #1
    45a0:	2900      	cmp	r1, #0
    45a2:	d000      	beq.n	45a6 <rt_vsnprintf+0x36e>
    45a4:	e663      	b.n	426e <rt_vsnprintf+0x36>
    45a6:	e66c      	b.n	4282 <rt_vsnprintf+0x4a>
    45a8:	2300      	movs	r3, #0
    45aa:	468c      	mov	ip, r1
    45ac:	001c      	movs	r4, r3
    45ae:	0031      	movs	r1, r6
    45b0:	00a3      	lsls	r3, r4, #2
    45b2:	191b      	adds	r3, r3, r4
    45b4:	005b      	lsls	r3, r3, #1
    45b6:	185b      	adds	r3, r3, r1
    45b8:	7856      	ldrb	r6, [r2, #1]
    45ba:	3b30      	subs	r3, #48	; 0x30
    45bc:	001c      	movs	r4, r3
    45be:	0033      	movs	r3, r6
    45c0:	3b30      	subs	r3, #48	; 0x30
    45c2:	3201      	adds	r2, #1
    45c4:	0031      	movs	r1, r6
    45c6:	2b09      	cmp	r3, #9
    45c8:	d9f2      	bls.n	45b0 <rt_vsnprintf+0x378>
    45ca:	0023      	movs	r3, r4
    45cc:	43e4      	mvns	r4, r4
    45ce:	17e4      	asrs	r4, r4, #31
    45d0:	4023      	ands	r3, r4
    45d2:	4661      	mov	r1, ip
    45d4:	0014      	movs	r4, r2
    45d6:	469c      	mov	ip, r3
    45d8:	e6a1      	b.n	431e <rt_vsnprintf+0xe6>
    45da:	4643      	mov	r3, r8
    45dc:	cb04      	ldmia	r3!, {r2}
    45de:	3402      	adds	r4, #2
    45e0:	4694      	mov	ip, r2
    45e2:	43d2      	mvns	r2, r2
    45e4:	4666      	mov	r6, ip
    45e6:	17d2      	asrs	r2, r2, #31
    45e8:	4016      	ands	r6, r2
    45ea:	46b4      	mov	ip, r6
    45ec:	4698      	mov	r8, r3
    45ee:	7826      	ldrb	r6, [r4, #0]
    45f0:	e695      	b.n	431e <rt_vsnprintf+0xe6>
    45f2:	f64f 78ff 	movw	r8, #65535	; 0xffff
    45f6:	4643      	mov	r3, r8
    45f8:	4013      	ands	r3, r2
    45fa:	001a      	movs	r2, r3
    45fc:	46d0      	mov	r8, sl
    45fe:	e6f3      	b.n	43e8 <rt_vsnprintf+0x1b0>
    4600:	681b      	ldr	r3, [r3, #0]
    4602:	7003      	strb	r3, [r0, #0]
    4604:	e7b1      	b.n	456a <rt_vsnprintf+0x332>
    4606:	46a8      	mov	r8, r5
    4608:	0010      	movs	r0, r2
    460a:	e63b      	b.n	4284 <rt_vsnprintf+0x4c>
    460c:	2608      	movs	r6, #8
    460e:	e6e3      	b.n	43d8 <rt_vsnprintf+0x1a0>
    4610:	46ac      	mov	ip, r5
    4612:	e723      	b.n	445c <rt_vsnprintf+0x224>
    4614:	2301      	movs	r3, #1
    4616:	3109      	adds	r1, #9
    4618:	431f      	orrs	r7, r3
    461a:	e78f      	b.n	453c <rt_vsnprintf+0x304>
    461c:	f246 034c 	movw	r3, #24652	; 0x604c
    4620:	f2c0 0300 	movt	r3, #0
    4624:	9305      	str	r3, [sp, #20]
    4626:	e6fa      	b.n	441e <rt_vsnprintf+0x1e6>
    4628:	3901      	subs	r1, #1
    462a:	2900      	cmp	r1, #0
    462c:	dd99      	ble.n	4562 <rt_vsnprintf+0x32a>
    462e:	1841      	adds	r1, r0, r1
    4630:	4285      	cmp	r5, r0
    4632:	d901      	bls.n	4638 <rt_vsnprintf+0x400>
    4634:	2320      	movs	r3, #32
    4636:	7003      	strb	r3, [r0, #0]
    4638:	3001      	adds	r0, #1
    463a:	4288      	cmp	r0, r1
    463c:	d1f8      	bne.n	4630 <rt_vsnprintf+0x3f8>
    463e:	2100      	movs	r1, #0
    4640:	e78f      	b.n	4562 <rt_vsnprintf+0x32a>
    4642:	46c0      	nop			; (mov r8, r8)
    4644:	000060dc 	ldrdeq	r6, [r0], -ip
    4648:	1e4b      	subs	r3, r1, #1
    464a:	469c      	mov	ip, r3
    464c:	428a      	cmp	r2, r1
    464e:	da2d      	bge.n	46ac <rt_vsnprintf+0x474>
    4650:	1a8f      	subs	r7, r1, r2
    4652:	9e05      	ldr	r6, [sp, #20]
    4654:	19c7      	adds	r7, r0, r7
    4656:	4285      	cmp	r5, r0
    4658:	d901      	bls.n	465e <rt_vsnprintf+0x426>
    465a:	2320      	movs	r3, #32
    465c:	7003      	strb	r3, [r0, #0]
    465e:	3001      	adds	r0, #1
    4660:	42b8      	cmp	r0, r7
    4662:	d1f8      	bne.n	4656 <rt_vsnprintf+0x41e>
    4664:	1a51      	subs	r1, r2, r1
    4666:	9605      	str	r6, [sp, #20]
    4668:	4461      	add	r1, ip
    466a:	e6ec      	b.n	4446 <rt_vsnprintf+0x20e>
    466c:	2200      	movs	r2, #0
    466e:	e60b      	b.n	4288 <rt_vsnprintf+0x50>
    4670:	9e05      	ldr	r6, [sp, #20]
    4672:	9f09      	ldr	r7, [sp, #36]	; 0x24
    4674:	e000      	b.n	4678 <rt_vsnprintf+0x440>
    4676:	3701      	adds	r7, #1
    4678:	7833      	ldrb	r3, [r6, #0]
    467a:	003e      	movs	r6, r7
    467c:	7003      	strb	r3, [r0, #0]
    467e:	3001      	adds	r0, #1
    4680:	4560      	cmp	r0, ip
    4682:	d3f8      	bcc.n	4676 <rt_vsnprintf+0x43e>
    4684:	e743      	b.n	450e <rt_vsnprintf+0x2d6>
    4686:	7861      	ldrb	r1, [r4, #1]
    4688:	46b0      	mov	r8, r6
    468a:	0018      	movs	r0, r3
    468c:	1c62      	adds	r2, r4, #1
    468e:	2900      	cmp	r1, #0
    4690:	d000      	beq.n	4694 <rt_vsnprintf+0x45c>
    4692:	e5ec      	b.n	426e <rt_vsnprintf+0x36>
    4694:	e5f5      	b.n	4282 <rt_vsnprintf+0x4a>
    4696:	9b06      	ldr	r3, [sp, #24]
    4698:	7861      	ldrb	r1, [r4, #1]
    469a:	4698      	mov	r8, r3
    469c:	0030      	movs	r0, r6
    469e:	1c62      	adds	r2, r4, #1
    46a0:	2900      	cmp	r1, #0
    46a2:	d000      	beq.n	46a6 <rt_vsnprintf+0x46e>
    46a4:	e5e3      	b.n	426e <rt_vsnprintf+0x36>
    46a6:	e5ec      	b.n	4282 <rt_vsnprintf+0x4a>
    46a8:	0006      	movs	r6, r0
    46aa:	e731      	b.n	4510 <rt_vsnprintf+0x2d8>
    46ac:	0019      	movs	r1, r3
    46ae:	e6ca      	b.n	4446 <rt_vsnprintf+0x20e>

000046b0 <rt_snprintf>:
    46b0:	b40c      	push	{r2, r3}
    46b2:	b500      	push	{lr}
    46b4:	b083      	sub	sp, #12
    46b6:	ab04      	add	r3, sp, #16
    46b8:	cb04      	ldmia	r3!, {r2}
    46ba:	9301      	str	r3, [sp, #4]
    46bc:	f7ff fdbc 	bl	4238 <rt_vsnprintf>
    46c0:	b003      	add	sp, #12
    46c2:	bc08      	pop	{r3}
    46c4:	b002      	add	sp, #8
    46c6:	4718      	bx	r3

000046c8 <rt_vsprintf>:
    46c8:	b510      	push	{r4, lr}
    46ca:	2401      	movs	r4, #1
    46cc:	0013      	movs	r3, r2
    46ce:	000a      	movs	r2, r1
    46d0:	4261      	negs	r1, r4
    46d2:	f7ff fdb1 	bl	4238 <rt_vsnprintf>
    46d6:	bd10      	pop	{r4, pc}

000046d8 <rt_sprintf>:
    46d8:	b40e      	push	{r1, r2, r3}
    46da:	2101      	movs	r1, #1
    46dc:	b500      	push	{lr}
    46de:	b082      	sub	sp, #8
    46e0:	ab03      	add	r3, sp, #12
    46e2:	cb04      	ldmia	r3!, {r2}
    46e4:	4249      	negs	r1, r1
    46e6:	9301      	str	r3, [sp, #4]
    46e8:	f7ff fda6 	bl	4238 <rt_vsnprintf>
    46ec:	b002      	add	sp, #8
    46ee:	bc08      	pop	{r3}
    46f0:	b003      	add	sp, #12
    46f2:	4718      	bx	r3
    46f4:	4770      	bx	lr
    46f6:	46c0      	nop			; (mov r8, r8)

000046f8 <rt_kputs>:
    46f8:	b510      	push	{r4, lr}
    46fa:	b108      	cbz	r0, 4700 <rt_kputs+0x8>
    46fc:	f7fc ff08 	bl	1510 <rt_hw_console_output>
    4700:	bd10      	pop	{r4, pc}
    4702:	46c0      	nop			; (mov r8, r8)

00004704 <rt_kprintf>:
    4704:	b40f      	push	{r0, r1, r2, r3}
    4706:	b510      	push	{r4, lr}
    4708:	f644 44b8 	movw	r4, #19640	; 0x4cb8
    470c:	b082      	sub	sp, #8
    470e:	ab04      	add	r3, sp, #16
    4710:	cb04      	ldmia	r3!, {r2}
    4712:	f2c2 0400 	movt	r4, #8192	; 0x2000
    4716:	217f      	movs	r1, #127	; 0x7f
    4718:	0020      	movs	r0, r4
    471a:	9301      	str	r3, [sp, #4]
    471c:	f7ff fd8c 	bl	4238 <rt_vsnprintf>
    4720:	0020      	movs	r0, r4
    4722:	f7fc fef5 	bl	1510 <rt_hw_console_output>
    4726:	b002      	add	sp, #8
    4728:	bc10      	pop	{r4}
    472a:	bc08      	pop	{r3}
    472c:	b004      	add	sp, #16
    472e:	4718      	bx	r3

00004730 <rt_show_version>:
    4730:	f246 0054 	movw	r0, #24660	; 0x6054
    4734:	b500      	push	{lr}
    4736:	f2c0 0000 	movt	r0, #0
    473a:	b083      	sub	sp, #12
    473c:	f7ff ffe2 	bl	4704 <rt_kprintf>
    4740:	f246 0060 	movw	r0, #24672	; 0x6060
    4744:	f2c0 0000 	movt	r0, #0
    4748:	f7ff ffdc 	bl	4704 <rt_kprintf>
    474c:	f246 03a4 	movw	r3, #24740	; 0x60a4
    4750:	f246 0084 	movw	r0, #24708	; 0x6084
    4754:	f2c0 0300 	movt	r3, #0
    4758:	2201      	movs	r2, #1
    475a:	2103      	movs	r1, #3
    475c:	9300      	str	r3, [sp, #0]
    475e:	f2c0 0000 	movt	r0, #0
    4762:	2305      	movs	r3, #5
    4764:	f7ff ffce 	bl	4704 <rt_kprintf>
    4768:	f246 00b0 	movw	r0, #24752	; 0x60b0
    476c:	f2c0 0000 	movt	r0, #0
    4770:	f7ff ffc8 	bl	4704 <rt_kprintf>
    4774:	b003      	add	sp, #12
    4776:	bd00      	pop	{pc}

00004778 <__rt_ffs>:
    4778:	b1d8      	cbz	r0, 47b2 <__rt_ffs+0x3a>
    477a:	23ff      	movs	r3, #255	; 0xff
    477c:	001a      	movs	r2, r3
    477e:	4002      	ands	r2, r0
    4780:	4203      	tst	r3, r0
    4782:	d10f      	bne.n	47a4 <__rt_ffs+0x2c>
    4784:	f64f 7200 	movw	r2, #65280	; 0xff00
    4788:	4202      	tst	r2, r0
    478a:	d11d      	bne.n	47c8 <__rt_ffs+0x50>
    478c:	22ff      	movs	r2, #255	; 0xff
    478e:	0412      	lsls	r2, r2, #16
    4790:	4210      	tst	r0, r2
    4792:	d110      	bne.n	47b6 <__rt_ffs+0x3e>
    4794:	f246 1388 	movw	r3, #24968	; 0x6188
    4798:	0e00      	lsrs	r0, r0, #24
    479a:	f2c0 0300 	movt	r3, #0
    479e:	5c18      	ldrb	r0, [r3, r0]
    47a0:	3019      	adds	r0, #25
    47a2:	e005      	b.n	47b0 <__rt_ffs+0x38>
    47a4:	f246 1388 	movw	r3, #24968	; 0x6188
    47a8:	f2c0 0300 	movt	r3, #0
    47ac:	5c98      	ldrb	r0, [r3, r2]
    47ae:	3001      	adds	r0, #1
    47b0:	4770      	bx	lr
    47b2:	2000      	movs	r0, #0
    47b4:	e7fc      	b.n	47b0 <__rt_ffs+0x38>
    47b6:	f246 1288 	movw	r2, #24968	; 0x6188
    47ba:	1400      	asrs	r0, r0, #16
    47bc:	f2c0 0200 	movt	r2, #0
    47c0:	4018      	ands	r0, r3
    47c2:	5c10      	ldrb	r0, [r2, r0]
    47c4:	3011      	adds	r0, #17
    47c6:	e7f3      	b.n	47b0 <__rt_ffs+0x38>
    47c8:	f246 1288 	movw	r2, #24968	; 0x6188
    47cc:	1200      	asrs	r0, r0, #8
    47ce:	f2c0 0200 	movt	r2, #0
    47d2:	4018      	ands	r0, r3
    47d4:	5c10      	ldrb	r0, [r2, r0]
    47d6:	3009      	adds	r0, #9
    47d8:	e7ea      	b.n	47b0 <__rt_ffs+0x38>
    47da:	46c0      	nop			; (mov r8, r8)

000047dc <rti_start>:
    47dc:	2000      	movs	r0, #0
    47de:	4770      	bx	lr

000047e0 <main_thread_entry>:
    47e0:	b570      	push	{r4, r5, r6, lr}
    47e2:	f246 35fc 	movw	r5, #25596	; 0x63fc
    47e6:	f246 4604 	movw	r6, #25604	; 0x6404
    47ea:	f2c0 0500 	movt	r5, #0
    47ee:	f2c0 0600 	movt	r6, #0
    47f2:	42b5      	cmp	r5, r6
    47f4:	d209      	bcs.n	480a <main_thread_entry+0x2a>
    47f6:	2400      	movs	r4, #0
    47f8:	3e01      	subs	r6, #1
    47fa:	1b76      	subs	r6, r6, r5
    47fc:	08b6      	lsrs	r6, r6, #2
    47fe:	cd08      	ldmia	r5!, {r3}
    4800:	4798      	blx	r3
    4802:	0023      	movs	r3, r4
    4804:	3401      	adds	r4, #1
    4806:	42b3      	cmp	r3, r6
    4808:	d1f9      	bne.n	47fe <main_thread_entry+0x1e>
    480a:	f7fc fd67 	bl	12dc <main>
    480e:	bd70      	pop	{r4, r5, r6, pc}

00004810 <rti_end>:
    4810:	2000      	movs	r0, #0
    4812:	4770      	bx	lr

00004814 <rti_board_start>:
    4814:	2000      	movs	r0, #0
    4816:	4770      	bx	lr

00004818 <rti_board_end>:
    4818:	2000      	movs	r0, #0
    481a:	4770      	bx	lr

0000481c <rt_components_board_init>:
    481c:	b570      	push	{r4, r5, r6, lr}
    481e:	f246 35f4 	movw	r5, #25588	; 0x63f4
    4822:	f246 36fc 	movw	r6, #25596	; 0x63fc
    4826:	f2c0 0500 	movt	r5, #0
    482a:	f2c0 0600 	movt	r6, #0
    482e:	42b5      	cmp	r5, r6
    4830:	d209      	bcs.n	4846 <rt_components_board_init+0x2a>
    4832:	2400      	movs	r4, #0
    4834:	3e01      	subs	r6, #1
    4836:	1b76      	subs	r6, r6, r5
    4838:	08b6      	lsrs	r6, r6, #2
    483a:	cd08      	ldmia	r5!, {r3}
    483c:	4798      	blx	r3
    483e:	0023      	movs	r3, r4
    4840:	3401      	adds	r4, #1
    4842:	42b3      	cmp	r3, r6
    4844:	d1f9      	bne.n	483a <rt_components_board_init+0x1e>
    4846:	bd70      	pop	{r4, r5, r6, pc}

00004848 <rt_components_init>:
    4848:	b570      	push	{r4, r5, r6, lr}
    484a:	f246 35fc 	movw	r5, #25596	; 0x63fc
    484e:	f246 4604 	movw	r6, #25604	; 0x6404
    4852:	f2c0 0500 	movt	r5, #0
    4856:	f2c0 0600 	movt	r6, #0
    485a:	42b5      	cmp	r5, r6
    485c:	d209      	bcs.n	4872 <rt_components_init+0x2a>
    485e:	2400      	movs	r4, #0
    4860:	3e01      	subs	r6, #1
    4862:	1b76      	subs	r6, r6, r5
    4864:	08b6      	lsrs	r6, r6, #2
    4866:	cd08      	ldmia	r5!, {r3}
    4868:	4798      	blx	r3
    486a:	0023      	movs	r3, r4
    486c:	3401      	adds	r4, #1
    486e:	42b3      	cmp	r3, r6
    4870:	d1f9      	bne.n	4866 <rt_components_init+0x1e>
    4872:	bd70      	pop	{r4, r5, r6, pc}

00004874 <entry>:
    4874:	b510      	push	{r4, lr}
    4876:	b084      	sub	sp, #16
    4878:	f000 f8fe 	bl	4a78 <rt_hw_interrupt_disable>
    487c:	f7fc fdbe 	bl	13fc <rt_hw_board_init>
    4880:	f7ff ff56 	bl	4730 <rt_show_version>
    4884:	f7fe fdc6 	bl	3414 <rt_system_timer_init>
    4888:	f7fe fdce 	bl	3428 <rt_system_scheduler_init>
    488c:	2314      	movs	r3, #20
    488e:	9303      	str	r3, [sp, #12]
    4890:	3b12      	subs	r3, #18
    4892:	9302      	str	r3, [sp, #8]
    4894:	33fe      	adds	r3, #254	; 0xfe
    4896:	9301      	str	r3, [sp, #4]
    4898:	f644 5438 	movw	r4, #19768	; 0x4d38
    489c:	f644 53b0 	movw	r3, #19888	; 0x4db0
    48a0:	f244 72e1 	movw	r2, #18401	; 0x47e1
    48a4:	f246 2188 	movw	r1, #25224	; 0x6288
    48a8:	f2c2 0400 	movt	r4, #8192	; 0x2000
    48ac:	f2c2 0300 	movt	r3, #8192	; 0x2000
    48b0:	f2c0 0200 	movt	r2, #0
    48b4:	f2c0 0100 	movt	r1, #0
    48b8:	9300      	str	r3, [sp, #0]
    48ba:	0020      	movs	r0, r4
    48bc:	2300      	movs	r3, #0
    48be:	f7fe f9b9 	bl	2c34 <rt_thread_init>
    48c2:	0020      	movs	r0, r4
    48c4:	f7fe fa02 	bl	2ccc <rt_thread_startup>
    48c8:	f7fe fdac 	bl	3424 <rt_system_timer_thread_init>
    48cc:	f7ff f82a 	bl	3924 <rt_thread_idle_init>
    48d0:	f7fe fdda 	bl	3488 <rt_system_scheduler_start>
    48d4:	2000      	movs	r0, #0
    48d6:	b004      	add	sp, #16
    48d8:	bd10      	pop	{r4, pc}
    48da:	46c0      	nop			; (mov r8, r8)

000048dc <rt_application_init>:
    48dc:	2314      	movs	r3, #20
    48de:	b510      	push	{r4, lr}
    48e0:	b084      	sub	sp, #16
    48e2:	9303      	str	r3, [sp, #12]
    48e4:	3b12      	subs	r3, #18
    48e6:	9302      	str	r3, [sp, #8]
    48e8:	33fe      	adds	r3, #254	; 0xfe
    48ea:	9301      	str	r3, [sp, #4]
    48ec:	f644 5438 	movw	r4, #19768	; 0x4d38
    48f0:	f644 53b0 	movw	r3, #19888	; 0x4db0
    48f4:	f244 72e1 	movw	r2, #18401	; 0x47e1
    48f8:	f246 2188 	movw	r1, #25224	; 0x6288
    48fc:	f2c2 0400 	movt	r4, #8192	; 0x2000
    4900:	f2c2 0300 	movt	r3, #8192	; 0x2000
    4904:	f2c0 0200 	movt	r2, #0
    4908:	f2c0 0100 	movt	r1, #0
    490c:	9300      	str	r3, [sp, #0]
    490e:	0020      	movs	r0, r4
    4910:	2300      	movs	r3, #0
    4912:	f7fe f98f 	bl	2c34 <rt_thread_init>
    4916:	0020      	movs	r0, r4
    4918:	f7fe f9d8 	bl	2ccc <rt_thread_startup>
    491c:	b004      	add	sp, #16
    491e:	bd10      	pop	{r4, pc}

00004920 <rtthread_startup>:
    4920:	b510      	push	{r4, lr}
    4922:	b084      	sub	sp, #16
    4924:	f000 f8a8 	bl	4a78 <rt_hw_interrupt_disable>
    4928:	f7fc fd68 	bl	13fc <rt_hw_board_init>
    492c:	f7ff ff00 	bl	4730 <rt_show_version>
    4930:	f7fe fd70 	bl	3414 <rt_system_timer_init>
    4934:	f7fe fd78 	bl	3428 <rt_system_scheduler_init>
    4938:	2314      	movs	r3, #20
    493a:	9303      	str	r3, [sp, #12]
    493c:	3b12      	subs	r3, #18
    493e:	9302      	str	r3, [sp, #8]
    4940:	33fe      	adds	r3, #254	; 0xfe
    4942:	9301      	str	r3, [sp, #4]
    4944:	f644 5438 	movw	r4, #19768	; 0x4d38
    4948:	f644 53b0 	movw	r3, #19888	; 0x4db0
    494c:	f244 72e1 	movw	r2, #18401	; 0x47e1
    4950:	f246 2188 	movw	r1, #25224	; 0x6288
    4954:	f2c2 0400 	movt	r4, #8192	; 0x2000
    4958:	f2c2 0300 	movt	r3, #8192	; 0x2000
    495c:	f2c0 0200 	movt	r2, #0
    4960:	f2c0 0100 	movt	r1, #0
    4964:	9300      	str	r3, [sp, #0]
    4966:	0020      	movs	r0, r4
    4968:	2300      	movs	r3, #0
    496a:	f7fe f963 	bl	2c34 <rt_thread_init>
    496e:	0020      	movs	r0, r4
    4970:	f7fe f9ac 	bl	2ccc <rt_thread_startup>
    4974:	f7fe fd56 	bl	3424 <rt_system_timer_thread_init>
    4978:	f7fe ffd4 	bl	3924 <rt_thread_idle_init>
    497c:	f7fe fd84 	bl	3488 <rt_system_scheduler_start>
    4980:	2000      	movs	r0, #0
    4982:	b004      	add	sp, #16
    4984:	bd10      	pop	{r4, pc}
    4986:	46c0      	nop			; (mov r8, r8)

00004988 <rt_hw_stack_init>:
    4988:	b5f0      	push	{r4, r5, r6, r7, lr}
    498a:	1d14      	adds	r4, r2, #4
    498c:	2207      	movs	r2, #7
    498e:	4394      	bics	r4, r2
    4990:	0022      	movs	r2, r4
    4992:	0025      	movs	r5, r4
    4994:	f64b 66ef 	movw	r6, #48879	; 0xbeef
    4998:	f64b 67ef 	movw	r7, #48879	; 0xbeef
    499c:	3a40      	subs	r2, #64	; 0x40
    499e:	f6cd 66ad 	movt	r6, #57005	; 0xdead
    49a2:	f6cd 67ad 	movt	r7, #57005	; 0xdead
    49a6:	3d38      	subs	r5, #56	; 0x38
    49a8:	3c28      	subs	r4, #40	; 0x28
    49aa:	6016      	str	r6, [r2, #0]
    49ac:	6057      	str	r7, [r2, #4]
    49ae:	602e      	str	r6, [r5, #0]
    49b0:	606f      	str	r7, [r5, #4]
    49b2:	60ae      	str	r6, [r5, #8]
    49b4:	60ef      	str	r7, [r5, #12]
    49b6:	6026      	str	r6, [r4, #0]
    49b8:	6067      	str	r7, [r4, #4]
    49ba:	6353      	str	r3, [r2, #52]	; 0x34
    49bc:	2380      	movs	r3, #128	; 0x80
    49be:	6211      	str	r1, [r2, #32]
    49c0:	2100      	movs	r1, #0
    49c2:	045b      	lsls	r3, r3, #17
    49c4:	6390      	str	r0, [r2, #56]	; 0x38
    49c6:	6251      	str	r1, [r2, #36]	; 0x24
    49c8:	0010      	movs	r0, r2
    49ca:	6291      	str	r1, [r2, #40]	; 0x28
    49cc:	62d1      	str	r1, [r2, #44]	; 0x2c
    49ce:	6311      	str	r1, [r2, #48]	; 0x30
    49d0:	63d3      	str	r3, [r2, #60]	; 0x3c
    49d2:	bdf0      	pop	{r4, r5, r6, r7, pc}

000049d4 <rt_hw_hard_fault_exception>:
    49d4:	b510      	push	{r4, lr}
    49d6:	69c1      	ldr	r1, [r0, #28]
    49d8:	0004      	movs	r4, r0
    49da:	f246 2090 	movw	r0, #25232	; 0x6290
    49de:	f2c0 0000 	movt	r0, #0
    49e2:	f7ff fe8f 	bl	4704 <rt_kprintf>
    49e6:	f246 20a0 	movw	r0, #25248	; 0x62a0
    49ea:	69a1      	ldr	r1, [r4, #24]
    49ec:	f2c0 0000 	movt	r0, #0
    49f0:	f7ff fe88 	bl	4704 <rt_kprintf>
    49f4:	f246 20b0 	movw	r0, #25264	; 0x62b0
    49f8:	6961      	ldr	r1, [r4, #20]
    49fa:	f2c0 0000 	movt	r0, #0
    49fe:	f7ff fe81 	bl	4704 <rt_kprintf>
    4a02:	f246 20c0 	movw	r0, #25280	; 0x62c0
    4a06:	6921      	ldr	r1, [r4, #16]
    4a08:	f2c0 0000 	movt	r0, #0
    4a0c:	f7ff fe7a 	bl	4704 <rt_kprintf>
    4a10:	f246 20d0 	movw	r0, #25296	; 0x62d0
    4a14:	68e1      	ldr	r1, [r4, #12]
    4a16:	f2c0 0000 	movt	r0, #0
    4a1a:	f7ff fe73 	bl	4704 <rt_kprintf>
    4a1e:	f246 20e0 	movw	r0, #25312	; 0x62e0
    4a22:	68a1      	ldr	r1, [r4, #8]
    4a24:	f2c0 0000 	movt	r0, #0
    4a28:	f7ff fe6c 	bl	4704 <rt_kprintf>
    4a2c:	f246 20f0 	movw	r0, #25328	; 0x62f0
    4a30:	6861      	ldr	r1, [r4, #4]
    4a32:	f2c0 0000 	movt	r0, #0
    4a36:	f7ff fe65 	bl	4704 <rt_kprintf>
    4a3a:	f246 3000 	movw	r0, #25344	; 0x6300
    4a3e:	6821      	ldr	r1, [r4, #0]
    4a40:	f2c0 0000 	movt	r0, #0
    4a44:	f7ff fe5e 	bl	4704 <rt_kprintf>
    4a48:	f644 33a8 	movw	r3, #19368	; 0x4ba8
    4a4c:	f246 3010 	movw	r0, #25360	; 0x6310
    4a50:	f2c2 0300 	movt	r3, #8192	; 0x2000
    4a54:	6819      	ldr	r1, [r3, #0]
    4a56:	f2c0 0000 	movt	r0, #0
    4a5a:	f7ff fe53 	bl	4704 <rt_kprintf>
    4a5e:	f7fd fc63 	bl	2328 <list_thread>
    4a62:	e7fe      	b.n	4a62 <rt_hw_hard_fault_exception+0x8e>

00004a64 <rt_hw_cpu_reset>:
    4a64:	f64e 5300 	movw	r3, #60672	; 0xed00
    4a68:	2204      	movs	r2, #4
    4a6a:	f2ce 0300 	movt	r3, #57344	; 0xe000
    4a6e:	f2c0 52fa 	movt	r2, #1530	; 0x5fa
    4a72:	601a      	str	r2, [r3, #0]
    4a74:	4770      	bx	lr
    4a76:	46c0      	nop			; (mov r8, r8)

00004a78 <rt_hw_interrupt_disable>:
    4a78:	f3ef 8010 	mrs	r0, PRIMASK
    4a7c:	b672      	cpsid	i
    4a7e:	4770      	bx	lr

00004a80 <rt_hw_interrupt_enable>:
    4a80:	f380 8810 	msr	PRIMASK, r0
    4a84:	4770      	bx	lr

00004a86 <rt_hw_context_switch>:
    4a86:	4a2d      	ldr	r2, [pc, #180]	; (4b3c <rt_hw_interrupt_check+0x6>)
    4a88:	6813      	ldr	r3, [r2, #0]
    4a8a:	2b01      	cmp	r3, #1
    4a8c:	d003      	beq.n	4a96 <_reswitch>
    4a8e:	2301      	movs	r3, #1
    4a90:	6013      	str	r3, [r2, #0]
    4a92:	4a2b      	ldr	r2, [pc, #172]	; (4b40 <rt_hw_interrupt_check+0xa>)
    4a94:	6010      	str	r0, [r2, #0]

00004a96 <_reswitch>:
    4a96:	4a2b      	ldr	r2, [pc, #172]	; (4b44 <rt_hw_interrupt_check+0xe>)
    4a98:	6011      	str	r1, [r2, #0]
    4a9a:	482b      	ldr	r0, [pc, #172]	; (4b48 <rt_hw_interrupt_check+0x12>)
    4a9c:	492b      	ldr	r1, [pc, #172]	; (4b4c <rt_hw_interrupt_check+0x16>)
    4a9e:	6001      	str	r1, [r0, #0]
    4aa0:	4770      	bx	lr

00004aa2 <PendSV_Handler>:
    4aa2:	f3ef 8210 	mrs	r2, PRIMASK
    4aa6:	b672      	cpsid	i
    4aa8:	4824      	ldr	r0, [pc, #144]	; (4b3c <rt_hw_interrupt_check+0x6>)
    4aaa:	6801      	ldr	r1, [r0, #0]
    4aac:	2900      	cmp	r1, #0
    4aae:	d01d      	beq.n	4aec <pendsv_exit>
    4ab0:	2100      	movs	r1, #0
    4ab2:	6001      	str	r1, [r0, #0]
    4ab4:	4822      	ldr	r0, [pc, #136]	; (4b40 <rt_hw_interrupt_check+0xa>)
    4ab6:	6801      	ldr	r1, [r0, #0]
    4ab8:	2900      	cmp	r1, #0
    4aba:	d00a      	beq.n	4ad2 <switch_to_thread>
    4abc:	f3ef 8109 	mrs	r1, PSP
    4ac0:	3920      	subs	r1, #32
    4ac2:	6800      	ldr	r0, [r0, #0]
    4ac4:	6001      	str	r1, [r0, #0]
    4ac6:	c1f0      	stmia	r1!, {r4, r5, r6, r7}
    4ac8:	4644      	mov	r4, r8
    4aca:	464d      	mov	r5, r9
    4acc:	4656      	mov	r6, sl
    4ace:	465f      	mov	r7, fp
    4ad0:	c1f0      	stmia	r1!, {r4, r5, r6, r7}

00004ad2 <switch_to_thread>:
    4ad2:	491c      	ldr	r1, [pc, #112]	; (4b44 <rt_hw_interrupt_check+0xe>)
    4ad4:	6809      	ldr	r1, [r1, #0]
    4ad6:	6809      	ldr	r1, [r1, #0]
    4ad8:	c9f0      	ldmia	r1!, {r4, r5, r6, r7}
    4ada:	b4f0      	push	{r4, r5, r6, r7}
    4adc:	c9f0      	ldmia	r1!, {r4, r5, r6, r7}
    4ade:	46a0      	mov	r8, r4
    4ae0:	46a9      	mov	r9, r5
    4ae2:	46b2      	mov	sl, r6
    4ae4:	46bb      	mov	fp, r7
    4ae6:	bcf0      	pop	{r4, r5, r6, r7}
    4ae8:	f381 8809 	msr	PSP, r1

00004aec <pendsv_exit>:
    4aec:	f382 8810 	msr	PRIMASK, r2
    4af0:	2003      	movs	r0, #3
    4af2:	4240      	negs	r0, r0
    4af4:	4700      	bx	r0

00004af6 <rt_hw_context_switch_to>:
    4af6:	4913      	ldr	r1, [pc, #76]	; (4b44 <rt_hw_interrupt_check+0xe>)
    4af8:	6008      	str	r0, [r1, #0]
    4afa:	4911      	ldr	r1, [pc, #68]	; (4b40 <rt_hw_interrupt_check+0xa>)
    4afc:	2000      	movs	r0, #0
    4afe:	6008      	str	r0, [r1, #0]
    4b00:	490e      	ldr	r1, [pc, #56]	; (4b3c <rt_hw_interrupt_check+0x6>)
    4b02:	2001      	movs	r0, #1
    4b04:	6008      	str	r0, [r1, #0]
    4b06:	4812      	ldr	r0, [pc, #72]	; (4b50 <rt_hw_interrupt_check+0x1a>)
    4b08:	4912      	ldr	r1, [pc, #72]	; (4b54 <rt_hw_interrupt_check+0x1e>)
    4b0a:	6802      	ldr	r2, [r0, #0]
    4b0c:	4311      	orrs	r1, r2
    4b0e:	6001      	str	r1, [r0, #0]
    4b10:	480d      	ldr	r0, [pc, #52]	; (4b48 <rt_hw_interrupt_check+0x12>)
    4b12:	490e      	ldr	r1, [pc, #56]	; (4b4c <rt_hw_interrupt_check+0x16>)
    4b14:	6001      	str	r1, [r0, #0]
    4b16:	46c0      	nop			; (mov r8, r8)
    4b18:	480f      	ldr	r0, [pc, #60]	; (4b58 <rt_hw_interrupt_check+0x22>)
    4b1a:	6800      	ldr	r0, [r0, #0]
    4b1c:	6800      	ldr	r0, [r0, #0]
    4b1e:	46c0      	nop			; (mov r8, r8)
    4b20:	f380 8808 	msr	MSP, r0
    4b24:	b662      	cpsie	i

00004b26 <rt_hw_interrupt_thread_switch>:
    4b26:	4770      	bx	lr
    4b28:	46c0      	nop			; (mov r8, r8)

00004b2a <HardFault_Handler>:
    4b2a:	f3ef 8009 	mrs	r0, PSP
    4b2e:	b500      	push	{lr}
    4b30:	f7ff ff50 	bl	49d4 <rt_hw_hard_fault_exception>
    4b34:	bd00      	pop	{pc}

00004b36 <rt_hw_interrupt_check>:
    4b36:	f3ef 8005 	mrs	r0, IPSR
    4b3a:	4770      	bx	lr
    4b3c:	20004eb0 			; <UNDEFINED> instruction: 0x20004eb0
    4b40:	20004eb8 			; <UNDEFINED> instruction: 0x20004eb8
    4b44:	20004eb4 			; <UNDEFINED> instruction: 0x20004eb4
    4b48:	e000ed04 	and	lr, r0, r4, lsl #26
    4b4c:	10000000 	andne	r0, r0, r0
    4b50:	e000ed20 	and	lr, r0, r0, lsr #26
    4b54:	ffff0000 			; <UNDEFINED> instruction: 0xffff0000
    4b58:	e000ed08 	and	lr, r0, r8, lsl #26

00004b5c <exit>:
    4b5c:	b510      	push	{r4, lr}
    4b5e:	2100      	movs	r1, #0
    4b60:	0004      	movs	r4, r0
    4b62:	f000 f943 	bl	4dec <__call_exitprocs>
    4b66:	f246 332c 	movw	r3, #25388	; 0x632c
    4b6a:	f2c0 0300 	movt	r3, #0
    4b6e:	6818      	ldr	r0, [r3, #0]
    4b70:	6bc3      	ldr	r3, [r0, #60]	; 0x3c
    4b72:	b103      	cbz	r3, 4b76 <exit+0x1a>
    4b74:	4798      	blx	r3
    4b76:	0020      	movs	r0, r4
    4b78:	f000 fa3e 	bl	4ff8 <_exit>

00004b7c <__libc_init_array>:
    4b7c:	b570      	push	{r4, r5, r6, lr}
    4b7e:	f244 4668 	movw	r6, #17512	; 0x4468
    4b82:	f244 4568 	movw	r5, #17512	; 0x4468
    4b86:	f2c2 0600 	movt	r6, #8192	; 0x2000
    4b8a:	f2c2 0500 	movt	r5, #8192	; 0x2000
    4b8e:	1b76      	subs	r6, r6, r5
    4b90:	10b6      	asrs	r6, r6, #2
    4b92:	b12e      	cbz	r6, 4ba0 <__libc_init_array+0x24>
    4b94:	2400      	movs	r4, #0
    4b96:	cd08      	ldmia	r5!, {r3}
    4b98:	3401      	adds	r4, #1
    4b9a:	4798      	blx	r3
    4b9c:	42a6      	cmp	r6, r4
    4b9e:	d1fa      	bne.n	4b96 <__libc_init_array+0x1a>
    4ba0:	f244 4670 	movw	r6, #17520	; 0x4470
    4ba4:	f244 4568 	movw	r5, #17512	; 0x4468
    4ba8:	f2c2 0600 	movt	r6, #8192	; 0x2000
    4bac:	f2c2 0500 	movt	r5, #8192	; 0x2000
    4bb0:	1b76      	subs	r6, r6, r5
    4bb2:	10b6      	asrs	r6, r6, #2
    4bb4:	f000 fa22 	bl	4ffc <_init>
    4bb8:	b12e      	cbz	r6, 4bc6 <__libc_init_array+0x4a>
    4bba:	2400      	movs	r4, #0
    4bbc:	cd08      	ldmia	r5!, {r3}
    4bbe:	3401      	adds	r4, #1
    4bc0:	4798      	blx	r3
    4bc2:	42a6      	cmp	r6, r4
    4bc4:	d1fa      	bne.n	4bbc <__libc_init_array+0x40>
    4bc6:	bd70      	pop	{r4, r5, r6, pc}

00004bc8 <memcpy>:
    4bc8:	b5f0      	push	{r4, r5, r6, r7, lr}
    4bca:	46c6      	mov	lr, r8
    4bcc:	b500      	push	{lr}
    4bce:	2a0f      	cmp	r2, #15
    4bd0:	d940      	bls.n	4c54 <memcpy+0x8c>
    4bd2:	2703      	movs	r7, #3
    4bd4:	000d      	movs	r5, r1
    4bd6:	003e      	movs	r6, r7
    4bd8:	4305      	orrs	r5, r0
    4bda:	000c      	movs	r4, r1
    4bdc:	0003      	movs	r3, r0
    4bde:	402e      	ands	r6, r5
    4be0:	422f      	tst	r7, r5
    4be2:	d13c      	bne.n	4c5e <memcpy+0x96>
    4be4:	0015      	movs	r5, r2
    4be6:	3d10      	subs	r5, #16
    4be8:	092d      	lsrs	r5, r5, #4
    4bea:	46a8      	mov	r8, r5
    4bec:	012d      	lsls	r5, r5, #4
    4bee:	46ac      	mov	ip, r5
    4bf0:	4484      	add	ip, r0
    4bf2:	6827      	ldr	r7, [r4, #0]
    4bf4:	001d      	movs	r5, r3
    4bf6:	601f      	str	r7, [r3, #0]
    4bf8:	6867      	ldr	r7, [r4, #4]
    4bfa:	605f      	str	r7, [r3, #4]
    4bfc:	68a7      	ldr	r7, [r4, #8]
    4bfe:	609f      	str	r7, [r3, #8]
    4c00:	68e7      	ldr	r7, [r4, #12]
    4c02:	3410      	adds	r4, #16
    4c04:	60df      	str	r7, [r3, #12]
    4c06:	3310      	adds	r3, #16
    4c08:	4565      	cmp	r5, ip
    4c0a:	d1f2      	bne.n	4bf2 <memcpy+0x2a>
    4c0c:	4645      	mov	r5, r8
    4c0e:	230f      	movs	r3, #15
    4c10:	240c      	movs	r4, #12
    4c12:	3501      	adds	r5, #1
    4c14:	012d      	lsls	r5, r5, #4
    4c16:	1949      	adds	r1, r1, r5
    4c18:	4013      	ands	r3, r2
    4c1a:	1945      	adds	r5, r0, r5
    4c1c:	4214      	tst	r4, r2
    4c1e:	d021      	beq.n	4c64 <memcpy+0x9c>
    4c20:	598c      	ldr	r4, [r1, r6]
    4c22:	51ac      	str	r4, [r5, r6]
    4c24:	3604      	adds	r6, #4
    4c26:	1b9c      	subs	r4, r3, r6
    4c28:	2c03      	cmp	r4, #3
    4c2a:	d8f9      	bhi.n	4c20 <memcpy+0x58>
    4c2c:	3b04      	subs	r3, #4
    4c2e:	089b      	lsrs	r3, r3, #2
    4c30:	3301      	adds	r3, #1
    4c32:	009b      	lsls	r3, r3, #2
    4c34:	18ed      	adds	r5, r5, r3
    4c36:	18c9      	adds	r1, r1, r3
    4c38:	2303      	movs	r3, #3
    4c3a:	401a      	ands	r2, r3
    4c3c:	1e56      	subs	r6, r2, #1
    4c3e:	b132      	cbz	r2, 4c4e <memcpy+0x86>
    4c40:	2300      	movs	r3, #0
    4c42:	5ccc      	ldrb	r4, [r1, r3]
    4c44:	001a      	movs	r2, r3
    4c46:	54ec      	strb	r4, [r5, r3]
    4c48:	3301      	adds	r3, #1
    4c4a:	4296      	cmp	r6, r2
    4c4c:	d1f9      	bne.n	4c42 <memcpy+0x7a>
    4c4e:	bc80      	pop	{r7}
    4c50:	46b8      	mov	r8, r7
    4c52:	bdf0      	pop	{r4, r5, r6, r7, pc}
    4c54:	0005      	movs	r5, r0
    4c56:	1e56      	subs	r6, r2, #1
    4c58:	2a00      	cmp	r2, #0
    4c5a:	d1f1      	bne.n	4c40 <memcpy+0x78>
    4c5c:	e7f7      	b.n	4c4e <memcpy+0x86>
    4c5e:	0005      	movs	r5, r0
    4c60:	1e56      	subs	r6, r2, #1
    4c62:	e7ed      	b.n	4c40 <memcpy+0x78>
    4c64:	001a      	movs	r2, r3
    4c66:	e7f6      	b.n	4c56 <memcpy+0x8e>

00004c68 <memset>:
    4c68:	b5f0      	push	{r4, r5, r6, r7, lr}
    4c6a:	0783      	lsls	r3, r0, #30
    4c6c:	d047      	beq.n	4cfe <memset+0x96>
    4c6e:	1e54      	subs	r4, r2, #1
    4c70:	2a00      	cmp	r2, #0
    4c72:	d043      	beq.n	4cfc <memset+0x94>
    4c74:	0003      	movs	r3, r0
    4c76:	2503      	movs	r5, #3
    4c78:	b2ce      	uxtb	r6, r1
    4c7a:	e001      	b.n	4c80 <memset+0x18>
    4c7c:	3c01      	subs	r4, #1
    4c7e:	d33d      	bcc.n	4cfc <memset+0x94>
    4c80:	3301      	adds	r3, #1
    4c82:	1e5a      	subs	r2, r3, #1
    4c84:	7016      	strb	r6, [r2, #0]
    4c86:	422b      	tst	r3, r5
    4c88:	d1f8      	bne.n	4c7c <memset+0x14>
    4c8a:	2c03      	cmp	r4, #3
    4c8c:	d92f      	bls.n	4cee <memset+0x86>
    4c8e:	22ff      	movs	r2, #255	; 0xff
    4c90:	400a      	ands	r2, r1
    4c92:	0215      	lsls	r5, r2, #8
    4c94:	4315      	orrs	r5, r2
    4c96:	042a      	lsls	r2, r5, #16
    4c98:	4315      	orrs	r5, r2
    4c9a:	2c0f      	cmp	r4, #15
    4c9c:	d932      	bls.n	4d04 <memset+0x9c>
    4c9e:	0027      	movs	r7, r4
    4ca0:	3f10      	subs	r7, #16
    4ca2:	093f      	lsrs	r7, r7, #4
    4ca4:	013e      	lsls	r6, r7, #4
    4ca6:	46b4      	mov	ip, r6
    4ca8:	001e      	movs	r6, r3
    4caa:	001a      	movs	r2, r3
    4cac:	3610      	adds	r6, #16
    4cae:	4466      	add	r6, ip
    4cb0:	6015      	str	r5, [r2, #0]
    4cb2:	6055      	str	r5, [r2, #4]
    4cb4:	6095      	str	r5, [r2, #8]
    4cb6:	60d5      	str	r5, [r2, #12]
    4cb8:	3210      	adds	r2, #16
    4cba:	42b2      	cmp	r2, r6
    4cbc:	d1f8      	bne.n	4cb0 <memset+0x48>
    4cbe:	3701      	adds	r7, #1
    4cc0:	013f      	lsls	r7, r7, #4
    4cc2:	220c      	movs	r2, #12
    4cc4:	19db      	adds	r3, r3, r7
    4cc6:	270f      	movs	r7, #15
    4cc8:	4022      	ands	r2, r4
    4cca:	4027      	ands	r7, r4
    4ccc:	003c      	movs	r4, r7
    4cce:	b172      	cbz	r2, 4cee <memset+0x86>
    4cd0:	1f3e      	subs	r6, r7, #4
    4cd2:	08b6      	lsrs	r6, r6, #2
    4cd4:	00b4      	lsls	r4, r6, #2
    4cd6:	46a4      	mov	ip, r4
    4cd8:	001a      	movs	r2, r3
    4cda:	1d1c      	adds	r4, r3, #4
    4cdc:	4464      	add	r4, ip
    4cde:	c220      	stmia	r2!, {r5}
    4ce0:	42a2      	cmp	r2, r4
    4ce2:	d1fc      	bne.n	4cde <memset+0x76>
    4ce4:	2403      	movs	r4, #3
    4ce6:	3601      	adds	r6, #1
    4ce8:	00b6      	lsls	r6, r6, #2
    4cea:	199b      	adds	r3, r3, r6
    4cec:	403c      	ands	r4, r7
    4cee:	b12c      	cbz	r4, 4cfc <memset+0x94>
    4cf0:	b2c9      	uxtb	r1, r1
    4cf2:	191c      	adds	r4, r3, r4
    4cf4:	7019      	strb	r1, [r3, #0]
    4cf6:	3301      	adds	r3, #1
    4cf8:	429c      	cmp	r4, r3
    4cfa:	d1fb      	bne.n	4cf4 <memset+0x8c>
    4cfc:	bdf0      	pop	{r4, r5, r6, r7, pc}
    4cfe:	0003      	movs	r3, r0
    4d00:	0014      	movs	r4, r2
    4d02:	e7c2      	b.n	4c8a <memset+0x22>
    4d04:	0027      	movs	r7, r4
    4d06:	e7e3      	b.n	4cd0 <memset+0x68>

00004d08 <strlen>:
    4d08:	b510      	push	{r4, lr}
    4d0a:	0783      	lsls	r3, r0, #30
    4d0c:	d00a      	beq.n	4d24 <strlen+0x1c>
    4d0e:	0003      	movs	r3, r0
    4d10:	2103      	movs	r1, #3
    4d12:	e002      	b.n	4d1a <strlen+0x12>
    4d14:	3301      	adds	r3, #1
    4d16:	420b      	tst	r3, r1
    4d18:	d005      	beq.n	4d26 <strlen+0x1e>
    4d1a:	781a      	ldrb	r2, [r3, #0]
    4d1c:	2a00      	cmp	r2, #0
    4d1e:	d1f9      	bne.n	4d14 <strlen+0xc>
    4d20:	1a18      	subs	r0, r3, r0
    4d22:	bd10      	pop	{r4, pc}
    4d24:	0003      	movs	r3, r0
    4d26:	f64f 62ff 	movw	r2, #65279	; 0xfeff
    4d2a:	f248 0480 	movw	r4, #32896	; 0x8080
    4d2e:	6819      	ldr	r1, [r3, #0]
    4d30:	f6cf 62fe 	movt	r2, #65278	; 0xfefe
    4d34:	188a      	adds	r2, r1, r2
    4d36:	438a      	bics	r2, r1
    4d38:	f2c8 0480 	movt	r4, #32896	; 0x8080
    4d3c:	4222      	tst	r2, r4
    4d3e:	d10b      	bne.n	4d58 <strlen+0x50>
    4d40:	f64f 62ff 	movw	r2, #65279	; 0xfeff
    4d44:	6859      	ldr	r1, [r3, #4]
    4d46:	f6cf 62fe 	movt	r2, #65278	; 0xfefe
    4d4a:	188a      	adds	r2, r1, r2
    4d4c:	438a      	bics	r2, r1
    4d4e:	3304      	adds	r3, #4
    4d50:	4222      	tst	r2, r4
    4d52:	d0f5      	beq.n	4d40 <strlen+0x38>
    4d54:	e000      	b.n	4d58 <strlen+0x50>
    4d56:	3301      	adds	r3, #1
    4d58:	781a      	ldrb	r2, [r3, #0]
    4d5a:	2a00      	cmp	r2, #0
    4d5c:	d1fb      	bne.n	4d56 <strlen+0x4e>
    4d5e:	e7df      	b.n	4d20 <strlen+0x18>

00004d60 <strncmp>:
    4d60:	b530      	push	{r4, r5, lr}
    4d62:	b34a      	cbz	r2, 4db8 <strncmp+0x58>
    4d64:	0003      	movs	r3, r0
    4d66:	430b      	orrs	r3, r1
    4d68:	079b      	lsls	r3, r3, #30
    4d6a:	d127      	bne.n	4dbc <strncmp+0x5c>
    4d6c:	2a03      	cmp	r2, #3
    4d6e:	d925      	bls.n	4dbc <strncmp+0x5c>
    4d70:	f248 0580 	movw	r5, #32896	; 0x8080
    4d74:	f2c8 0580 	movt	r5, #32896	; 0x8080
    4d78:	e00d      	b.n	4d96 <strncmp+0x36>
    4d7a:	3a04      	subs	r2, #4
    4d7c:	b1e2      	cbz	r2, 4db8 <strncmp+0x58>
    4d7e:	f64f 64ff 	movw	r4, #65279	; 0xfeff
    4d82:	f6cf 64fe 	movt	r4, #65278	; 0xfefe
    4d86:	191c      	adds	r4, r3, r4
    4d88:	439c      	bics	r4, r3
    4d8a:	422c      	tst	r4, r5
    4d8c:	d114      	bne.n	4db8 <strncmp+0x58>
    4d8e:	3004      	adds	r0, #4
    4d90:	3104      	adds	r1, #4
    4d92:	2a03      	cmp	r2, #3
    4d94:	d912      	bls.n	4dbc <strncmp+0x5c>
    4d96:	6803      	ldr	r3, [r0, #0]
    4d98:	680c      	ldr	r4, [r1, #0]
    4d9a:	42a3      	cmp	r3, r4
    4d9c:	d0ed      	beq.n	4d7a <strncmp+0x1a>
    4d9e:	7804      	ldrb	r4, [r0, #0]
    4da0:	780d      	ldrb	r5, [r1, #0]
    4da2:	42ac      	cmp	r4, r5
    4da4:	d112      	bne.n	4dcc <strncmp+0x6c>
    4da6:	2301      	movs	r3, #1
    4da8:	b134      	cbz	r4, 4db8 <strncmp+0x58>
    4daa:	5cc4      	ldrb	r4, [r0, r3]
    4dac:	5ccd      	ldrb	r5, [r1, r3]
    4dae:	42ac      	cmp	r4, r5
    4db0:	d10c      	bne.n	4dcc <strncmp+0x6c>
    4db2:	3301      	adds	r3, #1
    4db4:	4293      	cmp	r3, r2
    4db6:	d1f7      	bne.n	4da8 <strncmp+0x48>
    4db8:	2000      	movs	r0, #0
    4dba:	bd30      	pop	{r4, r5, pc}
    4dbc:	7804      	ldrb	r4, [r0, #0]
    4dbe:	780d      	ldrb	r5, [r1, #0]
    4dc0:	42a5      	cmp	r5, r4
    4dc2:	d103      	bne.n	4dcc <strncmp+0x6c>
    4dc4:	2a01      	cmp	r2, #1
    4dc6:	d0f7      	beq.n	4db8 <strncmp+0x58>
    4dc8:	2301      	movs	r3, #1
    4dca:	e7ed      	b.n	4da8 <strncmp+0x48>
    4dcc:	1b60      	subs	r0, r4, r5
    4dce:	e7f4      	b.n	4dba <strncmp+0x5a>

00004dd0 <register_fini>:
    4dd0:	f240 0300 	movw	r3, #0
    4dd4:	f2c0 0300 	movt	r3, #0
    4dd8:	b510      	push	{r4, lr}
    4dda:	b12b      	cbz	r3, 4de8 <register_fini+0x18>
    4ddc:	f644 60ed 	movw	r0, #20205	; 0x4eed
    4de0:	f2c0 0000 	movt	r0, #0
    4de4:	f000 f87a 	bl	4edc <atexit>
    4de8:	bd10      	pop	{r4, pc}
    4dea:	46c0      	nop			; (mov r8, r8)

00004dec <__call_exitprocs>:
    4dec:	b5f0      	push	{r4, r5, r6, r7, lr}
    4dee:	4657      	mov	r7, sl
    4df0:	f244 4a30 	movw	sl, #17456	; 0x4430
    4df4:	46de      	mov	lr, fp
    4df6:	464e      	mov	r6, r9
    4df8:	4645      	mov	r5, r8
    4dfa:	f2c2 0a00 	movt	sl, #8192	; 0x2000
    4dfe:	4653      	mov	r3, sl
    4e00:	b5e0      	push	{r5, r6, r7, lr}
    4e02:	b083      	sub	sp, #12
    4e04:	9000      	str	r0, [sp, #0]
    4e06:	6818      	ldr	r0, [r3, #0]
    4e08:	000f      	movs	r7, r1
    4e0a:	f000 f895 	bl	4f38 <__retarget_lock_acquire_recursive>
    4e0e:	f246 332c 	movw	r3, #25388	; 0x632c
    4e12:	f2c0 0300 	movt	r3, #0
    4e16:	681b      	ldr	r3, [r3, #0]
    4e18:	f240 0b01 	movw	fp, #1
    4e1c:	001a      	movs	r2, r3
    4e1e:	f240 1348 	movw	r3, #328	; 0x148
    4e22:	58d6      	ldr	r6, [r2, r3]
    4e24:	b1b6      	cbz	r6, 4e54 <__call_exitprocs+0x68>
    4e26:	4653      	mov	r3, sl
    4e28:	4692      	mov	sl, r2
    4e2a:	9301      	str	r3, [sp, #4]
    4e2c:	6874      	ldr	r4, [r6, #4]
    4e2e:	1e65      	subs	r5, r4, #1
    4e30:	d40e      	bmi.n	4e50 <__call_exitprocs+0x64>
    4e32:	f240 1988 	movw	r9, #392	; 0x188
    4e36:	3401      	adds	r4, #1
    4e38:	00a4      	lsls	r4, r4, #2
    4e3a:	1934      	adds	r4, r6, r4
    4e3c:	44b1      	add	r9, r6
    4e3e:	b1a7      	cbz	r7, 4e6a <__call_exitprocs+0x7e>
    4e40:	f240 1300 	movw	r3, #256	; 0x100
    4e44:	58e3      	ldr	r3, [r4, r3]
    4e46:	42bb      	cmp	r3, r7
    4e48:	d00f      	beq.n	4e6a <__call_exitprocs+0x7e>
    4e4a:	3c04      	subs	r4, #4
    4e4c:	3d01      	subs	r5, #1
    4e4e:	d2f6      	bcs.n	4e3e <__call_exitprocs+0x52>
    4e50:	9b01      	ldr	r3, [sp, #4]
    4e52:	469a      	mov	sl, r3
    4e54:	4653      	mov	r3, sl
    4e56:	6818      	ldr	r0, [r3, #0]
    4e58:	f000 f876 	bl	4f48 <__retarget_lock_release_recursive>
    4e5c:	b003      	add	sp, #12
    4e5e:	bcf0      	pop	{r4, r5, r6, r7}
    4e60:	46bb      	mov	fp, r7
    4e62:	46b2      	mov	sl, r6
    4e64:	46a9      	mov	r9, r5
    4e66:	46a0      	mov	r8, r4
    4e68:	bdf0      	pop	{r4, r5, r6, r7, pc}
    4e6a:	6873      	ldr	r3, [r6, #4]
    4e6c:	6822      	ldr	r2, [r4, #0]
    4e6e:	3b01      	subs	r3, #1
    4e70:	42ab      	cmp	r3, r5
    4e72:	d02d      	beq.n	4ed0 <__call_exitprocs+0xe4>
    4e74:	2300      	movs	r3, #0
    4e76:	6023      	str	r3, [r4, #0]
    4e78:	2a00      	cmp	r2, #0
    4e7a:	d0e6      	beq.n	4e4a <__call_exitprocs+0x5e>
    4e7c:	6873      	ldr	r3, [r6, #4]
    4e7e:	4649      	mov	r1, r9
    4e80:	4698      	mov	r8, r3
    4e82:	465b      	mov	r3, fp
    4e84:	40ab      	lsls	r3, r5
    4e86:	6809      	ldr	r1, [r1, #0]
    4e88:	4219      	tst	r1, r3
    4e8a:	d10d      	bne.n	4ea8 <__call_exitprocs+0xbc>
    4e8c:	4790      	blx	r2
    4e8e:	6873      	ldr	r3, [r6, #4]
    4e90:	4543      	cmp	r3, r8
    4e92:	d116      	bne.n	4ec2 <__call_exitprocs+0xd6>
    4e94:	4653      	mov	r3, sl
    4e96:	f240 1248 	movw	r2, #328	; 0x148
    4e9a:	589b      	ldr	r3, [r3, r2]
    4e9c:	42b3      	cmp	r3, r6
    4e9e:	d0d4      	beq.n	4e4a <__call_exitprocs+0x5e>
    4ea0:	001e      	movs	r6, r3
    4ea2:	2e00      	cmp	r6, #0
    4ea4:	d1c2      	bne.n	4e2c <__call_exitprocs+0x40>
    4ea6:	e7d3      	b.n	4e50 <__call_exitprocs+0x64>
    4ea8:	0031      	movs	r1, r6
    4eaa:	318d      	adds	r1, #141	; 0x8d
    4eac:	31ff      	adds	r1, #255	; 0xff
    4eae:	6809      	ldr	r1, [r1, #0]
    4eb0:	4219      	tst	r1, r3
    4eb2:	d10f      	bne.n	4ed4 <__call_exitprocs+0xe8>
    4eb4:	2380      	movs	r3, #128	; 0x80
    4eb6:	9800      	ldr	r0, [sp, #0]
    4eb8:	58e1      	ldr	r1, [r4, r3]
    4eba:	4790      	blx	r2
    4ebc:	6873      	ldr	r3, [r6, #4]
    4ebe:	4543      	cmp	r3, r8
    4ec0:	d0e8      	beq.n	4e94 <__call_exitprocs+0xa8>
    4ec2:	4653      	mov	r3, sl
    4ec4:	f240 1248 	movw	r2, #328	; 0x148
    4ec8:	589e      	ldr	r6, [r3, r2]
    4eca:	2e00      	cmp	r6, #0
    4ecc:	d1ae      	bne.n	4e2c <__call_exitprocs+0x40>
    4ece:	e7bf      	b.n	4e50 <__call_exitprocs+0x64>
    4ed0:	6075      	str	r5, [r6, #4]
    4ed2:	e7d1      	b.n	4e78 <__call_exitprocs+0x8c>
    4ed4:	2380      	movs	r3, #128	; 0x80
    4ed6:	58e0      	ldr	r0, [r4, r3]
    4ed8:	4790      	blx	r2
    4eda:	e7d8      	b.n	4e8e <__call_exitprocs+0xa2>

00004edc <atexit>:
    4edc:	b510      	push	{r4, lr}
    4ede:	0001      	movs	r1, r0
    4ee0:	2300      	movs	r3, #0
    4ee2:	2200      	movs	r2, #0
    4ee4:	2000      	movs	r0, #0
    4ee6:	f000 f831 	bl	4f4c <__register_exitproc>
    4eea:	bd10      	pop	{r4, pc}

00004eec <__libc_fini_array>:
    4eec:	f244 4370 	movw	r3, #17520	; 0x4470
    4ef0:	b510      	push	{r4, lr}
    4ef2:	f244 4474 	movw	r4, #17524	; 0x4474
    4ef6:	f2c2 0300 	movt	r3, #8192	; 0x2000
    4efa:	f2c2 0400 	movt	r4, #8192	; 0x2000
    4efe:	1ae4      	subs	r4, r4, r3
    4f00:	10a4      	asrs	r4, r4, #2
    4f02:	b15c      	cbz	r4, 4f1c <__libc_fini_array+0x30>
    4f04:	f244 4270 	movw	r2, #17520	; 0x4470
    4f08:	f2c2 0200 	movt	r2, #8192	; 0x2000
    4f0c:	4694      	mov	ip, r2
    4f0e:	3c01      	subs	r4, #1
    4f10:	00a3      	lsls	r3, r4, #2
    4f12:	4463      	add	r3, ip
    4f14:	681b      	ldr	r3, [r3, #0]
    4f16:	4798      	blx	r3
    4f18:	2c00      	cmp	r4, #0
    4f1a:	d1f3      	bne.n	4f04 <__libc_fini_array+0x18>
    4f1c:	f000 f874 	bl	5008 <_fini>
    4f20:	bd10      	pop	{r4, pc}
    4f22:	46c0      	nop			; (mov r8, r8)

00004f24 <__retarget_lock_init>:
    4f24:	4770      	bx	lr
    4f26:	46c0      	nop			; (mov r8, r8)

00004f28 <__retarget_lock_init_recursive>:
    4f28:	4770      	bx	lr
    4f2a:	46c0      	nop			; (mov r8, r8)

00004f2c <__retarget_lock_close>:
    4f2c:	4770      	bx	lr
    4f2e:	46c0      	nop			; (mov r8, r8)

00004f30 <__retarget_lock_close_recursive>:
    4f30:	4770      	bx	lr
    4f32:	46c0      	nop			; (mov r8, r8)

00004f34 <__retarget_lock_acquire>:
    4f34:	4770      	bx	lr
    4f36:	46c0      	nop			; (mov r8, r8)

00004f38 <__retarget_lock_acquire_recursive>:
    4f38:	4770      	bx	lr
    4f3a:	46c0      	nop			; (mov r8, r8)

00004f3c <__retarget_lock_try_acquire>:
    4f3c:	2001      	movs	r0, #1
    4f3e:	4770      	bx	lr

00004f40 <__retarget_lock_try_acquire_recursive>:
    4f40:	2001      	movs	r0, #1
    4f42:	4770      	bx	lr

00004f44 <__retarget_lock_release>:
    4f44:	4770      	bx	lr
    4f46:	46c0      	nop			; (mov r8, r8)

00004f48 <__retarget_lock_release_recursive>:
    4f48:	4770      	bx	lr
    4f4a:	46c0      	nop			; (mov r8, r8)

00004f4c <__register_exitproc>:
    4f4c:	b5f0      	push	{r4, r5, r6, r7, lr}
    4f4e:	46d6      	mov	lr, sl
    4f50:	464f      	mov	r7, r9
    4f52:	4646      	mov	r6, r8
    4f54:	b5c0      	push	{r6, r7, lr}
    4f56:	f244 4630 	movw	r6, #17456	; 0x4430
    4f5a:	f2c2 0600 	movt	r6, #8192	; 0x2000
    4f5e:	b082      	sub	sp, #8
    4f60:	0007      	movs	r7, r0
    4f62:	6830      	ldr	r0, [r6, #0]
    4f64:	4692      	mov	sl, r2
    4f66:	4699      	mov	r9, r3
    4f68:	4688      	mov	r8, r1
    4f6a:	f7ff ffe5 	bl	4f38 <__retarget_lock_acquire_recursive>
    4f6e:	f246 302c 	movw	r0, #25388	; 0x632c
    4f72:	f2c0 0000 	movt	r0, #0
    4f76:	6803      	ldr	r3, [r0, #0]
    4f78:	9301      	str	r3, [sp, #4]
    4f7a:	f240 1348 	movw	r3, #328	; 0x148
    4f7e:	9a01      	ldr	r2, [sp, #4]
    4f80:	58d5      	ldr	r5, [r2, r3]
    4f82:	b36d      	cbz	r5, 4fe0 <__register_exitproc+0x94>
    4f84:	686c      	ldr	r4, [r5, #4]
    4f86:	2c1f      	cmp	r4, #31
    4f88:	dc2f      	bgt.n	4fea <__register_exitproc+0x9e>
    4f8a:	b97f      	cbnz	r7, 4fac <__register_exitproc+0x60>
    4f8c:	1c63      	adds	r3, r4, #1
    4f8e:	606b      	str	r3, [r5, #4]
    4f90:	4643      	mov	r3, r8
    4f92:	3402      	adds	r4, #2
    4f94:	00a4      	lsls	r4, r4, #2
    4f96:	6830      	ldr	r0, [r6, #0]
    4f98:	5163      	str	r3, [r4, r5]
    4f9a:	f7ff ffd5 	bl	4f48 <__retarget_lock_release_recursive>
    4f9e:	2000      	movs	r0, #0
    4fa0:	b002      	add	sp, #8
    4fa2:	bce0      	pop	{r5, r6, r7}
    4fa4:	46ba      	mov	sl, r7
    4fa6:	46b1      	mov	r9, r6
    4fa8:	46a8      	mov	r8, r5
    4faa:	bdf0      	pop	{r4, r5, r6, r7, pc}
    4fac:	2288      	movs	r2, #136	; 0x88
    4fae:	4651      	mov	r1, sl
    4fb0:	0028      	movs	r0, r5
    4fb2:	00a3      	lsls	r3, r4, #2
    4fb4:	18eb      	adds	r3, r5, r3
    4fb6:	5099      	str	r1, [r3, r2]
    4fb8:	3a87      	subs	r2, #135	; 0x87
    4fba:	40a2      	lsls	r2, r4
    4fbc:	3089      	adds	r0, #137	; 0x89
    4fbe:	30ff      	adds	r0, #255	; 0xff
    4fc0:	6801      	ldr	r1, [r0, #0]
    4fc2:	4311      	orrs	r1, r2
    4fc4:	6001      	str	r1, [r0, #0]
    4fc6:	f240 1108 	movw	r1, #264	; 0x108
    4fca:	4648      	mov	r0, r9
    4fcc:	5058      	str	r0, [r3, r1]
    4fce:	2f02      	cmp	r7, #2
    4fd0:	d1dc      	bne.n	4f8c <__register_exitproc+0x40>
    4fd2:	002b      	movs	r3, r5
    4fd4:	338d      	adds	r3, #141	; 0x8d
    4fd6:	33ff      	adds	r3, #255	; 0xff
    4fd8:	6819      	ldr	r1, [r3, #0]
    4fda:	430a      	orrs	r2, r1
    4fdc:	601a      	str	r2, [r3, #0]
    4fde:	e7d5      	b.n	4f8c <__register_exitproc+0x40>
    4fe0:	0015      	movs	r5, r2
    4fe2:	354d      	adds	r5, #77	; 0x4d
    4fe4:	35ff      	adds	r5, #255	; 0xff
    4fe6:	50d5      	str	r5, [r2, r3]
    4fe8:	e7cc      	b.n	4f84 <__register_exitproc+0x38>
    4fea:	6830      	ldr	r0, [r6, #0]
    4fec:	f7ff ffac 	bl	4f48 <__retarget_lock_release_recursive>
    4ff0:	2001      	movs	r0, #1
    4ff2:	4240      	negs	r0, r0
    4ff4:	e7d4      	b.n	4fa0 <__register_exitproc+0x54>
    4ff6:	46c0      	nop			; (mov r8, r8)

00004ff8 <_exit>:
    4ff8:	e7fe      	b.n	4ff8 <_exit>
    4ffa:	46c0      	nop			; (mov r8, r8)

00004ffc <_init>:
    4ffc:	b5f8      	push	{r3, r4, r5, r6, r7, lr}
    4ffe:	46c0      	nop			; (mov r8, r8)
    5000:	bcf8      	pop	{r3, r4, r5, r6, r7}
    5002:	bc08      	pop	{r3}
    5004:	469e      	mov	lr, r3
    5006:	4770      	bx	lr

00005008 <_fini>:
    5008:	b5f8      	push	{r3, r4, r5, r6, r7, lr}
    500a:	46c0      	nop			; (mov r8, r8)
    500c:	bcf8      	pop	{r3, r4, r5, r6, r7}
    500e:	bc08      	pop	{r3}
    5010:	469e      	mov	lr, r3
    5012:	4770      	bx	lr

00005014 <all_implied_fbits>:
    5014:	3e0b3e3b 	mcrcc	14, 0, r3, cr11, cr11, {1}
    5018:	3e253e10 	mcrcc	14, 1, r3, cr5, cr0, {0}
    501c:	3e033e33 	mcrcc	14, 0, r3, cr3, cr3, {1}
    5020:	3e143e06 	cdpcc	14, 1, cr3, cr4, cr6, {0}
    5024:	3e0d3e0e 	cdpcc	14, 0, cr3, cr13, cr14, {0}
    5028:	3e123e24 	cdpcc	14, 1, cr3, cr2, cr4, {1}
    502c:	3e023e27 	cdpcc	14, 0, cr3, cr2, cr7, {1}
    5030:	3e093e18 	mcrcc	14, 0, r3, cr9, cr8, {0}
    5034:	00003e0a 	andeq	r3, r0, sl, lsl #28

00005038 <ASCII_Tab>:
	...
    5048:	3f1c0000 	svccc	0x001c0000
    504c:	00001c3f 	andeq	r1, r0, pc, lsr ip
    5050:	b0000000 	andlt	r0, r0, r0
    5054:	000000b0 	strheq	r0, [r0], -r0	; <UNPREDICTABLE>
    5058:	00787000 	rsbseq	r7, r8, r0
    505c:	00707800 	rsbseq	r7, r0, r0, lsl #16
	...
    5068:	041f1f04 	ldreq	r1, [pc], #-3844	; 5070 <ASCII_Tab+0x38>
    506c:	00041f1f 	andeq	r1, r4, pc, lsl pc
    5070:	40f0f040 	rscsmi	pc, r0, r0, asr #32
    5074:	0040f0f0 	strdeq	pc, [r0], #-0
    5078:	e2223e1c 	eor	r3, r2, #28, 28	; 0x1c0
    507c:	001933e2 	andseq	r3, r9, r2, ror #7
    5080:	382060c0 	stmdacc	r0!, {r6, r7, sp, lr}
    5084:	00c0e038 	sbceq	lr, r0, r8, lsr r0
    5088:	01000c0c 	tsteq	r0, ip, lsl #24
    508c:	000c0603 	andeq	r0, ip, r3, lsl #12
    5090:	80c06030 	sbchi	r6, r0, r0, lsr r0
    5094:	00303000 	eorseq	r3, r0, r0
    5098:	273e1b01 	ldrcs	r1, [lr, -r1, lsl #22]!
    509c:	00021b3d 	andeq	r1, r2, sp, lsr fp
    50a0:	1010f0e0 	andsne	pc, r0, r0, ror #1
    50a4:	0010f0e0 	andseq	pc, r0, r0, ror #1
    50a8:	70780800 	rsbsvc	r0, r8, r0, lsl #16
	...
    50b8:	1f0f0000 	svcne	0x000f0000
    50bc:	00002030 	andeq	r2, r0, r0, lsr r0
    50c0:	e0c00000 	sbc	r0, r0, r0
    50c4:	00001030 	andeq	r1, r0, r0, lsr r0
    50c8:	30200000 	eorcc	r0, r0, r0
    50cc:	00000f1f 	andeq	r0, r0, pc, lsl pc
    50d0:	30100000 	andscc	r0, r0, r0
    50d4:	0000c0e0 	andeq	ip, r0, r0, ror #1
    50d8:	03070501 	movweq	r0, #29953	; 0x7501
    50dc:	01050703 	tsteq	r5, r3, lsl #14
    50e0:	80c04000 	sbchi	r4, r0, r0
    50e4:	0040c080 	subeq	ip, r0, r0, lsl #1
    50e8:	07010100 	streq	r0, [r1, -r0, lsl #2]
    50ec:	00010107 	andeq	r0, r1, r7, lsl #2
    50f0:	c0000000 	andgt	r0, r0, r0
    50f4:	000000c0 	andeq	r0, r0, r0, asr #1
	...
    5100:	78080000 	stmdavc	r8, {}	; <UNPREDICTABLE>
    5104:	00000070 	andeq	r0, r0, r0, ror r0
    5108:	01010101 	tsteq	r1, r1, lsl #2
    510c:	00010101 	andeq	r0, r1, r1, lsl #2
	...
    5120:	30000000 	andcc	r0, r0, r0
    5124:	00000030 	andeq	r0, r0, r0, lsr r0
    5128:	01000000 	mrseq	r0, (UNDEF: 0)
    512c:	000c0603 	andeq	r0, ip, r3, lsl #12
    5130:	80c06030 	sbchi	r6, r0, r0, lsr r0
    5134:	00000000 	andeq	r0, r0, r0
    5138:	23203f1f 			; <UNDEFINED> instruction: 0x23203f1f
    513c:	001f3f24 	andseq	r3, pc, r4, lsr #30
    5140:	1090f0e0 	addsne	pc, r0, r0, ror #1
    5144:	00e0f010 	rsceq	pc, r0, r0, lsl r0	; <UNPREDICTABLE>
    5148:	3f180800 	svccc	0x00180800
    514c:	0000003f 	andeq	r0, r0, pc, lsr r0
    5150:	f0101000 			; <UNDEFINED> instruction: 0xf0101000
    5154:	001010f0 	ldrsheq	r1, [r0], -r0
    5158:	23213010 			; <UNDEFINED> instruction: 0x23213010
    515c:	00183c26 	andseq	r3, r8, r6, lsr #24
    5160:	1090f070 	addsne	pc, r0, r0, ror r0	; <UNPREDICTABLE>
    5164:	00303010 	eorseq	r3, r0, r0, lsl r0
    5168:	22223010 	eorcs	r3, r2, #16
    516c:	001d3f22 	andseq	r3, sp, r2, lsr #30
    5170:	10103020 	andsne	r3, r0, r0, lsr #32
    5174:	00e0f010 	rsceq	pc, r0, r0, lsl r0	; <UNPREDICTABLE>
    5178:	190d0703 	stmdbne	sp, {r0, r1, r8, r9, sl}
    517c:	00013f3f 	andeq	r3, r1, pc, lsr pc
    5180:	10000000 	andne	r0, r0, r0
    5184:	0010f0f0 	ldrsheq	pc, [r0], -r0	; <UNPREDICTABLE>
    5188:	22223e3e 	eorcs	r3, r2, #992	; 0x3e0
    518c:	00212323 	eoreq	r2, r1, r3, lsr #6
    5190:	10103020 	andsne	r3, r0, r0, lsr #32
    5194:	00e0f010 	rsceq	pc, r0, r0, lsl r0	; <UNPREDICTABLE>
    5198:	22321f0f 	eorscs	r1, r2, #15, 30	; 0x3c
    519c:	00010322 	andeq	r0, r1, r2, lsr #6
    51a0:	1010f0e0 	andsne	pc, r0, r0, ror #1
    51a4:	00e0f010 	rsceq	pc, r0, r0, lsl r0	; <UNPREDICTABLE>
    51a8:	21203030 			; <UNDEFINED> instruction: 0x21203030
    51ac:	003c3e23 	eorseq	r3, ip, r3, lsr #28
    51b0:	f0f00000 			; <UNDEFINED> instruction: 0xf0f00000
    51b4:	00000000 	andeq	r0, r0, r0
    51b8:	22223f1d 	eorcs	r3, r2, #29, 30	; 0x74
    51bc:	001d3f22 	andseq	r3, sp, r2, lsr #30
    51c0:	1010f0e0 	andsne	pc, r0, r0, ror #1
    51c4:	00e0f010 	rsceq	pc, r0, r0, lsl r0	; <UNPREDICTABLE>
    51c8:	22223e1c 	eorcs	r3, r2, #28, 28	; 0x1c0
    51cc:	001f3f22 	andseq	r3, pc, r2, lsr #30
    51d0:	10101000 	andsne	r1, r0, r0
    51d4:	00c0e030 	sbceq	lr, r0, r0, lsr r0
    51d8:	0c000000 	stceq	0, cr0, [r0], {-0}
    51dc:	0000000c 	andeq	r0, r0, ip
    51e0:	60000000 	andvs	r0, r0, r0
    51e4:	00000060 	andeq	r0, r0, r0, rrx
    51e8:	0c000000 	stceq	0, cr0, [r0], {-0}
    51ec:	0000000c 	andeq	r0, r0, ip
    51f0:	70100000 	andsvc	r0, r0, r0
    51f4:	00000060 	andeq	r0, r0, r0, rrx
    51f8:	06030100 	streq	r0, [r3], -r0, lsl #2
    51fc:	0010180c 	andseq	r1, r0, ip, lsl #16
    5200:	c0800000 	addgt	r0, r0, r0
    5204:	00103060 	andseq	r3, r0, r0, rrx
    5208:	02020202 	andeq	r0, r2, #536870912	; 0x20000000
    520c:	00020202 	andeq	r0, r2, r2, lsl #4
    5210:	40404040 	submi	r4, r0, r0, asr #32
    5214:	00404040 	subeq	r4, r0, r0, asr #32
    5218:	0c181000 	ldceq	0, cr1, [r8], {-0}
    521c:	00010306 	andeq	r0, r1, r6, lsl #6
    5220:	60301000 	eorsvs	r1, r0, r0
    5224:	000080c0 	andeq	r8, r0, r0, asr #1
    5228:	23203818 			; <UNDEFINED> instruction: 0x23203818
    522c:	00183c27 	andseq	r3, r8, r7, lsr #24
    5230:	b0000000 	andlt	r0, r0, r0
    5234:	000000b0 	strheq	r0, [r0], -r0	; <UNPREDICTABLE>
    5238:	13101f0f 	tstne	r0, #15, 30	; 0x3c
    523c:	000f1f13 	andeq	r1, pc, r3, lsl pc	; <UNPREDICTABLE>
    5240:	d010f0e0 	andsle	pc, r0, r0, ror #1
    5244:	0080d0d0 	ldrdeq	sp, [r0], r0
    5248:	31190f07 	tstcc	r9, r7, lsl #30
    524c:	00070f19 	andeq	r0, r7, r9, lsl pc
    5250:	0000f0f0 	strdeq	pc, [r0], -r0
    5254:	00f0f000 	rscseq	pc, r0, r0
    5258:	223f3f20 	eorscs	r3, pc, #32, 30	; 0x80
    525c:	001d3f22 	andseq	r3, sp, r2, lsr #30
    5260:	10f0f010 	rscsne	pc, r0, r0, lsl r0	; <UNPREDICTABLE>
    5264:	00e0f010 	rsceq	pc, r0, r0, lsl r0	; <UNPREDICTABLE>
    5268:	20301f0f 	eorscs	r1, r0, pc, lsl #30
    526c:	00183020 	andseq	r3, r8, r0, lsr #32
    5270:	1030e0c0 	eorsne	lr, r0, r0, asr #1
    5274:	00603010 	rsbeq	r3, r0, r0, lsl r0
    5278:	203f3f20 	eorscs	r3, pc, r0, lsr #30
    527c:	000f1f30 	andeq	r1, pc, r0, lsr pc	; <UNPREDICTABLE>
    5280:	10f0f010 	rscsne	pc, r0, r0, lsl r0	; <UNPREDICTABLE>
    5284:	00c0e030 	sbceq	lr, r0, r0, lsr r0
    5288:	223f3f20 	eorscs	r3, pc, #32, 30	; 0x80
    528c:	00383027 	eorseq	r3, r8, r7, lsr #32
    5290:	10f0f010 	rscsne	pc, r0, r0, lsl r0	; <UNPREDICTABLE>
    5294:	00703010 	rsbseq	r3, r0, r0, lsl r0
    5298:	223f3f20 	eorscs	r3, pc, #32, 30	; 0x80
    529c:	00383027 	eorseq	r3, r8, r7, lsr #32
    52a0:	10f0f010 	rscsne	pc, r0, r0, lsl r0	; <UNPREDICTABLE>
    52a4:	00000000 	andeq	r0, r0, r0
    52a8:	21301f0f 	teqcs	r0, pc, lsl #30
    52ac:	00193121 	andseq	r3, r9, r1, lsr #2
    52b0:	1030e0c0 	eorsne	lr, r0, r0, asr #1
    52b4:	00f0e010 	rscseq	lr, r0, r0, lsl r0
    52b8:	02023f3f 	andeq	r3, r2, #63, 30	; 0xfc
    52bc:	003f3f02 	eorseq	r3, pc, r2, lsl #30
    52c0:	0000f0f0 	strdeq	pc, [r0], -r0
    52c4:	00f0f000 	rscseq	pc, r0, r0
    52c8:	3f200000 	svccc	0x00200000
    52cc:	0000203f 	andeq	r2, r0, pc, lsr r0
    52d0:	f0100000 			; <UNDEFINED> instruction: 0xf0100000
    52d4:	000010f0 	strdeq	r1, [r0], -r0
    52d8:	20000000 	andcs	r0, r0, r0
    52dc:	00203f3f 	eoreq	r3, r0, pc, lsr pc
    52e0:	1010f0e0 	andsne	pc, r0, r0, ror #1
    52e4:	0000e0f0 	strdeq	lr, [r0], -r0
    52e8:	033f3f20 	teqeq	pc, #32, 30	; 0x80
    52ec:	00303c0f 	eorseq	r3, r0, pc, lsl #24
    52f0:	00f0f010 	rscseq	pc, r0, r0, lsl r0	; <UNPREDICTABLE>
    52f4:	0070f080 	rsbseq	pc, r0, r0, lsl #1
    52f8:	203f3f20 	eorscs	r3, pc, r0, lsr #30
    52fc:	00000000 	andeq	r0, r0, r0
    5300:	10f0f010 	rscsne	pc, r0, r0, lsl r0	; <UNPREDICTABLE>
    5304:	00703010 	rsbseq	r3, r0, r0, lsl r0
    5308:	0e1c3f3f 	mrceq	15, 0, r3, cr12, cr15, {1}
    530c:	003f3f1c 	eorseq	r3, pc, ip, lsl pc	; <UNPREDICTABLE>
    5310:	0000f0f0 	strdeq	pc, [r0], -r0
    5314:	00f0f000 	rscseq	pc, r0, r0
    5318:	0e1c3f3f 	mrceq	15, 0, r3, cr12, cr15, {1}
    531c:	003f3f07 	eorseq	r3, pc, r7, lsl #30
    5320:	0000f0f0 	strdeq	pc, [r0], -r0
    5324:	00f0f000 	rscseq	pc, r0, r0
    5328:	20301f0f 	eorscs	r1, r0, pc, lsl #30
    532c:	000f1f30 	andeq	r1, pc, r0, lsr pc	; <UNPREDICTABLE>
    5330:	1030e0c0 	eorsne	lr, r0, r0, asr #1
    5334:	00c0e030 	sbceq	lr, r0, r0, lsr r0
    5338:	223f3f20 	eorscs	r3, pc, #32, 30	; 0x80
    533c:	001c3e22 	andseq	r3, ip, r2, lsr #28
    5340:	10f0f010 	rscsne	pc, r0, r0, lsl r0	; <UNPREDICTABLE>
    5344:	00000000 	andeq	r0, r0, r0
    5348:	20203f1f 	eorcs	r3, r0, pc, lsl pc
    534c:	001f3f20 	andseq	r3, pc, r0, lsr #30
    5350:	7010f0e0 	andsvc	pc, r0, r0, ror #1
    5354:	00e4fc3c 	rsceq	pc, r4, ip, lsr ip	; <UNPREDICTABLE>
    5358:	223f3f20 	eorscs	r3, pc, #32, 30	; 0x80
    535c:	001c3f23 	andseq	r3, ip, r3, lsr #30
    5360:	00f0f010 	rscseq	pc, r0, r0, lsl r0	; <UNPREDICTABLE>
    5364:	00f0f000 	rscseq	pc, r0, r0
    5368:	22263c18 	eorcs	r3, r6, #24, 24	; 0x1800
    536c:	00183923 	andseq	r3, r8, r3, lsr #18
    5370:	10107060 	andsne	r7, r0, r0, rrx
    5374:	00e0f010 	rsceq	pc, r0, r0, lsl r0	; <UNPREDICTABLE>
    5378:	3f303800 	svccc	0x00303800
    537c:	0038303f 	eorseq	r3, r8, pc, lsr r0
    5380:	f0100000 			; <UNDEFINED> instruction: 0xf0100000
    5384:	000010f0 	strdeq	r1, [r0], -r0
    5388:	00003f3f 	andeq	r3, r0, pc, lsr pc
    538c:	003f3f00 	eorseq	r3, pc, r0, lsl #30
    5390:	1010f0e0 	andsne	pc, r0, r0, ror #1
    5394:	00e0f010 	rsceq	pc, r0, r0, lsl r0	; <UNPREDICTABLE>
    5398:	00003f3f 	andeq	r3, r0, pc, lsr pc
    539c:	003f3f00 	eorseq	r3, pc, r0, lsl #30
    53a0:	3060c080 	rsbcc	ip, r0, r0, lsl #1
    53a4:	0080c060 	addeq	ip, r0, r0, rrx
    53a8:	01003f3f 	tsteq	r0, pc, lsr pc
    53ac:	003f3f00 	eorseq	r3, pc, r0, lsl #30
    53b0:	c070f0c0 	rsbsgt	pc, r0, r0, asr #1
    53b4:	00c0f070 	sbceq	pc, r0, r0, ror r0	; <UNPREDICTABLE>
    53b8:	030f3c30 	movweq	r3, #64560	; 0xfc30
    53bc:	00303c0f 	eorseq	r3, r0, pc, lsl #24
    53c0:	00c0f030 	sbceq	pc, r0, r0, lsr r0	; <UNPREDICTABLE>
    53c4:	0030f0c0 	eorseq	pc, r0, r0, asr #1
    53c8:	033e3c00 	teqeq	lr, #0, 24
    53cc:	003c3e03 	eorseq	r3, ip, r3, lsl #28
    53d0:	f0100000 			; <UNDEFINED> instruction: 0xf0100000
    53d4:	000010f0 	strdeq	r1, [r0], -r0
    53d8:	23213038 			; <UNDEFINED> instruction: 0x23213038
    53dc:	00383c26 	eorseq	r3, r8, r6, lsr #24
    53e0:	1090f070 	addsne	pc, r0, r0, ror r0	; <UNPREDICTABLE>
    53e4:	00703010 	rsbseq	r3, r0, r0, lsl r0
    53e8:	3f3f0000 	svccc	0x003f0000
    53ec:	00002020 	andeq	r2, r0, r0, lsr #32
    53f0:	f0f00000 			; <UNDEFINED> instruction: 0xf0f00000
    53f4:	00001010 	andeq	r1, r0, r0, lsl r0
    53f8:	03070e1c 	movweq	r0, #32284	; 0x7e1c
    53fc:	00000001 	andeq	r0, r0, r1
    5400:	80000000 	andhi	r0, r0, r0
    5404:	0070e0c0 	rsbseq	lr, r0, r0, asr #1
    5408:	20200000 	eorcs	r0, r0, r0
    540c:	00003f3f 	andeq	r3, r0, pc, lsr pc
    5410:	10100000 	andsne	r0, r0, r0
    5414:	0000f0f0 	strdeq	pc, [r0], -r0
    5418:	c0603010 	rsbgt	r3, r0, r0, lsl r0
    541c:	00103060 	andseq	r3, r0, r0, rrx
	...
    5430:	04040404 	streq	r0, [r4], #-1028	; 0xfffffbfc
    5434:	04040404 	streq	r0, [r4], #-1028	; 0xfffffbfc
    5438:	e0c00000 	sbc	r0, r0, r0
    543c:	00000020 	andeq	r0, r0, r0, lsr #32
	...
    5448:	05050500 	streq	r0, [r5, #-1280]	; 0xfffffb00
    544c:	00000307 	andeq	r0, r0, r7, lsl #6
    5450:	1010f0e0 	andsne	pc, r0, r0, ror #1
    5454:	0010f0e0 	andseq	pc, r0, r0, ror #1
    5458:	043f3f20 	ldrteq	r3, [pc], #-3872	; 5460 <ASCII_Tab+0x428>
    545c:	00010306 	andeq	r0, r1, r6, lsl #6
    5460:	10e0f010 	rscne	pc, r0, r0, lsl r0	; <UNPREDICTABLE>
    5464:	00e0f010 	rsceq	pc, r0, r0, lsl r0	; <UNPREDICTABLE>
    5468:	04040703 	streq	r0, [r4], #-1795	; 0xfffff8fd
    546c:	00020604 	andeq	r0, r2, r4, lsl #12
    5470:	1010f0e0 	andsne	pc, r0, r0, ror #1
    5474:	00203010 	eoreq	r3, r0, r0, lsl r0
    5478:	24060301 	strcs	r0, [r6], #-769	; 0xfffffcff
    547c:	00003f3f 	andeq	r3, r0, pc, lsr pc
    5480:	1010f0e0 	andsne	pc, r0, r0, ror #1
    5484:	0010f0e0 	andseq	pc, r0, r0, ror #1
    5488:	05050703 	streq	r0, [r5, #-1795]	; 0xfffff8fd
    548c:	00030705 	andeq	r0, r3, r5, lsl #14
    5490:	1010f0e0 	andsne	pc, r0, r0, ror #1
    5494:	00203010 	eoreq	r3, r0, r0, lsl r0
    5498:	223f1f02 	eorscs	r1, pc, #2, 30
    549c:	00001830 	andeq	r1, r0, r0, lsr r8
    54a0:	10f0f010 	rscsne	pc, r0, r0, lsl r0	; <UNPREDICTABLE>
    54a4:	00000000 	andeq	r0, r0, r0
    54a8:	04040703 	streq	r0, [r4], #-1795	; 0xfffff8fd
    54ac:	00040703 	andeq	r0, r4, r3, lsl #14
    54b0:	1212f6e4 	andsne	pc, r2, #228, 12	; 0xe400000
    54b4:	0000fcfe 	strdeq	pc, [r0], -lr
    54b8:	023f3f20 	eorseq	r3, pc, #32, 30	; 0x80
    54bc:	00030704 	andeq	r0, r3, r4, lsl #14
    54c0:	00f0f010 	rscseq	pc, r0, r0, lsl r0	; <UNPREDICTABLE>
    54c4:	00f0f000 	rscseq	pc, r0, r0
    54c8:	37040000 	strcc	r0, [r4, -r0]
    54cc:	00000037 	andeq	r0, r0, r7, lsr r0
    54d0:	f0100000 			; <UNDEFINED> instruction: 0xf0100000
    54d4:	000010f0 	strdeq	r1, [r0], -r0
    54d8:	00000000 	andeq	r0, r0, r0
    54dc:	00373704 	eorseq	r3, r7, r4, lsl #14
    54e0:	020e0c00 	andeq	r0, lr, #0, 24
    54e4:	00fcfe02 	rscseq	pc, ip, r2, lsl #28
    54e8:	013f3f20 	teqeq	pc, r0, lsr #30
    54ec:	00040603 	andeq	r0, r4, r3, lsl #12
    54f0:	80f0f010 	rscshi	pc, r0, r0, lsl r0	; <UNPREDICTABLE>
    54f4:	003070c0 	eorseq	r7, r0, r0, asr #1
    54f8:	3f200000 	svccc	0x00200000
    54fc:	0000003f 	andeq	r0, r0, pc, lsr r0
    5500:	f0100000 			; <UNDEFINED> instruction: 0xf0100000
    5504:	000010f0 	strdeq	r1, [r0], -r0
    5508:	03060707 	movweq	r0, #26375	; 0x6707
    550c:	00030706 	andeq	r0, r3, r6, lsl #14
    5510:	f000f0f0 			; <UNDEFINED> instruction: 0xf000f0f0
    5514:	00f0f000 	rscseq	pc, r0, r0
    5518:	04030704 	streq	r0, [r3], #-1796	; 0xfffff8fc
    551c:	00030704 	andeq	r0, r3, r4, lsl #14
    5520:	00f0f000 	rscseq	pc, r0, r0
    5524:	00f0f000 	rscseq	pc, r0, r0
    5528:	04040703 	streq	r0, [r4], #-1795	; 0xfffff8fd
    552c:	00030704 	andeq	r0, r3, r4, lsl #14
    5530:	1010f0e0 	andsne	pc, r0, r0, ror #1
    5534:	00e0f010 	rsceq	pc, r0, r0, lsl r0	; <UNPREDICTABLE>
    5538:	04030704 	streq	r0, [r3], #-1796	; 0xfffff8fc
    553c:	00030704 	andeq	r0, r3, r4, lsl #14
    5540:	12fefe02 	rscsne	pc, lr, #2, 28
    5544:	00e0f010 	rsceq	pc, r0, r0, lsl r0	; <UNPREDICTABLE>
    5548:	04040703 	streq	r0, [r4], #-1795	; 0xfffff8fd
    554c:	00040703 	andeq	r0, r4, r3, lsl #14
    5550:	1210f0e0 	andsne	pc, r0, #224	; 0xe0
    5554:	0002fefe 	strdeq	pc, [r2], -lr
    5558:	06030704 	streq	r0, [r3], -r4, lsl #14
    555c:	00030604 	andeq	r0, r3, r4, lsl #12
    5560:	10f0f010 	rscsne	pc, r0, r0, lsl r0	; <UNPREDICTABLE>
    5564:	00000000 	andeq	r0, r0, r0
    5568:	04050702 	streq	r0, [r5], #-1794	; 0xfffff8fe
    556c:	00020604 	andeq	r0, r2, r4, lsl #12
    5570:	90903020 	addsls	r3, r0, r0, lsr #32
    5574:	002070d0 	ldrdeq	r7, [r0], -r0	; <UNPREDICTABLE>
    5578:	3f1f0404 	svccc	0x001f0404
    557c:	00000404 	andeq	r0, r0, r4, lsl #8
    5580:	f0e00000 			; <UNDEFINED> instruction: 0xf0e00000
    5584:	00203010 	eoreq	r3, r0, r0, lsl r0
    5588:	00000707 	andeq	r0, r0, r7, lsl #14
    558c:	00000707 	andeq	r0, r0, r7, lsl #14
    5590:	1010f0e0 	andsne	pc, r0, r0, ror #1
    5594:	0010f0e0 	andseq	pc, r0, r0, ror #1
    5598:	00070700 	andeq	r0, r7, r0, lsl #14
    559c:	00070700 	andeq	r0, r7, r0, lsl #14
    55a0:	30e0c000 	rsccc	ip, r0, r0
    55a4:	00c0e030 	sbceq	lr, r0, r0, lsr r0
    55a8:	00000707 	andeq	r0, r0, r7, lsl #14
    55ac:	00070700 	andeq	r0, r7, r0, lsl #14
    55b0:	e030f0e0 	eors	pc, r0, r0, ror #1
    55b4:	00e0f030 	rsceq	pc, r0, r0, lsr r0	; <UNPREDICTABLE>
    55b8:	01030604 	tsteq	r3, r4, lsl #12
    55bc:	00040603 	andeq	r0, r4, r3, lsl #12
    55c0:	c0e03010 	rscgt	r3, r0, r0, lsl r0
    55c4:	001030e0 	andseq	r3, r0, r0, ror #1
    55c8:	00000707 	andeq	r0, r0, r7, lsl #14
    55cc:	00070700 	andeq	r0, r7, r0, lsl #14
    55d0:	1212f2e2 	andsne	pc, r2, #536870926	; 0x2000000e
    55d4:	00f8fc16 	rscseq	pc, r8, r6, lsl ip	; <UNPREDICTABLE>
    55d8:	05040606 	streq	r0, [r4, #-1542]	; 0xfffff9fa
    55dc:	00040607 	andeq	r0, r4, r7, lsl #12
    55e0:	90d07030 	sbcsls	r7, r0, r0, lsr r0
    55e4:	00303010 	eorseq	r3, r0, r0, lsl r0
    55e8:	1f020200 	svcne	0x00020200
    55ec:	0020203d 	eoreq	r2, r0, sp, lsr r0
    55f0:	e0000000 	and	r0, r0, r0
    55f4:	001010f0 	ldrsheq	r1, [r0], -r0
    55f8:	3f000000 	svccc	0x00000000
    55fc:	0000003f 	andeq	r0, r0, pc, lsr r0
    5600:	fc000000 	stc2	0, cr0, [r0], {-0}
    5604:	000000fc 	strdeq	r0, [r0], -ip
    5608:	3d202000 	stccc	0, cr2, [r0, #-0]
    560c:	0002021f 	andeq	r0, r2, pc, lsl r2
    5610:	f0101000 			; <UNDEFINED> instruction: 0xf0101000
    5614:	000000e0 	andeq	r0, r0, r0, ror #1
    5618:	30203010 	eorcc	r3, r0, r0, lsl r0
    561c:	00203010 	eoreq	r3, r0, r0, lsl r0
	...
    5628:	0c060301 	stceq	3, cr0, [r6], {1}
    562c:	00010306 	andeq	r0, r1, r6, lsl #6
    5630:	2020e0e0 	eorcs	lr, r0, r0, ror #1
    5634:	00e0e020 	rsceq	lr, r0, r0, lsr #32

00005638 <Brand>:
	...
    56c4:	01000000 	mrseq	r0, (UNDEF: 0)
    56c8:	01010101 	tsteq	r1, r1, lsl #2
    56cc:	01010101 	tsteq	r1, r1, lsl #2
    56d0:	00000001 	andeq	r0, r0, r1
	...
    56dc:	02020100 	andeq	r0, r2, #0, 2
    56e0:	00010202 	andeq	r0, r1, r2, lsl #4
	...
    573c:	0e070100 	adfeqs	f0, f7, f0
    5740:	6030381c 	eorsvs	r3, r0, ip, lsl r8
    5744:	80c0c0e0 	sbchi	ip, r0, r0, ror #1
    5748:	81818080 	orrhi	r8, r1, r0, lsl #1
    574c:	80808081 	addhi	r8, r0, r1, lsl #1
    5750:	67c7c7c3 	strbvs	ip, [r7, r3, asr #15]
    5754:	0e1c3073 	mrceq	0, 0, r3, cr12, cr3, {3}
    5758:	00010307 	andeq	r0, r1, r7, lsl #6
    575c:	f40408f0 	vst2.<illegal width 64>	{d0-d1}, [r4 :256], r0
    5760:	f00854a4 			; <UNDEFINED> instruction: 0xf00854a4
    5764:	01000000 	mrseq	r0, (UNDEF: 0)
    5768:	01010101 	tsteq	r1, r1, lsl #2
    576c:	01010101 	tsteq	r1, r1, lsl #2
	...
    577c:	01010000 	mrseq	r0, (UNDEF: 1)
    5780:	00000101 	andeq	r0, r0, r1, lsl #2
	...
    578c:	01010100 	mrseq	r0, (UNDEF: 17)
    5790:	01010101 	tsteq	r1, r1, lsl #2
    5794:	01010101 	tsteq	r1, r1, lsl #2
    5798:	01010101 	tsteq	r1, r1, lsl #2
    579c:	01010101 	tsteq	r1, r1, lsl #2
    57a0:	00000001 	andeq	r0, r0, r1
    57a4:	01010101 	tsteq	r1, r1, lsl #2
    57a8:	01010101 	tsteq	r1, r1, lsl #2
    57ac:	01010101 	tsteq	r1, r1, lsl #2
    57b0:	00000101 	andeq	r0, r0, r1, lsl #2
    57b4:	00000000 	andeq	r0, r0, r0
    57b8:	1f000000 	svcne	0x00000000
    57bc:	0080e0ff 	strdeq	lr, [r0], pc	; <UNPREDICTABLE>
    57c0:	3f1e0000 	svccc	0x001e0000
    57c4:	3e3f7f7f 	mrccc	15, 1, r7, cr15, cr15, {3}
    57c8:	fffdf800 			; <UNDEFINED> instruction: 0xfffdf800
    57cc:	0000fcff 	strdeq	pc, [r0], -pc	; <UNPREDICTABLE>
    57d0:	f7fffff7 			; <UNDEFINED> instruction: 0xf7fffff7
    57d4:	000000e3 	andeq	r0, r0, r3, ror #1
    57d8:	7ffcc000 	svcvc	0x00fcc000
    57dc:	00000007 	andeq	r0, r0, r7
    57e0:	18080800 	stmdane	r8, {fp}
    57e4:	f8f87838 			; <UNDEFINED> instruction: 0xf8f87838
    57e8:	0f0fcce8 	svceq	0x000fcce8
    57ec:	f8e8cc8f 			; <UNDEFINED> instruction: 0xf8e8cc8f
    57f0:	183878f8 	ldmdane	r8!, {r3, r4, r5, r6, r7, fp, ip, sp, lr}
    57f4:	00000808 	andeq	r0, r0, r8, lsl #16
    57f8:	0f1f1f1f 	svceq	0x001f1f1f
    57fc:	fcfc0404 	ldc2l	4, cr0, [ip], #16
    5800:	4c4cfcfc 	mcrrmi	12, 15, pc, ip, cr12	; <UNPREDICTABLE>
    5804:	4f4c4848 	svcmi	0x004c4848
    5808:	00404f4f 	subeq	r4, r0, pc, asr #30
    580c:	ffffff00 			; <UNDEFINED> instruction: 0xffffff00
    5810:	3f3f00ff 	svccc	0x003f00ff
    5814:	7676163f 			; <UNDEFINED> instruction: 0x7676163f
    5818:	36367676 			; <UNDEFINED> instruction: 0x36367676
    581c:	3f3f3f20 	svccc	0x003f3f20
    5820:	0202001f 	andeq	r0, r2, #31
    5824:	02020202 	andeq	r0, r2, #536870912	; 0x20000000
    5828:	1f0f0202 	svcne	0x000f0202
    582c:	f2f27f3f 	vcvt.s32.f32	d23, d31, #14
    5830:	020282e2 	andeq	r8, r2, #536870926	; 0x2000000e
    5834:	00000202 	andeq	r0, r0, r2, lsl #4
    5838:	f8000000 			; <UNDEFINED> instruction: 0xf8000000
    583c:	00030ffe 	strdeq	r0, [r3], -lr
    5840:	3f3c0000 	svccc	0x003c0000
    5844:	3e7fffff 	mrccc	15, 3, APSR_nzcv, cr15, cr15, {7}
    5848:	fffef800 			; <UNDEFINED> instruction: 0xfffef800
    584c:	0000feff 	strdeq	pc, [r0], -pc	; <UNPREDICTABLE>
    5850:	f8fcfcf0 			; <UNDEFINED> instruction: 0xf8fcfcf0
    5854:	000000e0 	andeq	r0, r0, r0, ror #1
    5858:	fc7f0701 	ldc2l	7, cr0, [pc], #-4	; 585c <Brand+0x224>
    585c:	000000c0 	andeq	r0, r0, r0, asr #1
    5860:	b1818100 	orrlt	r8, r1, r0, lsl #2
    5864:	859fbfbd 	ldrhi	fp, [pc, #4029]	; 6829 <__etext+0x415>
    5868:	ffffc181 			; <UNDEFINED> instruction: 0xffffc181
    586c:	8781c1ff 			; <UNDEFINED> instruction: 0x8781c1ff
    5870:	b1bdbf9f 	ldrexdlt	fp, [sp]
    5874:	03008181 	movweq	r8, #385	; 0x181
    5878:	e0eeefef 	rsc	lr, lr, pc, ror #31
    587c:	2f2f2c20 	svccs	0x002f2c20
    5880:	2f2e2127 	svccs	0x002e2127
    5884:	ee60272f 	cdp	7, 6, cr2, cr0, cr15, {1}
    5888:	0007efef 	andeq	lr, r7, pc, ror #31
    588c:	feffff03 	cdp2	15, 15, cr15, cr15, cr3, {0}
    5890:	cf8f03f8 	svcgt	0x008f03f8
    5894:	c3c1c9ce 	bicgt	ip, r1, #3375104	; 0x338000
    5898:	c0feffff 	ldrshtgt	pc, [lr], #255	; 0xff	; <UNPREDICTABLE>
    589c:	cfcfcec8 	svcgt	0x00cfcec8
    58a0:	00000083 	andeq	r0, r0, r3, lsl #1
    58a4:	03020604 	movweq	r0, #9732	; 0x2604
    58a8:	ff030103 			; <UNDEFINED> instruction: 0xff030103
    58ac:	0000feff 	strdeq	pc, [r0], -pc	; <UNPREDICTABLE>
	...
    58bc:	e0c08000 	sbc	r8, r0, r0
    58c0:	8c1c3870 	ldchi	8, cr3, [ip], {112}	; 0x70
    58c4:	0383c6c6 	orreq	ip, r3, #207618048	; 0xc600000
    58c8:	03030303 	movweq	r0, #13059	; 0x3303
    58cc:	03030303 	movweq	r0, #13059	; 0x3303
    58d0:	0c060603 	stceq	6, cr0, [r6], {3}
    58d4:	f030181c 			; <UNDEFINED> instruction: 0xf030181c
    58d8:	000080c0 	andeq	r8, r0, r0, asr #1
    58dc:	00000000 	andeq	r0, r0, r0
    58e0:	80808000 	addhi	r8, r0, r0
    58e4:	80808080 	addhi	r8, r0, r0, lsl #1
    58e8:	80808080 	addhi	r8, r0, r0, lsl #1
    58ec:	80808080 	addhi	r8, r0, r0, lsl #1
    58f0:	80808080 	addhi	r8, r0, r0, lsl #1
    58f4:	80000080 	andhi	r0, r0, r0, lsl #1
    58f8:	00008080 	andeq	r8, r0, r0, lsl #1
    58fc:	80000000 	andhi	r0, r0, r0
    5900:	00008080 	andeq	r8, r0, r0, lsl #1
    5904:	00008080 	andeq	r8, r0, r0, lsl #1
    5908:	00808080 	addeq	r8, r0, r0, lsl #1
    590c:	00000080 	andeq	r0, r0, r0, lsl #1
    5910:	00000000 	andeq	r0, r0, r0
    5914:	80800000 	addhi	r0, r0, r0
	...
    5928:	00808000 	addeq	r8, r0, r0
	...
    5948:	80000000 	andhi	r0, r0, r0
    594c:	00000080 	andeq	r0, r0, r0, lsl #1
	...

00005a38 <GB16>:
    5a38:	00a3ade6 	adceq	sl, r3, r6, ror #27
    5a3c:	10100000 	andsne	r0, r0, r0
    5a40:	10101013 	andsne	r1, r0, r3, lsl r0
    5a44:	1010101f 	andsne	r1, r0, pc, lsl r0
    5a48:	00103011 	andseq	r3, r0, r1, lsl r0
    5a4c:	02020200 	andeq	r0, r2, #0, 4
    5a50:	020202fe 	andeq	r0, r2, #-536870897	; 0xe000000f
    5a54:	828282fe 	addhi	r8, r2, #-536870897	; 0xe000000f
    5a58:	00028682 	andeq	r8, r2, r2, lsl #13
    5a5c:	00a89ce5 	adceq	r9, r8, r5, ror #25
    5a60:	08080800 	stmdaeq	r8, {fp}
    5a64:	68180c0b 	ldmdavs	r8, {r0, r1, r3, sl, fp}
    5a68:	08080b08 	stmdaeq	r8, {r3, r8, r9, fp}
    5a6c:	00081808 	andeq	r1, r8, r8, lsl #16
    5a70:	80402000 	subhi	r2, r0, r0
    5a74:	424202fe 	submi	r0, r2, #-536870897	; 0xe000000f
    5a78:	4242fe42 	submi	pc, r2, #1056	; 0x420
    5a7c:	00024242 	andeq	r4, r2, r2, asr #4
    5a80:	00b591e5 	adcseq	r9, r5, r5, ror #3
    5a84:	101f0000 	andsne	r0, pc, r0
    5a88:	27201f10 			; <UNDEFINED> instruction: 0x27201f10
    5a8c:	20272424 	eorcs	r2, r7, r4, lsr #8
    5a90:	00207f20 	eoreq	r7, r0, r0, lsr #30
    5a94:	40f00000 	rscsmi	r0, r0, r0
    5a98:	e000e040 	and	lr, r0, r0, asr #32
    5a9c:	04e04040 	strbteq	r4, [r0], #64	; 0x40
    5aa0:	0000fc02 	andeq	pc, r0, r2, lsl #24
    5aa4:	00a196e2 	adceq	r9, r1, r2, ror #13
    5aa8:	203f0000 	eorscs	r0, pc, r0
    5aac:	20202020 	eorcs	r2, r0, r0, lsr #32
    5ab0:	20202020 	eorcs	r2, r0, r0, lsr #32
    5ab4:	00003f20 	andeq	r3, r0, r0, lsr #30
    5ab8:	04fc0000 	ldrbteq	r0, [ip], #0
    5abc:	04040404 	streq	r0, [r4], #-1028	; 0xfffffbfc
    5ac0:	04040404 	streq	r0, [r4], #-1028	; 0xfffffbfc
    5ac4:	0000fc04 	andeq	pc, r0, r4, lsl #24
    5ac8:	00006e6f 	andeq	r6, r0, pc, ror #28
    5acc:	2044454c 	subcs	r4, r4, ip, asr #10
    5ad0:	0a2e4e4f 	beq	b99414 <FLASH_NS_IMAGE_START+0xb91414>
    5ad4:	00000000 	andeq	r0, r0, r0
    5ad8:	0066666f 	rsbeq	r6, r6, pc, ror #12
    5adc:	2044454c 	subcs	r4, r4, ip, asr #10
    5ae0:	2e46464f 	cdpcs	6, 4, cr4, cr6, cr15, {2}
    5ae4:	0000000a 	andeq	r0, r0, sl
    5ae8:	75706e69 	ldrbvc	r6, [r0, #-3689]!	; 0xfffff197
    5aec:	72652074 	rsbvc	r2, r5, #116	; 0x74
    5af0:	2e726f72 	mrccs	15, 3, r6, cr2, cr2, {3}
    5af4:	0000000a 	andeq	r0, r0, sl
    5af8:	5f79656b 	svcpl	0x0079656b
    5afc:	006d6573 	rsbeq	r6, sp, r3, ror r5
    5b00:	6b736174 	blvs	1cde0d8 <ID_CODE_START+0xcce0c0>
    5b04:	00000031 	andeq	r0, r0, r1, lsr r0
    5b08:	61706e69 	cmnvs	r0, r9, ror #28
    5b0c:	ff007373 			; <UNDEFINED> instruction: 0xff007373
    5b10:	e5a3ade6 	str	sl, [r3, #3558]!	; 0xde6
    5b14:	91e5a89c 			; <UNDEFINED> instruction: 0x91e5a89c
    5b18:	98bbe7b5 	ldmls	fp!, {r0, r2, r4, r5, r7, r8, r9, sl, sp, lr, pc}
    5b1c:	69bb94e7 	ldmibvs	fp!, {r0, r1, r2, r5, r6, r7, sl, ip, pc}
    5b20:	2e74696e 	vsubcs.f16	s13, s8, s29	; <UNPREDICTABLE>
    5b24:	ff00002e 			; <UNDEFINED> instruction: 0xff00002e

00005b28 <__fsym___cmd_led_sw_desc>:
    5b28:	6e65706f 	cdpvs	0, 6, cr7, cr5, cr15, {3}
    5b2c:	69777320 	ldmdbvs	r7!, {r5, r8, r9, ip, sp, lr}^
    5b30:	00686374 	rsbeq	r6, r8, r4, ror r3

00005b34 <__fsym___cmd_led_sw_name>:
    5b34:	6d635f5f 	stclvs	15, cr5, [r3, #-380]!	; 0xfffffe84
    5b38:	656c5f64 	strbvs	r5, [ip, #-3940]!	; 0xfffff09c
    5b3c:	77735f64 	ldrbvc	r5, [r3, -r4, ror #30]!
    5b40:	ffffff00 			; <UNDEFINED> instruction: 0xffffff00
    5b44:	207a6c70 	rsbscs	r6, sl, r0, ror ip
    5b48:	75706e69 	ldrbvc	r6, [r0, #-3689]!	; 0xfffff197
    5b4c:	77702074 			; <UNDEFINED> instruction: 0x77702074
    5b50:	00003a64 	andeq	r3, r0, r4, ror #20
    5b54:	ffff005f 			; <UNDEFINED> instruction: 0xffff005f

00005b58 <g_interrupt_event_link_select>:
    5b58:	00001012 	andeq	r1, r0, r2, lsl r0
    5b5c:	11000000 	mrsne	r0, (UNDEF: 0)
	...

00005b78 <g_prcr_masks>:
    5b78:	00020001 	andeq	r0, r2, r1
    5b7c:	00100008 	andseq	r0, r0, r8
    5b80:	65687374 	strbvs	r7, [r8, #-884]!	; 0xfffffc8c
    5b84:	00006c6c 	andeq	r6, r0, ip, ror #24
    5b88:	78726873 	ldmdavc	r2!, {r0, r1, r4, r5, r6, fp, sp, lr}^
    5b8c:	00000000 	andeq	r0, r0, r0
    5b90:	2068736d 	rsbcs	r7, r8, sp, ror #6
    5b94:	00000000 	andeq	r0, r0, r0
    5b98:	736e6966 	cmnvc	lr, #1671168	; 0x198000
    5b9c:	00002068 	andeq	r2, r0, r8, rrx
    5ba0:	0000003e 	andeq	r0, r0, lr, lsr r0
    5ba4:	00000008 	andeq	r0, r0, r8
    5ba8:	00006325 	andeq	r6, r0, r5, lsr #6
    5bac:	73257325 			; <UNDEFINED> instruction: 0x73257325
    5bb0:	00000000 	andeq	r0, r0, r0
    5bb4:	20732508 	rsbscs	r2, r3, r8, lsl #10
    5bb8:	00000820 	andeq	r0, r0, r0, lsr #16
    5bbc:	00082008 	andeq	r2, r8, r8
    5bc0:	ff007325 			; <UNDEFINED> instruction: 0xff007325
    5bc4:	542d5452 	strtpl	r5, [sp], #-1106	; 0xfffffbae
    5bc8:	61657268 	cmnvs	r5, r8, ror #4
    5bcc:	68732064 	ldmdavs	r3!, {r2, r5, r6, sp}^
    5bd0:	206c6c65 	rsbcs	r6, ip, r5, ror #24
    5bd4:	6d6d6f63 	stclvs	15, cr6, [sp, #-396]!	; 0xfffffe74
    5bd8:	73646e61 	cmnvc	r4, #1552	; 0x610
    5bdc:	00000a3a 	andeq	r0, r0, sl, lsr sl
    5be0:	6d635f5f 	stclvs	15, cr5, [r3, #-380]!	; 0xfffffe84
    5be4:	00005f64 	andeq	r5, r0, r4, ror #30
    5be8:	36312d25 	ldrtcc	r2, [r1], -r5, lsr #26
    5bec:	202d2073 	eorcs	r2, sp, r3, ror r0
    5bf0:	000a7325 	andeq	r7, sl, r5, lsr #6
    5bf4:	206f6f54 	rsbcs	r6, pc, r4, asr pc	; <UNPREDICTABLE>
    5bf8:	796e616d 	stmdbvc	lr!, {r0, r2, r3, r5, r6, r8, sp, lr}^
    5bfc:	67726120 	ldrbvs	r6, [r2, -r0, lsr #2]!
    5c00:	20212073 	eorcs	r2, r1, r3, ror r0
    5c04:	6f206557 	svcvs	0x00206557
    5c08:	20796c6e 	rsbscs	r6, r9, lr, ror #24
    5c0c:	3a657355 	bcc	1962968 <ID_CODE_START+0x952950>
    5c10:	0000000a 	andeq	r0, r0, sl
    5c14:	00207325 	eoreq	r7, r0, r5, lsr #6
    5c18:	203a7325 	eorscs	r7, sl, r5, lsr #6
    5c1c:	6d6d6f63 	stclvs	15, cr6, [sp, #-396]!	; 0xfffffe74
    5c20:	20646e61 	rsbcs	r6, r4, r1, ror #28
    5c24:	20746f6e 	rsbscs	r6, r4, lr, ror #30
    5c28:	6e756f66 	cdpvs	15, 7, cr6, cr5, cr6, {3}
    5c2c:	000a2e64 	andeq	r2, sl, r4, ror #28

00005c30 <__fsym___cmd_ps_desc>:
    5c30:	7473694c 	ldrbtvc	r6, [r3], #-2380	; 0xfffff6b4
    5c34:	72687420 	rsbvc	r7, r8, #32, 8	; 0x20000000
    5c38:	73646165 	cmnvc	r4, #1073741849	; 0x40000019
    5c3c:	206e6920 	rsbcs	r6, lr, r0, lsr #18
    5c40:	20656874 	rsbcs	r6, r5, r4, ror r8
    5c44:	74737973 	ldrbtvc	r7, [r3], #-2419	; 0xfffff68d
    5c48:	002e6d65 	eoreq	r6, lr, r5, ror #26

00005c4c <__fsym___cmd_ps_name>:
    5c4c:	6d635f5f 	stclvs	15, cr5, [r3, #-380]!	; 0xfffffe84
    5c50:	73705f64 	cmnvc	r0, #100, 30	; 0x190
    5c54:	00000000 	andeq	r0, r0, r0

00005c58 <__fsym___cmd_help_desc>:
    5c58:	542d5452 	strtpl	r5, [sp], #-1106	; 0xfffffbae
    5c5c:	61657268 	cmnvs	r5, r8, ror #4
    5c60:	68732064 	ldmdavs	r3!, {r2, r5, r6, sp}^
    5c64:	206c6c65 	rsbcs	r6, ip, r5, ror #24
    5c68:	706c6568 	rsbvc	r6, ip, r8, ror #10
    5c6c:	0000002e 	andeq	r0, r0, lr, lsr #32

00005c70 <__fsym___cmd_help_name>:
    5c70:	6d635f5f 	stclvs	15, cr5, [r3, #-380]!	; 0xfffffe84
    5c74:	65685f64 	strbvs	r5, [r8, #-3940]!	; 0xfffff09c
    5c78:	ff00706c 			; <UNDEFINED> instruction: 0xff00706c
    5c7c:	6c6c6548 	cfstr64vs	mvdx6, [ip], #-288	; 0xfffffee0
    5c80:	5452206f 	ldrbpl	r2, [r2], #-111	; 0xffffff91
    5c84:	7268542d 	rsbvc	r5, r8, #754974720	; 0x2d000000
    5c88:	21646165 	cmncs	r4, r5, ror #2
    5c8c:	0000000a 	andeq	r0, r0, sl
    5c90:	75462d2d 	strbvc	r2, [r6, #-3373]	; 0xfffff2d3
    5c94:	6974636e 	ldmdbvs	r4!, {r1, r2, r3, r5, r6, r8, r9, sp, lr}^
    5c98:	4c206e6f 	stcmi	14, cr6, [r0], #-444	; 0xfffffe44
    5c9c:	3a747369 	bcc	1d22a48 <ID_CODE_START+0xd12a30>
    5ca0:	0000000a 	andeq	r0, r0, sl
    5ca4:	36312d25 	ldrtcc	r2, [r1], -r5, lsr #26
    5ca8:	2d2d2073 	stccs	0, cr2, [sp, #-460]!	; 0xfffffe34
    5cac:	0a732520 	beq	1ccf134 <ID_CODE_START+0xcbf11c>
    5cb0:	00000000 	andeq	r0, r0, r0
    5cb4:	65726874 	ldrbvs	r6, [r2, #-2164]!	; 0xfffff78c
    5cb8:	00006461 	andeq	r6, r0, r1, ror #8
    5cbc:	2e2a2d25 	cdpcs	13, 2, cr2, cr10, cr5, {1}
    5cc0:	72702073 	rsbsvc	r2, r0, #115	; 0x73
    5cc4:	73202069 			; <UNDEFINED> instruction: 0x73202069
    5cc8:	75746174 	ldrbvc	r6, [r4, #-372]!	; 0xfffffe8c
    5ccc:	20202073 	eorcs	r2, r0, r3, ror r0
    5cd0:	73202020 			; <UNDEFINED> instruction: 0x73202020
    5cd4:	20202070 	eorcs	r2, r0, r0, ror r0
    5cd8:	74732020 	ldrbtvc	r2, [r3], #-32	; 0xffffffe0
    5cdc:	206b6361 	rsbcs	r6, fp, r1, ror #6
    5ce0:	657a6973 	ldrbvs	r6, [sl, #-2419]!	; 0xfffff68d
    5ce4:	78616d20 	stmdavc	r1!, {r5, r8, sl, fp, sp, lr}^
    5ce8:	65737520 	ldrbvs	r7, [r3, #-1312]!	; 0xfffffae0
    5cec:	656c2064 	strbvs	r2, [ip, #-100]!	; 0xffffff9c
    5cf0:	74207466 	strtvc	r7, [r0], #-1126	; 0xfffffb9a
    5cf4:	206b6369 	rsbcs	r6, fp, r9, ror #6
    5cf8:	72726520 	rsbsvc	r6, r2, #32, 10	; 0x8000000
    5cfc:	000a726f 	andeq	r7, sl, pc, ror #4
    5d00:	0000002d 	andeq	r0, r0, sp, lsr #32
    5d04:	2d2d2d20 	stccs	13, cr2, [sp, #-128]!	; 0xffffff80
    5d08:	2d2d2020 	stccs	0, cr2, [sp, #-128]!	; 0xffffff80
    5d0c:	2d2d2d2d 	stccs	13, cr2, [sp, #-180]!	; 0xffffff4c
    5d10:	2d2d202d 	stccs	0, cr2, [sp, #-180]!	; 0xffffff4c
    5d14:	2d2d2d2d 	stccs	13, cr2, [sp, #-180]!	; 0xffffff4c
    5d18:	2d2d2d2d 	stccs	13, cr2, [sp, #-180]!	; 0xffffff4c
    5d1c:	2d2d2d20 	stccs	13, cr2, [sp, #-128]!	; 0xffffff80
    5d20:	2d2d2d2d 	stccs	13, cr2, [sp, #-180]!	; 0xffffff4c
    5d24:	202d2d2d 	eorcs	r2, sp, sp, lsr #26
    5d28:	2d2d2d20 	stccs	13, cr2, [sp, #-128]!	; 0xffffff80
    5d2c:	202d2d2d 	eorcs	r2, sp, sp, lsr #26
    5d30:	2d2d2d20 	stccs	13, cr2, [sp, #-128]!	; 0xffffff80
    5d34:	2d2d2d2d 	stccs	13, cr2, [sp, #-180]!	; 0xffffff4c
    5d38:	202d2d2d 	eorcs	r2, sp, sp, lsr #26
    5d3c:	0a2d2d2d 	beq	b511f8 <FLASH_NS_IMAGE_START+0xb491f8>
    5d40:	00000000 	andeq	r0, r0, r0
    5d44:	2e2a2d25 	cdpcs	13, 2, cr2, cr10, cr5, {1}
    5d48:	2520732a 	strcs	r7, [r0, #-810]!	; 0xfffffcd6
    5d4c:	00206433 	eoreq	r6, r0, r3, lsr r4
    5d50:	61657220 	cmnvs	r5, r0, lsr #4
    5d54:	20207964 	eorcs	r7, r0, r4, ror #18
    5d58:	00000000 	andeq	r0, r0, r0
    5d5c:	73757320 	cmnvc	r5, #32, 6	; 0x80000000
    5d60:	646e6570 	strbtvs	r6, [lr], #-1392	; 0xfffffa90
    5d64:	00000000 	andeq	r0, r0, r0
    5d68:	696e6920 	stmdbvs	lr!, {r5, r8, fp, sp, lr}^
    5d6c:	20202074 	eorcs	r2, r0, r4, ror r0
    5d70:	00000000 	andeq	r0, r0, r0
    5d74:	6f6c6320 	svcvs	0x006c6320
    5d78:	20206573 	eorcs	r6, r0, r3, ror r5
    5d7c:	00000000 	andeq	r0, r0, r0
    5d80:	6e757220 	cdpvs	2, 7, cr7, cr5, cr0, {1}
    5d84:	676e696e 	strbvs	r6, [lr, -lr, ror #18]!
    5d88:	00000000 	andeq	r0, r0, r0
    5d8c:	25783020 	ldrbcs	r3, [r8, #-32]!	; 0xffffffe0
    5d90:	20783830 	rsbscs	r3, r8, r0, lsr r8
    5d94:	30257830 	eorcc	r7, r5, r0, lsr r8
    5d98:	20207838 	eorcs	r7, r0, r8, lsr r8
    5d9c:	30252020 	eorcc	r2, r5, r0, lsr #32
    5da0:	25256432 	strcs	r6, [r5, #-1074]!	; 0xfffffbce
    5da4:	30202020 	eorcc	r2, r0, r0, lsr #32
    5da8:	38302578 	ldmdacc	r0!, {r3, r4, r5, r6, r8, sl, sp}
    5dac:	30252078 	eorcc	r2, r5, r8, ror r0
    5db0:	000a6433 	andeq	r6, sl, r3, lsr r4
    5db4:	656d6974 	strbvs	r6, [sp, #-2420]!	; 0xfffff68c
    5db8:	00000072 	andeq	r0, r0, r2, ror r0
    5dbc:	2e2a2d25 	cdpcs	13, 2, cr2, cr10, cr5, {1}
    5dc0:	70202073 	eorvc	r2, r0, r3, ror r0
    5dc4:	6f697265 	svcvs	0x00697265
    5dc8:	20636964 	rsbcs	r6, r3, r4, ror #18
    5dcc:	69742020 	ldmdbvs	r4!, {r5, sp}^
    5dd0:	756f656d 	strbvc	r6, [pc, #-1389]!	; 586b <Brand+0x233>
    5dd4:	20202074 	eorcs	r2, r0, r4, ror r0
    5dd8:	20202020 	eorcs	r2, r0, r0, lsr #32
    5ddc:	67616c66 	strbvs	r6, [r1, -r6, ror #24]!
    5de0:	0000000a 	andeq	r0, r0, sl
    5de4:	2d2d2d20 	stccs	13, cr2, [sp, #-128]!	; 0xffffff80
    5de8:	2d2d2d2d 	stccs	13, cr2, [sp, #-180]!	; 0xffffff4c
    5dec:	202d2d2d 	eorcs	r2, sp, sp, lsr #26
    5df0:	2d2d2d2d 	stccs	13, cr2, [sp, #-180]!	; 0xffffff4c
    5df4:	2d2d2d2d 	stccs	13, cr2, [sp, #-180]!	; 0xffffff4c
    5df8:	2d202d2d 	stccs	13, cr2, [r0, #-180]!	; 0xffffff4c
    5dfc:	2d2d2d2d 	stccs	13, cr2, [sp, #-180]!	; 0xffffff4c
    5e00:	2d2d2d2d 	stccs	13, cr2, [sp, #-180]!	; 0xffffff4c
    5e04:	000a2d2d 	andeq	r2, sl, sp, lsr #26
    5e08:	2e2a2d25 	cdpcs	13, 2, cr2, cr10, cr5, {1}
    5e0c:	3020732a 	eorcc	r7, r0, sl, lsr #6
    5e10:	38302578 	ldmdacc	r0!, {r3, r4, r5, r6, r8, sl, sp}
    5e14:	78302078 	ldmdavc	r0!, {r3, r4, r5, r6, sp}
    5e18:	78383025 	ldmdavc	r8!, {r0, r2, r5, ip, sp}
    5e1c:	00000020 	andeq	r0, r0, r0, lsr #32
    5e20:	69746361 	ldmdbvs	r4!, {r0, r5, r6, r8, r9, sp, lr}^
    5e24:	65746176 	ldrbvs	r6, [r4, #-374]!	; 0xfffffe8a
    5e28:	00000a64 	andeq	r0, r0, r4, ror #20
    5e2c:	63616564 	cmnvs	r1, #100, 10	; 0x19000000
    5e30:	61766974 	cmnvs	r6, r4, ror r9
    5e34:	0a646574 	beq	191f40c <ID_CODE_START+0x90f3f4>
    5e38:	00000000 	andeq	r0, r0, r0
    5e3c:	72727563 	rsbsvc	r7, r2, #415236096	; 0x18c00000
    5e40:	20746e65 	rsbscs	r6, r4, r5, ror #28
    5e44:	6b636974 	blvs	18e041c <ID_CODE_START+0x8d0404>
    5e48:	2578303a 	ldrbcs	r3, [r8, #-58]!	; 0xffffffc6
    5e4c:	0a783830 	beq	1e13f14 <ID_CODE_START+0xe03efc>
    5e50:	00000000 	andeq	r0, r0, r0
    5e54:	616d6573 	smcvs	54867	; 0xd653
    5e58:	726f6870 	rsbvc	r6, pc, #112, 16	; 0x700000
    5e5c:	00000065 	andeq	r0, r0, r5, rrx
    5e60:	2e2a2d25 	cdpcs	13, 2, cr2, cr10, cr5, {1}
    5e64:	20762073 	rsbscs	r2, r6, r3, ror r0
    5e68:	75732020 	ldrbvc	r2, [r3, #-32]!	; 0xffffffe0
    5e6c:	6e657073 	mcrvs	0, 3, r7, cr5, cr3, {3}
    5e70:	68742064 	ldmdavs	r4!, {r2, r5, r6, sp}^
    5e74:	64616572 	strbtvs	r6, [r1], #-1394	; 0xfffffa8e
    5e78:	0000000a 	andeq	r0, r0, sl
    5e7c:	2d2d2d20 	stccs	13, cr2, [sp, #-128]!	; 0xffffff80
    5e80:	2d2d2d20 	stccs	13, cr2, [sp, #-128]!	; 0xffffff80
    5e84:	2d2d2d2d 	stccs	13, cr2, [sp, #-180]!	; 0xffffff4c
    5e88:	2d2d2d2d 	stccs	13, cr2, [sp, #-180]!	; 0xffffff4c
    5e8c:	0a2d2d2d 	beq	b51348 <FLASH_NS_IMAGE_START+0xb49348>
    5e90:	00000000 	andeq	r0, r0, r0
    5e94:	2e2a2d25 	cdpcs	13, 2, cr2, cr10, cr5, {1}
    5e98:	2520732a 	strcs	r7, [r0, #-810]!	; 0xfffffcd6
    5e9c:	20643330 	rsbcs	r3, r4, r0, lsr r3
    5ea0:	003a6425 	eorseq	r6, sl, r5, lsr #8
    5ea4:	0000002f 	andeq	r0, r0, pc, lsr #32
    5ea8:	2e2a2d25 	cdpcs	13, 2, cr2, cr10, cr5, {1}
    5eac:	2520732a 	strcs	r7, [r0, #-810]!	; 0xfffffcd6
    5eb0:	20643330 	rsbcs	r3, r4, r0, lsr r3
    5eb4:	000a6425 	andeq	r6, sl, r5, lsr #8

00005eb8 <__fsym_list_desc>:
    5eb8:	7473696c 	ldrbtvc	r6, [r3], #-2412	; 0xfffff694
    5ebc:	6c6c6120 	stfvse	f6, [ip], #-128	; 0xffffff80
    5ec0:	6d797320 	ldclvs	3, cr7, [r9, #-128]!	; 0xffffff80
    5ec4:	206c6f62 	rsbcs	r6, ip, r2, ror #30
    5ec8:	73206e69 			; <UNDEFINED> instruction: 0x73206e69
    5ecc:	65747379 	ldrbvs	r7, [r4, #-889]!	; 0xfffffc87
    5ed0:	0000006d 	andeq	r0, r0, sp, rrx

00005ed4 <__fsym_list_name>:
    5ed4:	7473696c 	ldrbtvc	r6, [r3], #-2412	; 0xfffff694
    5ed8:	00000000 	andeq	r0, r0, r0

00005edc <__fsym___cmd_list_timer_desc>:
    5edc:	7473696c 	ldrbtvc	r6, [r3], #-2412	; 0xfffff694
    5ee0:	6d697420 	cfstrdvs	mvd7, [r9, #-128]!	; 0xffffff80
    5ee4:	69207265 	stmdbvs	r0!, {r0, r2, r5, r6, r9, ip, sp, lr}
    5ee8:	7973206e 	ldmdbvc	r3!, {r1, r2, r3, r5, r6, sp}^
    5eec:	6d657473 	cfstrdvs	mvd7, [r5, #-460]!	; 0xfffffe34
    5ef0:	00000000 	andeq	r0, r0, r0

00005ef4 <__fsym___cmd_list_timer_name>:
    5ef4:	6d635f5f 	stclvs	15, cr5, [r3, #-380]!	; 0xfffffe84
    5ef8:	696c5f64 	stmdbvs	ip!, {r2, r5, r6, r8, r9, sl, fp, ip, lr}^
    5efc:	745f7473 	ldrbvc	r7, [pc], #-1139	; 5f04 <__fsym___cmd_list_timer_name+0x10>
    5f00:	72656d69 	rsbvc	r6, r5, #6720	; 0x1a40
    5f04:	00000000 	andeq	r0, r0, r0

00005f08 <__fsym_list_timer_desc>:
    5f08:	7473696c 	ldrbtvc	r6, [r3], #-2412	; 0xfffff694
    5f0c:	6d697420 	cfstrdvs	mvd7, [r9, #-128]!	; 0xffffff80
    5f10:	69207265 	stmdbvs	r0!, {r0, r2, r5, r6, r9, ip, sp, lr}
    5f14:	7973206e 	ldmdbvc	r3!, {r1, r2, r3, r5, r6, sp}^
    5f18:	6d657473 	cfstrdvs	mvd7, [r5, #-460]!	; 0xfffffe34
    5f1c:	00000000 	andeq	r0, r0, r0

00005f20 <__fsym_list_timer_name>:
    5f20:	7473696c 	ldrbtvc	r6, [r3], #-2412	; 0xfffff694
    5f24:	6d69745f 	cfstrdvs	mvd7, [r9, #-380]!	; 0xfffffe84
    5f28:	00007265 	andeq	r7, r0, r5, ror #4

00005f2c <__fsym___cmd_list_sem_desc>:
    5f2c:	7473696c 	ldrbtvc	r6, [r3], #-2412	; 0xfffff694
    5f30:	6d657320 	stclvs	3, cr7, [r5, #-128]!	; 0xffffff80
    5f34:	6f687061 	svcvs	0x00687061
    5f38:	69206572 	stmdbvs	r0!, {r1, r4, r5, r6, r8, sl, sp, lr}
    5f3c:	7973206e 	ldmdbvc	r3!, {r1, r2, r3, r5, r6, sp}^
    5f40:	6d657473 	cfstrdvs	mvd7, [r5, #-460]!	; 0xfffffe34
    5f44:	00000000 	andeq	r0, r0, r0

00005f48 <__fsym___cmd_list_sem_name>:
    5f48:	6d635f5f 	stclvs	15, cr5, [r3, #-380]!	; 0xfffffe84
    5f4c:	696c5f64 	stmdbvs	ip!, {r2, r5, r6, r8, r9, sl, fp, ip, lr}^
    5f50:	735f7473 	cmpvc	pc, #1929379840	; 0x73000000
    5f54:	00006d65 	andeq	r6, r0, r5, ror #26

00005f58 <__fsym_list_sem_desc>:
    5f58:	7473696c 	ldrbtvc	r6, [r3], #-2412	; 0xfffff694
    5f5c:	6d657320 	stclvs	3, cr7, [r5, #-128]!	; 0xffffff80
    5f60:	6f687061 	svcvs	0x00687061
    5f64:	69206572 	stmdbvs	r0!, {r1, r4, r5, r6, r8, sl, sp, lr}
    5f68:	7973206e 	ldmdbvc	r3!, {r1, r2, r3, r5, r6, sp}^
    5f6c:	6d657473 	cfstrdvs	mvd7, [r5, #-460]!	; 0xfffffe34
    5f70:	00000000 	andeq	r0, r0, r0

00005f74 <__fsym_list_sem_name>:
    5f74:	7473696c 	ldrbtvc	r6, [r3], #-2412	; 0xfffff694
    5f78:	6d65735f 	stclvs	3, cr7, [r5, #-380]!	; 0xfffffe84
    5f7c:	00000000 	andeq	r0, r0, r0

00005f80 <__fsym___cmd_list_thread_desc>:
    5f80:	7473696c 	ldrbtvc	r6, [r3], #-2412	; 0xfffff694
    5f84:	72687420 	rsbvc	r7, r8, #32, 8	; 0x20000000
    5f88:	00646165 	rsbeq	r6, r4, r5, ror #2

00005f8c <__fsym___cmd_list_thread_name>:
    5f8c:	6d635f5f 	stclvs	15, cr5, [r3, #-380]!	; 0xfffffe84
    5f90:	696c5f64 	stmdbvs	ip!, {r2, r5, r6, r8, r9, sl, fp, ip, lr}^
    5f94:	745f7473 	ldrbvc	r7, [pc], #-1139	; 5f9c <__fsym___cmd_list_thread_name+0x10>
    5f98:	61657268 	cmnvs	r5, r8, ror #4
    5f9c:	00000064 	andeq	r0, r0, r4, rrx

00005fa0 <__fsym_list_thread_desc>:
    5fa0:	7473696c 	ldrbtvc	r6, [r3], #-2412	; 0xfffff694
    5fa4:	72687420 	rsbvc	r7, r8, #32, 8	; 0x20000000
    5fa8:	00646165 	rsbeq	r6, r4, r5, ror #2

00005fac <__fsym_list_thread_name>:
    5fac:	7473696c 	ldrbtvc	r6, [r3], #-2412	; 0xfffff694
    5fb0:	7268745f 	rsbvc	r7, r8, #1593835520	; 0x5f000000
    5fb4:	00646165 	rsbeq	r6, r4, r5, ror #2

00005fb8 <__fsym___cmd_version_desc>:
    5fb8:	776f6873 			; <UNDEFINED> instruction: 0x776f6873
    5fbc:	2d545220 	lfmcs	f5, 2, [r4, #-128]	; 0xffffff80
    5fc0:	65726854 	ldrbvs	r6, [r2, #-2132]!	; 0xfffff7ac
    5fc4:	76206461 	strtvc	r6, [r0], -r1, ror #8
    5fc8:	69737265 	ldmdbvs	r3!, {r0, r2, r5, r6, r9, ip, sp, lr}^
    5fcc:	69206e6f 	stmdbvs	r0!, {r0, r1, r2, r3, r5, r6, r9, sl, fp, sp, lr}
    5fd0:	726f666e 	rsbvc	r6, pc, #115343360	; 0x6e00000
    5fd4:	6974616d 	ldmdbvs	r4!, {r0, r2, r3, r5, r6, r8, sp, lr}^
    5fd8:	00006e6f 	andeq	r6, r0, pc, ror #28

00005fdc <__fsym___cmd_version_name>:
    5fdc:	6d635f5f 	stclvs	15, cr5, [r3, #-380]!	; 0xfffffe84
    5fe0:	65765f64 	ldrbvs	r5, [r6, #-3940]!	; 0xfffff09c
    5fe4:	6f697372 	svcvs	0x00697372
    5fe8:	0000006e 	andeq	r0, r0, lr, rrx

00005fec <__fsym_version_desc>:
    5fec:	776f6873 			; <UNDEFINED> instruction: 0x776f6873
    5ff0:	2d545220 	lfmcs	f5, 2, [r4, #-128]	; 0xffffff80
    5ff4:	65726854 	ldrbvs	r6, [r2, #-2132]!	; 0xfffff7ac
    5ff8:	76206461 	strtvc	r6, [r0], -r1, ror #8
    5ffc:	69737265 	ldmdbvs	r3!, {r0, r2, r5, r6, r9, ip, sp, lr}^
    6000:	69206e6f 	stmdbvs	r0!, {r0, r1, r2, r3, r5, r6, r9, sl, fp, sp, lr}
    6004:	726f666e 	rsbvc	r6, pc, #115343360	; 0x6e00000
    6008:	6974616d 	ldmdbvs	r4!, {r0, r2, r3, r5, r6, r8, sp, lr}^
    600c:	00006e6f 	andeq	r6, r0, pc, ror #28

00006010 <__fsym_version_name>:
    6010:	73726576 	cmnvc	r2, #494927872	; 0x1d800000
    6014:	006e6f69 	rsbeq	r6, lr, r9, ror #30

00006018 <__fsym_hello_desc>:
    6018:	20796173 	rsbscs	r6, r9, r3, ror r1
    601c:	6c6c6568 	cfstr64vs	mvdx6, [ip], #-416	; 0xfffffe60
    6020:	6f77206f 	svcvs	0x0077206f
    6024:	00646c72 	rsbeq	r6, r4, r2, ror ip

00006028 <__fsym_hello_name>:
    6028:	6c6c6568 	cfstr64vs	mvdx6, [ip], #-416	; 0xfffffe60
    602c:	ffff006f 			; <UNDEFINED> instruction: 0xffff006f
    6030:	000032f6 	strdeq	r3, [r0], -r6
    6034:	000032d0 	ldrdeq	r3, [r0], -r0
    6038:	000032fc 	strdeq	r3, [r0], -ip
    603c:	000032dc 	ldrdeq	r3, [r0], -ip
    6040:	000032e6 	andeq	r3, r0, r6, ror #5
    6044:	6c646974 			; <UNDEFINED> instruction: 0x6c646974
    6048:	ffff0065 			; <UNDEFINED> instruction: 0xffff0065
    604c:	4c554e28 	mrrcmi	14, 2, r4, r5, cr8
    6050:	0000294c 	andeq	r2, r0, ip, asr #18
    6054:	205c200a 	subscs	r2, ip, sl
    6058:	0a2f207c 	beq	bce250 <FLASH_NS_IMAGE_START+0xbc6250>
    605c:	00000000 	andeq	r0, r0, r0
    6060:	5452202d 	ldrbpl	r2, [r2], #-45	; 0xffffffd3
    6064:	20202d20 	eorcs	r2, r0, r0, lsr #26
    6068:	54202020 	strtpl	r2, [r0], #-32	; 0xffffffe0
    606c:	61657268 	cmnvs	r5, r8, ror #4
    6070:	704f2064 	subvc	r2, pc, r4, rrx
    6074:	74617265 	strbtvc	r7, [r1], #-613	; 0xfffffd9b
    6078:	20676e69 	rsbcs	r6, r7, r9, ror #28
    607c:	74737953 	ldrbtvc	r7, [r3], #-2387	; 0xfffff6ad
    6080:	000a6d65 	andeq	r6, sl, r5, ror #26
    6084:	7c202f20 	stcvc	15, cr2, [r0], #-128	; 0xffffff80
    6088:	20205c20 	eorcs	r5, r0, r0, lsr #24
    608c:	25202020 	strcs	r2, [r0, #-32]!	; 0xffffffe0
    6090:	64252e64 	strtvs	r2, [r5], #-3684	; 0xfffff19c
    6094:	2064252e 	rsbcs	r2, r4, lr, lsr #10
    6098:	6c697562 	cfstr64vs	mvdx7, [r9], #-392	; 0xfffffe78
    609c:	73252064 			; <UNDEFINED> instruction: 0x73252064
    60a0:	0000000a 	andeq	r0, r0, sl
    60a4:	2072614d 	rsbscs	r6, r2, sp, asr #2
    60a8:	32203432 	eorcc	r3, r0, #838860800	; 0x32000000
    60ac:	00323230 	eorseq	r3, r2, r0, lsr r2
    60b0:	30303220 	eorscc	r3, r0, r0, lsr #4
    60b4:	202d2036 	eorcs	r2, sp, r6, lsr r0
    60b8:	30323032 	eorscc	r3, r2, r2, lsr r0
    60bc:	706f4320 	rsbvc	r4, pc, r0, lsr #6
    60c0:	67697279 			; <UNDEFINED> instruction: 0x67697279
    60c4:	62207468 	eorvs	r7, r0, #104, 8	; 0x68000000
    60c8:	74722079 	ldrbtvc	r2, [r2], #-121	; 0xffffff87
    60cc:	7268742d 	rsbvc	r7, r8, #754974720	; 0x2d000000
    60d0:	20646165 	rsbcs	r6, r4, r5, ror #2
    60d4:	6d616574 	cfstr64vs	mvdx6, [r1, #-464]!	; 0xfffffe30
    60d8:	ffff000a 			; <UNDEFINED> instruction: 0xffff000a
    60dc:	00004404 	andeq	r4, r0, r4, lsl #8
    60e0:	00004396 	muleq	r0, r6, r3
    60e4:	00004396 	muleq	r0, r6, r3
    60e8:	00004396 	muleq	r0, r6, r3
    60ec:	00004396 	muleq	r0, r6, r3
    60f0:	00004396 	muleq	r0, r6, r3
    60f4:	00004396 	muleq	r0, r6, r3
    60f8:	00004396 	muleq	r0, r6, r3
    60fc:	00004396 	muleq	r0, r6, r3
    6100:	00004396 	muleq	r0, r6, r3
    6104:	00004396 	muleq	r0, r6, r3
    6108:	0000455e 	andeq	r4, r0, lr, asr r5
    610c:	000043d2 	ldrdeq	r4, [r0], -r2
    6110:	00004396 	muleq	r0, r6, r3
    6114:	00004396 	muleq	r0, r6, r3
    6118:	00004396 	muleq	r0, r6, r3
    611c:	00004396 	muleq	r0, r6, r3
    6120:	000043d2 	ldrdeq	r4, [r0], -r2
    6124:	00004396 	muleq	r0, r6, r3
    6128:	00004396 	muleq	r0, r6, r3
    612c:	00004396 	muleq	r0, r6, r3
    6130:	00004396 	muleq	r0, r6, r3
    6134:	00004396 	muleq	r0, r6, r3
    6138:	0000460c 	andeq	r4, r0, ip, lsl #12
    613c:	00004538 	andeq	r4, r0, r8, lsr r5
    6140:	00004396 	muleq	r0, r6, r3
    6144:	00004396 	muleq	r0, r6, r3
    6148:	00004410 	andeq	r4, r0, r0, lsl r4
    614c:	00004396 	muleq	r0, r6, r3
    6150:	0000440c 	andeq	r4, r0, ip, lsl #8
    6154:	00004396 	muleq	r0, r6, r3
    6158:	00004396 	muleq	r0, r6, r3
    615c:	00004408 	andeq	r4, r0, r8, lsl #8

00006160 <large_digits.2>:
    6160:	33323130 	teqcc	r2, #48, 2
    6164:	37363534 			; <UNDEFINED> instruction: 0x37363534
    6168:	42413938 	submi	r3, r1, #56, 18	; 0xe0000
    616c:	46454443 	strbmi	r4, [r5], -r3, asr #8
    6170:	00000000 	andeq	r0, r0, r0

00006174 <small_digits.1>:
    6174:	33323130 	teqcc	r2, #48, 2
    6178:	37363534 			; <UNDEFINED> instruction: 0x37363534
    617c:	62613938 	rsbvs	r3, r1, #56, 18	; 0xe0000
    6180:	66656463 	strbtvs	r6, [r5], -r3, ror #8
    6184:	00000000 	andeq	r0, r0, r0

00006188 <__lowest_bit_bitmap>:
    6188:	00010000 	andeq	r0, r1, r0
    618c:	00010002 	andeq	r0, r1, r2
    6190:	00010003 	andeq	r0, r1, r3
    6194:	00010002 	andeq	r0, r1, r2
    6198:	00010004 	andeq	r0, r1, r4
    619c:	00010002 	andeq	r0, r1, r2
    61a0:	00010003 	andeq	r0, r1, r3
    61a4:	00010002 	andeq	r0, r1, r2
    61a8:	00010005 	andeq	r0, r1, r5
    61ac:	00010002 	andeq	r0, r1, r2
    61b0:	00010003 	andeq	r0, r1, r3
    61b4:	00010002 	andeq	r0, r1, r2
    61b8:	00010004 	andeq	r0, r1, r4
    61bc:	00010002 	andeq	r0, r1, r2
    61c0:	00010003 	andeq	r0, r1, r3
    61c4:	00010002 	andeq	r0, r1, r2
    61c8:	00010006 	andeq	r0, r1, r6
    61cc:	00010002 	andeq	r0, r1, r2
    61d0:	00010003 	andeq	r0, r1, r3
    61d4:	00010002 	andeq	r0, r1, r2
    61d8:	00010004 	andeq	r0, r1, r4
    61dc:	00010002 	andeq	r0, r1, r2
    61e0:	00010003 	andeq	r0, r1, r3
    61e4:	00010002 	andeq	r0, r1, r2
    61e8:	00010005 	andeq	r0, r1, r5
    61ec:	00010002 	andeq	r0, r1, r2
    61f0:	00010003 	andeq	r0, r1, r3
    61f4:	00010002 	andeq	r0, r1, r2
    61f8:	00010004 	andeq	r0, r1, r4
    61fc:	00010002 	andeq	r0, r1, r2
    6200:	00010003 	andeq	r0, r1, r3
    6204:	00010002 	andeq	r0, r1, r2
    6208:	00010007 	andeq	r0, r1, r7
    620c:	00010002 	andeq	r0, r1, r2
    6210:	00010003 	andeq	r0, r1, r3
    6214:	00010002 	andeq	r0, r1, r2
    6218:	00010004 	andeq	r0, r1, r4
    621c:	00010002 	andeq	r0, r1, r2
    6220:	00010003 	andeq	r0, r1, r3
    6224:	00010002 	andeq	r0, r1, r2
    6228:	00010005 	andeq	r0, r1, r5
    622c:	00010002 	andeq	r0, r1, r2
    6230:	00010003 	andeq	r0, r1, r3
    6234:	00010002 	andeq	r0, r1, r2
    6238:	00010004 	andeq	r0, r1, r4
    623c:	00010002 	andeq	r0, r1, r2
    6240:	00010003 	andeq	r0, r1, r3
    6244:	00010002 	andeq	r0, r1, r2
    6248:	00010006 	andeq	r0, r1, r6
    624c:	00010002 	andeq	r0, r1, r2
    6250:	00010003 	andeq	r0, r1, r3
    6254:	00010002 	andeq	r0, r1, r2
    6258:	00010004 	andeq	r0, r1, r4
    625c:	00010002 	andeq	r0, r1, r2
    6260:	00010003 	andeq	r0, r1, r3
    6264:	00010002 	andeq	r0, r1, r2
    6268:	00010005 	andeq	r0, r1, r5
    626c:	00010002 	andeq	r0, r1, r2
    6270:	00010003 	andeq	r0, r1, r3
    6274:	00010002 	andeq	r0, r1, r2
    6278:	00010004 	andeq	r0, r1, r4
    627c:	00010002 	andeq	r0, r1, r2
    6280:	00010003 	andeq	r0, r1, r3
    6284:	00010002 	andeq	r0, r1, r2
    6288:	6e69616d 	powvsez	f6, f1, #5.0
    628c:	ffffff00 			; <UNDEFINED> instruction: 0xffffff00
    6290:	3a727370 	bcc	1ca3058 <ID_CODE_START+0xc93040>
    6294:	25783020 	ldrbcs	r3, [r8, #-32]!	; 0xffffffe0
    6298:	0a783830 	beq	1e14360 <ID_CODE_START+0xe04348>
    629c:	00000000 	andeq	r0, r0, r0
    62a0:	3a637020 	bcc	18e2328 <ID_CODE_START+0x8d2310>
    62a4:	25783020 	ldrbcs	r3, [r8, #-32]!	; 0xffffffe0
    62a8:	0a783830 	beq	1e14370 <ID_CODE_START+0xe04358>
    62ac:	00000000 	andeq	r0, r0, r0
    62b0:	3a726c20 	bcc	1ca1338 <ID_CODE_START+0xc91320>
    62b4:	25783020 	ldrbcs	r3, [r8, #-32]!	; 0xffffffe0
    62b8:	0a783830 	beq	1e14380 <ID_CODE_START+0xe04368>
    62bc:	00000000 	andeq	r0, r0, r0
    62c0:	3a323172 	bcc	c92890 <FLASH_NS_IMAGE_START+0xc8a890>
    62c4:	25783020 	ldrbcs	r3, [r8, #-32]!	; 0xffffffe0
    62c8:	0a783830 	beq	1e14390 <ID_CODE_START+0xe04378>
    62cc:	00000000 	andeq	r0, r0, r0
    62d0:	3a333072 	bcc	cd24a0 <FLASH_NS_IMAGE_START+0xcca4a0>
    62d4:	25783020 	ldrbcs	r3, [r8, #-32]!	; 0xffffffe0
    62d8:	0a783830 	beq	1e143a0 <ID_CODE_START+0xe04388>
    62dc:	00000000 	andeq	r0, r0, r0
    62e0:	3a323072 	bcc	c924b0 <FLASH_NS_IMAGE_START+0xc8a4b0>
    62e4:	25783020 	ldrbcs	r3, [r8, #-32]!	; 0xffffffe0
    62e8:	0a783830 	beq	1e143b0 <ID_CODE_START+0xe04398>
    62ec:	00000000 	andeq	r0, r0, r0
    62f0:	3a313072 	bcc	c524c0 <FLASH_NS_IMAGE_START+0xc4a4c0>
    62f4:	25783020 	ldrbcs	r3, [r8, #-32]!	; 0xffffffe0
    62f8:	0a783830 	beq	1e143c0 <ID_CODE_START+0xe043a8>
    62fc:	00000000 	andeq	r0, r0, r0
    6300:	3a303072 	bcc	c124d0 <FLASH_NS_IMAGE_START+0xc0a4d0>
    6304:	25783020 	ldrbcs	r3, [r8, #-32]!	; 0xffffffe0
    6308:	0a783830 	beq	1e143d0 <ID_CODE_START+0xe043b8>
    630c:	00000000 	andeq	r0, r0, r0
    6310:	64726168 	ldrbtvs	r6, [r2], #-360	; 0xfffffe98
    6314:	75616620 	strbvc	r6, [r1, #-1568]!	; 0xfffff9e0
    6318:	6f20746c 	svcvs	0x0020746c
    631c:	6874206e 	ldmdavs	r4!, {r1, r2, r3, r5, r6, sp}^
    6320:	64616572 	strbtvs	r6, [r1], #-1394	; 0xfffffa8e
    6324:	7325203a 			; <UNDEFINED> instruction: 0x7325203a
    6328:	ffff000a 			; <UNDEFINED> instruction: 0xffff000a

0000632c <_global_impure_ptr>:
    632c:	20004008 	andcs	r4, r0, r8

00006330 <all_implied_fbits>:
    6330:	3e0b3e3b 	mcrcc	14, 0, r3, cr11, cr11, {1}
    6334:	3e253e10 	mcrcc	14, 1, r3, cr5, cr0, {0}
    6338:	3e033e33 	mcrcc	14, 0, r3, cr3, cr3, {1}
    633c:	3e143e06 	cdpcc	14, 1, cr3, cr4, cr6, {0}
    6340:	3e0d3e0e 	cdpcc	14, 0, cr3, cr13, cr14, {0}
    6344:	3e123e24 	cdpcc	14, 1, cr3, cr2, cr4, {1}
    6348:	3e023e27 	cdpcc	14, 0, cr3, cr2, cr7, {1}
    634c:	3e093e18 	mcrcc	14, 0, r3, cr9, cr8, {0}
    6350:	00003e0a 	andeq	r3, r0, sl, lsl #28

00006354 <__fsym___cmd_led_sw>:
    6354:	00005b34 	andeq	r5, r0, r4, lsr fp
    6358:	00005b28 	andeq	r5, r0, r8, lsr #22
    635c:	00001191 	muleq	r0, r1, r1

00006360 <__fsym___cmd_ps>:
    6360:	00005c4c 	andeq	r5, r0, ip, asr #24
    6364:	00005c30 	andeq	r5, r0, r0, lsr ip
    6368:	00001f81 	andeq	r1, r0, r1, lsl #31

0000636c <__fsym___cmd_help>:
    636c:	00005c70 	andeq	r5, r0, r0, ror ip
    6370:	00005c58 	andeq	r5, r0, r8, asr ip
    6374:	00001f15 	andeq	r1, r0, r5, lsl pc

00006378 <__fsym_list>:
    6378:	00005ed4 	ldrdeq	r5, [r0], -r4
    637c:	00005eb8 			; <UNDEFINED> instruction: 0x00005eb8
    6380:	000022d1 	ldrdeq	r2, [r0], -r1

00006384 <__fsym___cmd_list_timer>:
    6384:	00005ef4 	strdeq	r5, [r0], -r4
    6388:	00005edc 	ldrdeq	r5, [r0], -ip
    638c:	0000253d 	andeq	r2, r0, sp, lsr r5

00006390 <__fsym_list_timer>:
    6390:	00005f20 	andeq	r5, r0, r0, lsr #30
    6394:	00005f08 	andeq	r5, r0, r8, lsl #30
    6398:	0000253d 	andeq	r2, r0, sp, lsr r5

0000639c <__fsym___cmd_list_sem>:
    639c:	00005f48 	andeq	r5, r0, r8, asr #30
    63a0:	00005f2c 	andeq	r5, r0, ip, lsr #30
    63a4:	000026e5 	andeq	r2, r0, r5, ror #13

000063a8 <__fsym_list_sem>:
    63a8:	00005f74 	andeq	r5, r0, r4, ror pc
    63ac:	00005f58 	andeq	r5, r0, r8, asr pc
    63b0:	000026e5 	andeq	r2, r0, r5, ror #13

000063b4 <__fsym___cmd_list_thread>:
    63b4:	00005f8c 	andeq	r5, r0, ip, lsl #31
    63b8:	00005f80 	andeq	r5, r0, r0, lsl #31
    63bc:	00002329 	andeq	r2, r0, r9, lsr #6

000063c0 <__fsym_list_thread>:
    63c0:	00005fac 	andeq	r5, r0, ip, lsr #31
    63c4:	00005fa0 	andeq	r5, r0, r0, lsr #31
    63c8:	00002329 	andeq	r2, r0, r9, lsr #6

000063cc <__fsym___cmd_version>:
    63cc:	00005fdc 	ldrdeq	r5, [r0], -ip
    63d0:	00005fb8 			; <UNDEFINED> instruction: 0x00005fb8
    63d4:	000022c5 	andeq	r2, r0, r5, asr #5

000063d8 <__fsym_version>:
    63d8:	00006010 	andeq	r6, r0, r0, lsl r0
    63dc:	00005fec 	andeq	r5, r0, ip, ror #31
    63e0:	000022c5 	andeq	r2, r0, r5, asr #5

000063e4 <__fsym_hello>:
    63e4:	00006028 	andeq	r6, r0, r8, lsr #32
    63e8:	00006018 	andeq	r6, r0, r8, lsl r0
    63ec:	000022b1 			; <UNDEFINED> instruction: 0x000022b1

000063f0 <__rt_init_rti_start>:
    63f0:	000047dd 	ldrdeq	r4, [r0], -sp

000063f4 <__rt_init_rti_board_start>:
    63f4:	00004815 	andeq	r4, r0, r5, lsl r8

000063f8 <__rt_init_uart_init>:
    63f8:	00001441 	andeq	r1, r0, r1, asr #8

000063fc <__rt_init_rti_board_end>:
    63fc:	00004819 	andeq	r4, r0, r9, lsl r8

00006400 <__rt_init_finsh_system_init>:
    6400:	00001a85 	andeq	r1, r0, r5, lsl #21

00006404 <__rt_init_rti_end>:
    6404:	00004811 	andeq	r4, r0, r1, lsl r8

Disassembly of section .eh_frame:

00006408 <__FRAME_END__>:
    6408:	00000000 	andeq	r0, r0, r0

Disassembly of section .ARM.exidx:

0000640c <__etext-0x8>:
    640c:	7fffa144 	svcvc	0x00ffa144
    6410:	00000001 	andeq	r0, r0, r1

Disassembly of section .data:

20004000 <_impure_ptr>:
20004000:	20004008 	andcs	r4, r0, r8
20004004:	00000000 	andeq	r0, r0, r0

20004008 <impure_data>:
20004008:	00000000 	andeq	r0, r0, r0
2000400c:	200042f4 	strdcs	r4, [r0], -r4	; <UNPREDICTABLE>
20004010:	2000435c 	andcs	r4, r0, ip, asr r3
20004014:	200043c4 	andcs	r4, r0, r4, asr #7
	...
200040b0:	00000001 	andeq	r0, r0, r1
200040b4:	00000000 	andeq	r0, r0, r0
200040b8:	abcd330e 	blge	1f350cf8 <NVIC_PENDSVSET+0xf350cf8>
200040bc:	e66d1234 			; <UNDEFINED> instruction: 0xe66d1234
200040c0:	0005deec 	andeq	sp, r5, ip, ror #29
200040c4:	0000000b 	andeq	r0, r0, fp
	...

20004430 <__atexit_recursive_mutex>:
20004430:	20004ec4 	andcs	r4, r0, r4, asr #29

20004434 <__dso_handle>:
20004434:	00000000 	andeq	r0, r0, r0

20004438 <rt_object_container>:
20004438:	00000001 	andeq	r0, r0, r1
2000443c:	2000443c 	andcs	r4, r0, ip, lsr r4
20004440:	2000443c 	andcs	r4, r0, ip, lsr r4
20004444:	00000078 	andeq	r0, r0, r8, ror r0
20004448:	00000002 	andeq	r0, r0, r2
2000444c:	2000444c 	andcs	r4, r0, ip, asr #8
20004450:	2000444c 	andcs	r4, r0, ip, asr #8
20004454:	00000020 	andeq	r0, r0, r0, lsr #32
20004458:	0000000a 	andeq	r0, r0, sl
2000445c:	2000445c 	andcs	r4, r0, ip, asr r4
20004460:	2000445c 	andcs	r4, r0, ip, asr r4
20004464:	0000002c 	andeq	r0, r0, ip, lsr #32

20004468 <__init_array_start>:
20004468:	00004dd1 	ldrdeq	r4, [r0], -r1

2000446c <__frame_dummy_init_array_entry>:
2000446c:	0000052d 	andeq	r0, r0, sp, lsr #10

20004470 <__do_global_dtors_aux_fini_array_entry>:
20004470:	00000501 	andeq	r0, r0, r1, lsl #10

Disassembly of section .noinit:

20004474 <g_clock_freq>:
	...

Disassembly of section .bss:

20004488 <__bss_start__>:
20004488:	00000000 	andeq	r0, r0, r0

2000448c <object.0>:
	...

200044a4 <key_sem>:
	...

200044c4 <led_state>:
200044c4:	00000000 	andeq	r0, r0, r0

200044c8 <rt_task1>:
	...

20004540 <rt_inpass_thread>:
	...

200045b8 <inpass_thread_stack>:
	...

200046b8 <task1_stack>:
	...

200047b8 <send_flag>:
200047b8:	00000000 	andeq	r0, r0, r0

200047bc <SystemCoreClock>:
200047bc:	00000000 	andeq	r0, r0, r0

200047c0 <g_protect_counters>:
	...

200047c8 <_syscall_table_begin>:
200047c8:	00000000 	andeq	r0, r0, r0

200047cc <_syscall_table_end>:
200047cc:	00000000 	andeq	r0, r0, r0

200047d0 <_sysvar_table_begin>:
200047d0:	00000000 	andeq	r0, r0, r0

200047d4 <_sysvar_table_end>:
200047d4:	00000000 	andeq	r0, r0, r0

200047d8 <shell>:
200047d8:	00000000 	andeq	r0, r0, r0

200047dc <_shell>:
	...

20004854 <finsh_thread>:
	...

200048cc <finsh_prompt.0>:
	...

20004950 <finsh_thread_stack>:
	...

20004b50 <rt_interrupt_nest>:
20004b50:	00000000 	andeq	r0, r0, r0

20004b54 <rt_timer_list>:
	...

20004b5c <random_nr.0>:
20004b5c:	00000000 	andeq	r0, r0, r0

20004b60 <rt_scheduler_lock_nest>:
20004b60:	00000000 	andeq	r0, r0, r0

20004b64 <rt_thread_priority_table>:
	...

20004ba4 <rt_current_priority>:
20004ba4:	00000000 	andeq	r0, r0, r0

20004ba8 <rt_current_thread>:
20004ba8:	00000000 	andeq	r0, r0, r0

20004bac <rt_thread_ready_priority_group>:
20004bac:	00000000 	andeq	r0, r0, r0

20004bb0 <rt_thread_defunct>:
	...

20004bb8 <rt_tick>:
20004bb8:	00000000 	andeq	r0, r0, r0

20004bbc <idle>:
	...

20004c34 <rt_thread_stack>:
	...

20004cb4 <__rt_errno>:
20004cb4:	00000000 	andeq	r0, r0, r0

20004cb8 <rt_log_buf.0>:
	...

20004d38 <main_thread>:
	...

20004db0 <main_stack>:
	...

20004eb0 <rt_thread_switch_interrupt_flag>:
20004eb0:	00000000 	andeq	r0, r0, r0

20004eb4 <rt_interrupt_to_thread>:
20004eb4:	00000000 	andeq	r0, r0, r0

20004eb8 <rt_interrupt_from_thread>:
20004eb8:	00000000 	andeq	r0, r0, r0

20004ebc <__lock___arc4random_mutex>:
20004ebc:	00000000 	andeq	r0, r0, r0

20004ec0 <__lock___at_quick_exit_mutex>:
20004ec0:	00000000 	andeq	r0, r0, r0

20004ec4 <__lock___atexit_recursive_mutex>:
20004ec4:	00000000 	andeq	r0, r0, r0

20004ec8 <__lock___dd_hash_mutex>:
20004ec8:	00000000 	andeq	r0, r0, r0

20004ecc <__lock___env_recursive_mutex>:
20004ecc:	00000000 	andeq	r0, r0, r0

20004ed0 <__lock___malloc_recursive_mutex>:
20004ed0:	00000000 	andeq	r0, r0, r0

20004ed4 <__lock___sfp_recursive_mutex>:
20004ed4:	00000000 	andeq	r0, r0, r0

20004ed8 <__lock___sinit_recursive_mutex>:
20004ed8:	00000000 	andeq	r0, r0, r0

20004edc <__lock___tz_mutex>:
20004edc:	00000000 	andeq	r0, r0, r0

Disassembly of section .heap:

20004ee0 <g_heap>:
	...

Disassembly of section .stack_dummy:

200050e0 <g_main_stack>:
	...

Disassembly of section .ARM.attributes:

00000000 <.ARM.attributes>:
   0:	00002b41 	andeq	r2, r0, r1, asr #22
   4:	61656100 	cmnvs	r5, r0, lsl #2
   8:	01006962 	tsteq	r0, r2, ror #18
   c:	00000021 	andeq	r0, r0, r1, lsr #32
  10:	4d2d3805 	stcmi	8, cr3, [sp, #-20]!	; 0xffffffec
  14:	5341422e 	movtpl	r4, #4654	; 0x122e
  18:	10060045 	andne	r0, r6, r5, asr #32
  1c:	03094d07 	movweq	r4, #40199	; 0x9d07
  20:	01140412 	tsteq	r4, r2, lsl r4
  24:	03170115 	tsteq	r7, #1073741829	; 0x40000005
  28:	011a0118 	tsteq	sl, r8, lsl r1

Disassembly of section .comment:

00000000 <.comment>:
   0:	3a434347 	bcc	10d0d24 <ID_CODE_START+0xc0d0c>
   4:	4e472820 	cdpmi	8, 4, cr2, cr7, cr0, {1}
   8:	72412055 	subvc	r2, r1, #85	; 0x55
   c:	6d45206d 	stclvs	0, cr2, [r5, #-436]	; 0xfffffe4c
  10:	64646562 	strbtvs	r6, [r4], #-1378	; 0xfffffa9e
  14:	54206465 	strtpl	r6, [r0], #-1125	; 0xfffffb9b
  18:	636c6f6f 	cmnvs	ip, #444	; 0x1bc
  1c:	6e696168 	powvsez	f6, f1, #0.0
  20:	2e303120 	rsfcssp	f3, f0, f0
  24:	30322d33 	eorscc	r2, r2, r3, lsr sp
  28:	312e3132 			; <UNDEFINED> instruction: 0x312e3132
  2c:	31202930 			; <UNDEFINED> instruction: 0x31202930
  30:	2e332e30 	mrccs	14, 1, r2, cr3, cr0, {1}
  34:	30322031 	eorscc	r2, r2, r1, lsr r0
  38:	38303132 	ldmdacc	r0!, {r1, r4, r5, r8, ip, sp}
  3c:	28203432 	stmdacs	r0!, {r1, r4, r5, sl, ip, sp}
  40:	656c6572 	strbvs	r6, [ip, #-1394]!	; 0xfffffa8e
  44:	29657361 	stmdbcs	r5!, {r0, r5, r6, r8, r9, ip, sp, lr}^
	...

Disassembly of section .debug_frame:

00000000 <.debug_frame>:
   0:	0000000c 	andeq	r0, r0, ip
   4:	ffffffff 			; <UNDEFINED> instruction: 0xffffffff
   8:	7c020001 	stcvc	0, cr0, [r2], {1}
   c:	000d0c0e 	andeq	r0, sp, lr, lsl #24
  10:	00000014 	andeq	r0, r0, r4, lsl r0
  14:	00000000 	andeq	r0, r0, r0
  18:	00004b5c 	andeq	r4, r0, ip, asr fp
  1c:	00000020 	andeq	r0, r0, r0, lsr #32
  20:	84080e41 	strhi	r0, [r8], #-3649	; 0xfffff1bf
  24:	00018e02 	andeq	r8, r1, r2, lsl #28
  28:	0000000c 	andeq	r0, r0, ip
  2c:	ffffffff 			; <UNDEFINED> instruction: 0xffffffff
  30:	7c020001 	stcvc	0, cr0, [r2], {1}
  34:	000d0c0e 	andeq	r0, sp, lr, lsl #24
  38:	00000018 	andeq	r0, r0, r8, lsl r0
  3c:	00000028 	andeq	r0, r0, r8, lsr #32
  40:	00004b7c 	andeq	r4, r0, ip, ror fp
  44:	0000004c 	andeq	r0, r0, ip, asr #32
  48:	84100e41 	ldrhi	r0, [r0], #-3649	; 0xfffff1bf
  4c:	86038504 	strhi	r8, [r3], -r4, lsl #10
  50:	00018e02 	andeq	r8, r1, r2, lsl #28
  54:	0000000c 	andeq	r0, r0, ip
  58:	ffffffff 			; <UNDEFINED> instruction: 0xffffffff
  5c:	7c020001 	stcvc	0, cr0, [r2], {1}
  60:	000d0c0e 	andeq	r0, sp, lr, lsl #24
  64:	00000020 	andeq	r0, r0, r0, lsr #32
  68:	00000054 	andeq	r0, r0, r4, asr r0
  6c:	00004bc8 	andeq	r4, r0, r8, asr #23
  70:	000000a0 	andeq	r0, r0, r0, lsr #1
  74:	84140e41 	ldrhi	r0, [r4], #-3649	; 0xfffff1bf
  78:	86048505 	strhi	r8, [r4], -r5, lsl #10
  7c:	8e028703 	cdphi	7, 0, cr8, cr2, cr3, {0}
  80:	180e4201 	stmdane	lr, {r0, r9, lr}
  84:	00000688 	andeq	r0, r0, r8, lsl #13
  88:	0000000c 	andeq	r0, r0, ip
  8c:	ffffffff 			; <UNDEFINED> instruction: 0xffffffff
  90:	7c020001 	stcvc	0, cr0, [r2], {1}
  94:	000d0c0e 	andeq	r0, sp, lr, lsl #24
  98:	0000001c 	andeq	r0, r0, ip, lsl r0
  9c:	00000088 	andeq	r0, r0, r8, lsl #1
  a0:	00004c68 	andeq	r4, r0, r8, ror #24
  a4:	000000a0 	andeq	r0, r0, r0, lsr #1
  a8:	84140e41 	ldrhi	r0, [r4], #-3649	; 0xfffff1bf
  ac:	86048505 	strhi	r8, [r4], -r5, lsl #10
  b0:	8e028703 	cdphi	7, 0, cr8, cr2, cr3, {0}
  b4:	00000001 	andeq	r0, r0, r1
  b8:	0000000c 	andeq	r0, r0, ip
  bc:	ffffffff 			; <UNDEFINED> instruction: 0xffffffff
  c0:	7c020001 	stcvc	0, cr0, [r2], {1}
  c4:	000d0c0e 	andeq	r0, sp, lr, lsl #24
  c8:	00000014 	andeq	r0, r0, r4, lsl r0
  cc:	000000b8 	strheq	r0, [r0], -r8
  d0:	00004d08 	andeq	r4, r0, r8, lsl #26
  d4:	00000058 	andeq	r0, r0, r8, asr r0
  d8:	84080e41 	strhi	r0, [r8], #-3649	; 0xfffff1bf
  dc:	00018e02 	andeq	r8, r1, r2, lsl #28
  e0:	0000000c 	andeq	r0, r0, ip
  e4:	ffffffff 			; <UNDEFINED> instruction: 0xffffffff
  e8:	7c020001 	stcvc	0, cr0, [r2], {1}
  ec:	000d0c0e 	andeq	r0, sp, lr, lsl #24
  f0:	00000018 	andeq	r0, r0, r8, lsl r0
  f4:	000000e0 	andeq	r0, r0, r0, ror #1
  f8:	00004d60 	andeq	r4, r0, r0, ror #26
  fc:	00000070 	andeq	r0, r0, r0, ror r0
 100:	840c0e41 	strhi	r0, [ip], #-3649	; 0xfffff1bf
 104:	8e028503 	cfsh32hi	mvfx8, mvfx2, #3
 108:	00000001 	andeq	r0, r0, r1
 10c:	0000000c 	andeq	r0, r0, ip
 110:	ffffffff 			; <UNDEFINED> instruction: 0xffffffff
 114:	7c020001 	stcvc	0, cr0, [r2], {1}
 118:	000d0c0e 	andeq	r0, sp, lr, lsl #24
 11c:	00000014 	andeq	r0, r0, r4, lsl r0
 120:	0000010c 	andeq	r0, r0, ip, lsl #2
 124:	00004dd0 	ldrdeq	r4, [r0], -r0
 128:	0000001a 	andeq	r0, r0, sl, lsl r0
 12c:	84080e45 	strhi	r0, [r8], #-3653	; 0xfffff1bb
 130:	00018e02 	andeq	r8, r1, r2, lsl #28
 134:	00000028 	andeq	r0, r0, r8, lsr #32
 138:	0000010c 	andeq	r0, r0, ip, lsl #2
 13c:	00004dec 	andeq	r4, r0, ip, ror #27
 140:	000000f0 	strdeq	r0, [r0], -r0	; <UNPREDICTABLE>
 144:	84140e41 	ldrhi	r0, [r4], #-3649	; 0xfffff1bf
 148:	86048505 	strhi	r8, [r4], -r5, lsl #10
 14c:	8e028703 	cdphi	7, 0, cr8, cr2, cr3, {0}
 150:	240e4a01 	strcs	r4, [lr], #-2561	; 0xfffff5ff
 154:	08890988 	stmeq	r9, {r3, r7, r8, fp}
 158:	068b078a 	streq	r0, [fp], sl, lsl #15
 15c:	00300e41 	eorseq	r0, r0, r1, asr #28
 160:	0000000c 	andeq	r0, r0, ip
 164:	ffffffff 			; <UNDEFINED> instruction: 0xffffffff
 168:	7c020001 	stcvc	0, cr0, [r2], {1}
 16c:	000d0c0e 	andeq	r0, sp, lr, lsl #24
 170:	00000014 	andeq	r0, r0, r4, lsl r0
 174:	00000160 	andeq	r0, r0, r0, ror #2
 178:	00004edc 	ldrdeq	r4, [r0], -ip
 17c:	00000010 	andeq	r0, r0, r0, lsl r0
 180:	84080e41 	strhi	r0, [r8], #-3649	; 0xfffff1bf
 184:	00018e02 	andeq	r8, r1, r2, lsl #28
 188:	0000000c 	andeq	r0, r0, ip
 18c:	ffffffff 			; <UNDEFINED> instruction: 0xffffffff
 190:	7c020001 	stcvc	0, cr0, [r2], {1}
 194:	000d0c0e 	andeq	r0, sp, lr, lsl #24
 198:	00000014 	andeq	r0, r0, r4, lsl r0
 19c:	00000188 	andeq	r0, r0, r8, lsl #3
 1a0:	00004eec 	andeq	r4, r0, ip, ror #29
 1a4:	00000036 	andeq	r0, r0, r6, lsr r0
 1a8:	84080e43 	strhi	r0, [r8], #-3651	; 0xfffff1bd
 1ac:	00018e02 	andeq	r8, r1, r2, lsl #28
 1b0:	0000000c 	andeq	r0, r0, ip
 1b4:	ffffffff 			; <UNDEFINED> instruction: 0xffffffff
 1b8:	7c020001 	stcvc	0, cr0, [r2], {1}
 1bc:	000d0c0e 	andeq	r0, sp, lr, lsl #24
 1c0:	0000000c 	andeq	r0, r0, ip
 1c4:	000001b0 			; <UNDEFINED> instruction: 0x000001b0
 1c8:	00004f24 	andeq	r4, r0, r4, lsr #30
 1cc:	00000002 	andeq	r0, r0, r2
 1d0:	0000000c 	andeq	r0, r0, ip
 1d4:	000001b0 			; <UNDEFINED> instruction: 0x000001b0
 1d8:	00004f28 	andeq	r4, r0, r8, lsr #30
 1dc:	00000002 	andeq	r0, r0, r2
 1e0:	0000000c 	andeq	r0, r0, ip
 1e4:	000001b0 			; <UNDEFINED> instruction: 0x000001b0
 1e8:	00004f2c 	andeq	r4, r0, ip, lsr #30
 1ec:	00000002 	andeq	r0, r0, r2
 1f0:	0000000c 	andeq	r0, r0, ip
 1f4:	000001b0 			; <UNDEFINED> instruction: 0x000001b0
 1f8:	00004f30 	andeq	r4, r0, r0, lsr pc
 1fc:	00000002 	andeq	r0, r0, r2
 200:	0000000c 	andeq	r0, r0, ip
 204:	000001b0 			; <UNDEFINED> instruction: 0x000001b0
 208:	00004f34 	andeq	r4, r0, r4, lsr pc
 20c:	00000002 	andeq	r0, r0, r2
 210:	0000000c 	andeq	r0, r0, ip
 214:	000001b0 			; <UNDEFINED> instruction: 0x000001b0
 218:	00004f38 	andeq	r4, r0, r8, lsr pc
 21c:	00000002 	andeq	r0, r0, r2
 220:	0000000c 	andeq	r0, r0, ip
 224:	000001b0 			; <UNDEFINED> instruction: 0x000001b0
 228:	00004f3c 	andeq	r4, r0, ip, lsr pc
 22c:	00000004 	andeq	r0, r0, r4
 230:	0000000c 	andeq	r0, r0, ip
 234:	000001b0 			; <UNDEFINED> instruction: 0x000001b0
 238:	00004f40 	andeq	r4, r0, r0, asr #30
 23c:	00000004 	andeq	r0, r0, r4
 240:	0000000c 	andeq	r0, r0, ip
 244:	000001b0 			; <UNDEFINED> instruction: 0x000001b0
 248:	00004f44 	andeq	r4, r0, r4, asr #30
 24c:	00000002 	andeq	r0, r0, r2
 250:	0000000c 	andeq	r0, r0, ip
 254:	000001b0 			; <UNDEFINED> instruction: 0x000001b0
 258:	00004f48 	andeq	r4, r0, r8, asr #30
 25c:	00000002 	andeq	r0, r0, r2
 260:	0000000c 	andeq	r0, r0, ip
 264:	ffffffff 			; <UNDEFINED> instruction: 0xffffffff
 268:	7c020001 	stcvc	0, cr0, [r2], {1}
 26c:	000d0c0e 	andeq	r0, sp, lr, lsl #24
 270:	00000028 	andeq	r0, r0, r8, lsr #32
 274:	00000260 	andeq	r0, r0, r0, ror #4
 278:	00004f4c 	andeq	r4, r0, ip, asr #30
 27c:	000000aa 	andeq	r0, r0, sl, lsr #1
 280:	84140e41 	ldrhi	r0, [r4], #-3649	; 0xfffff1bf
 284:	86048505 	strhi	r8, [r4], -r5, lsl #10
 288:	8e028703 	cdphi	7, 0, cr8, cr2, cr3, {0}
 28c:	200e4401 	andcs	r4, lr, r1, lsl #8
 290:	07890888 	streq	r0, [r9, r8, lsl #17]
 294:	0e45068a 	cdpeq	6, 4, cr0, cr5, cr10, {4}
 298:	00000028 	andeq	r0, r0, r8, lsr #32
 29c:	0000000c 	andeq	r0, r0, ip
 2a0:	ffffffff 			; <UNDEFINED> instruction: 0xffffffff
 2a4:	7c020001 	stcvc	0, cr0, [r2], {1}
 2a8:	000d0c0e 	andeq	r0, sp, lr, lsl #24
 2ac:	0000000c 	andeq	r0, r0, ip
 2b0:	0000029c 	muleq	r0, ip, r2
 2b4:	00004ff8 	strdeq	r4, [r0], -r8
 2b8:	00000002 	andeq	r0, r0, r2
